0000001001	T000000010	¿CORREGISTE EL CONTRATO NUMERO 2004-01886?	T000000001	C	Apr  2 2004 11:09:27:906AM	¿CORREGISTE EL CONTRATO NUMERO 2004-01886?	S	Apr  2 2004 11:57:21:780AM	N	N
0000001002	T000000009		T000000001	C	Apr  2 2004 11:09:27:906AM	¿CORREGISTE EL CONTRATO NUMERO 2004-01886?	S	Apr  2 2004 12:43:53:670PM	N	S
0000001003	T000000001	NO SE LO Q ES ESO	T000000010	C	Apr  2 2004 11:58:14:280AM	¿CORREGISTE EL CONTRATO NUMERO 2004-01886?	S	Apr  2 2004  1:22:03:136PM	N	S
0000001004	T000000011	PAQUITA COMO ESTÁS, ESTAS VIENDO LO FACIL QUE ES TODO	T000000010	C	Apr  2 2004 12:29:22:640PM	ESTO ES UNA PRUEBA	S	Apr  2 2004  2:37:10:026PM	N	S
0000001005	T000000010	HOLA PAQUITA QUE TAL COMO ESTAS	T000000010	C	Apr  2 2004 12:33:13:716PM	ESTO ES UNA PRUEBA	S	Apr  2 2004 12:36:39:313PM	N	N
0000001006	T000000011	HOLA PAQUITA QUE TAL COMO ESTAS	T000000010	C	Apr  2 2004 12:33:13:716PM	ESTO ES UNA PRUEBA	S	Apr  2 2004  2:38:22:233PM	N	S
0000001008	T000000001	Estas dos sociedades estàn metidas con el colegiado 01049. Ambas tienen este colegiado ¿?	0000000001	C	Apr 13 2004  3:09:21:736PM	SOCIEDADES 88887 Y 88888	S	Apr 13 2004  4:19:28:953PM	N	N
0000001009	T000000016	Estas dos sociedades estàn metidas con el colegiado 01049. Ambas tienen este colegiado ¿?	0000000001	C	Apr 13 2004  3:09:21:736PM	SOCIEDADES 88887 Y 88888	S	May  5 2004 10:17:47:730AM	N	N
0000001010	T000000010	Estas dos sociedades estàn metidas con el colegiado 01049. Ambas tienen este colegiado ¿?	0000000001	C	Apr 13 2004  3:09:21:736PM	SOCIEDADES 88887 Y 88888	S	Apr 13 2004  2:11:38:626PM	N	N
0000001011	T000000018	Estas dos sociedades estàn metidas con el colegiado 01049. Ambas tienen este colegiado ¿?	0000000001	C	Apr 13 2004  3:09:21:736PM	SOCIEDADES 88887 Y 88888	S	Apr 13 2004  5:58:31:790PM	N	S
0000001012	T000000004	Estas dos sociedades estàn metidas con el colegiado 01049. Ambas tienen este colegiado ¿?	0000000001	C	Apr 13 2004  3:09:21:736PM	SOCIEDADES 88887 Y 88888	S	Apr 13 2004  2:38:53:390PM	N	S
0000001016	0000000001	Negativo.  Sociedad 88887: Colegiados 1012 y 1049.
 Sociedad 88888: Colegiados 1014 y 808.
	T000000004	C	Apr 13 2004  2:42:07:640PM	SOCIEDADES 88887 Y 88888	S	Apr 13 2004  5:47:54:733PM	N	N
0000001017	T000000004	Gracias, ya lo està cambiando Blanca	0000000001	C	Apr 13 2004  5:48:22:223PM	SOCIEDADES 88887 Y 88888	S	Apr 14 2004 10:14:08:160AM	N	N
0000001018	T000000004	Hola Elvira,

Ya hemos actualizado los campos de fecha de alta y baja en la ficha del colegiado.

Antiguamente estaban las fechas de la primera baja y de la primera alta
Saludos	0000000001	C	Apr 15 2004 11:19:34:776AM	CAMPOS FECHA ALTA  Y BAJA	S	Apr 15 2004 12:50:35:540PM	N	N
0000001020	0000000001	Gracias.	T000000004	C	Apr 15 2004 12:51:10:870PM	CAMPOS FECHA ALTA  Y BAJA	S	Apr 15 2004  3:01:59:596PM	N	N
0000001021	0000000001	Gracias.	T000000004	C	Apr 15 2004 12:51:58:980PM	CAMPOS FECHA ALTA  Y BAJA	S	Apr 15 2004  3:02:02:900PM	N	N
0000001022	T000000003	EXP. 04-2539 VDO, COAC 62961	T000000009	C	Apr 30 2004 10:42:28:780AM	CARTAS	S	Apr 30 2004 11:02:01:110AM	S	N
0000001023	T000000017	EXP. 2539, VDO. COAC 62961	T000000009	C	Apr 30 2004 10:43:03:280AM	CARTAS	S	Jul 22 2004 12:10:02:890PM	S	N
0000001024	T000000003	EXP. 2539, VDO. COAC 62961	T000000009	C	Apr 30 2004 10:43:03:280AM	CARTAS	S	Apr 30 2004 10:59:34:766AM	S	N
0000001025	T000000010	EXP. 04-1611-62959 YA SE LO PASO A LOGA	T000000009	C	Apr 30 2004 12:18:17:670PM	CARTAS	S	May  5 2004 10:58:40:876AM	S	N
0000001026	T000000012	EXP. 04-1611-62959 YA SE LO PASO A LOGA	T000000009	C	Apr 30 2004 12:18:17:670PM	CARTAS	S	May  6 2004  1:49:31:940PM	S	N
0000001027	T000000009	Hola Patricia,

Ya están arreglados, hay un "error" en el SICA que ocurre al introducir sociedades, si se ha borrado la fila de una sociedad previamente grabada y se vuelve a añadir la fila con la misma sociedd pasa esto...


Intentaremos solucionarlo para la próxima versión, de  todos modo si te vuelve a ocurrir me llamas o me envias un mensajes como hago yo por aquí...

Saludos.Paco	0000000001	C	May  6 2004  9:58:34:250AM	ARREGLADOS CONTRATOS 2004-02825 Y 2004-02754	S	May  6 2004  9:58:02:656AM	N	S
0000001028	0000000001	PACO PUEDES CAMBIAR ESTE REGISTRO POR EL 2004-02758? LO VOLVI A CONFUNDIR, GRACIAS
TAMBIEN ME PASA CON EL REGISTO 2004-02845 LO DE LAS COCIEDADES	T000000009	C	May  6 2004 10:21:23:500AM	CONTRATO 2004-02753	S	May  6 2004  3:32:13:016PM	S	N
0000001029	T000000009	hecho	0000000001	C	May  6 2004  6:57:36:466PM	CONTRATO 2004-02753	S	May  7 2004  8:09:18:203AM	N	S
0000001030	0000000001	cambiar al registro 2004-02758, por favor me corre mucha prisa porque lleva parado como cuatro dias por este motivo, y cayetano no a venido todavia, gracias y los siento, saludos	T000000009	C	May  7 2004  8:16:52:093AM	REG. 2004-02358	S	May  7 2004  8:46:06:780AM	S	N
0000001032	T000000010	Ponme todos los registros con los que te falla para así decirselo a Paco. ¿Vale?	T000000018	C	May 18 2004  2:42:24:046PM	REG. 2004-03260	S	May 19 2004  1:23:54:563PM	N	N
0000001034	T000000004	ELVI D. RAMON TIENE IMPAGO DE CUOTAS?	T000000009	C	May 27 2004  7:45:03:110AM	COLEG. 00334	S	May 27 2004  8:47:39:716AM	S	N
0000001035	T000000009	NEGATIVO. BYE.	T000000004	C	May 27 2004  8:48:07:266AM	COLEG. 00334	S	May 27 2004  8:54:25:780AM	N	S
0000001036	T000000009	Hola Patricia,

Ya te hemos dejado este registro grabado correctamente.

Saludos. Paco	0000000001	C	Jun  2 2004  9:20:39:140AM	REGISTRO 2004-02639	S	Jun  2 2004  9:17:57:140AM	N	S
0000001037	0000000001	HOLA PACO
TENGO EL PROBLEMA DE LA SOCIEDAD CON EL REG. 2004-03777
BESOS, GRACIAS	T000000009	C	Jun  8 2004  6:31:37:500PM	REF. 2004-03777	S	Jun  9 2004 10:14:16:466AM	S	N
0000001038	0000000001	HOLA PACO, 
TENGO PROBLEMAS CON ESTE EXP. POR LA SOCIEDAD, GRACIAS	T000000009	C	Jun  9 2004  9:47:39:796AM	REF. 2004-01139	S	Jun  9 2004 10:14:22:593AM	S	N
0000001039	T000000016	Patri, ya están solucionados los contratos 2004-03777 y 2004-01139 mete de nuevo los importes.	0000000001	C	Jun  9 2004 10:19:31:780AM	CORRECCIONES DE NUMEROS	N		S	N
0000001040	T000000009	Patri, ya están solucionados los contratos 2004-03777 y 2004-01139 mete de nuevo los importes.	0000000001	C	Jun  9 2004 10:19:31:780AM	CORRECCIONES DE NUMEROS	S	Jun  9 2004 10:26:32:203AM	N	S
0000001041	T000000008	GLORIA, EL Nº VDO. COAC ES 63609	T000000009	C	Jun 10 2004 10:17:15:466AM	REF. 2004-03827	S	Jun 10 2004 12:31:44:370PM	S	N
0000001044	T000000003	MONTSE EXP. PARA ACTUALIZAR 	T000000009	C	Jun 21 2004 11:46:32:343AM	REG. 2003-01227	S	Jun 21 2004 12:03:38:360PM	S	N
0000001045	T000000009	Hola Patri,

Ya tienes arreglado este contrato (espero )

besos	0000000001	C	Jun 29 2004 10:33:39:656AM	2004-04372	S	Jun 29 2004 10:45:46:576AM	N	S
0000001046	0000000001	PACO OTRO IGUAL CON EL TEMA DE LA SOCIEDAD, GRACIAS, BESOS	T000000009	C	Jun 29 2004 10:46:45:920AM	EXP. 2004-04376	S	Jul  1 2004 12:50:44:983PM	S	N
0000001047	T000000009	Hola Patricia..

ya lo tienes .. besos	0000000001	C	Jul  1 2004 12:56:33:420PM	EXP. 2004-04376	S	Jul  1 2004 12:52:46:843PM	N	S
0000001050	T000000001	Saludos,

    Cuando vuelvan a entrar al programa la clave de acceso que tienen actualmente no les servirá, deberán preguntarme la nueva clave de acceso.

    Gracias por todo y disculpen las molestias.

Un saludo,
Cayetano Hernández.
Administrador de Sistemas	T000000018	C	Jul  2 2004 12:18:12:716PM	NUEVA CLAVE DE ACCESO	S	Jul  5 2004 11:42:54:063AM	N	N
0000001051	T000000010	Saludos,

    Cuando vuelvan a entrar al programa la clave de acceso que tienen actualmente no les servirá, deberán preguntarme la nueva clave de acceso.

    Gracias por todo y disculpen las molestias.

Un saludo,
Cayetano Hernández.
Administrador de Sistemas	T000000018	C	Jul  2 2004 12:18:12:716PM	NUEVA CLAVE DE ACCESO	S	Jul  2 2004  1:30:39:890PM	N	N
0000001052	T000000017	Saludos,

    Cuando vuelvan a entrar al programa la clave de acceso que tienen actualmente no les servirá, deberán preguntarme la nueva clave de acceso.

    Gracias por todo y disculpen las molestias.

Un saludo,
Cayetano Hernández.
Administrador de Sistemas	T000000018	C	Jul  2 2004 12:18:12:716PM	NUEVA CLAVE DE ACCESO	S	Jul 22 2004 12:09:53:376PM	N	N
0000001053	T000000013	Saludos,

    Cuando vuelvan a entrar al programa la clave de acceso que tienen actualmente no les servirá, deberán preguntarme la nueva clave de acceso.

    Gracias por todo y disculpen las molestias.

Un saludo,
Cayetano Hernández.
Administrador de Sistemas	T000000018	C	Jul  2 2004 12:18:12:716PM	NUEVA CLAVE DE ACCESO	S	Jul  5 2004  8:28:18:063AM	N	N
0000001054	T000000004	Saludos,

    Cuando vuelvan a entrar al programa la clave de acceso que tienen actualmente no les servirá, deberán preguntarme la nueva clave de acceso.

    Gracias por todo y disculpen las molestias.

Un saludo,
Cayetano Hernández.
Administrador de Sistemas	T000000018	C	Jul  2 2004 12:18:12:716PM	NUEVA CLAVE DE ACCESO	S	Jul  2 2004 12:34:23:063PM	N	N
0000001055	0000001003	Saludos,

    Cuando vuelvan a entrar al programa la clave de acceso que tienen actualmente no les servirá, deberán preguntarme la nueva clave de acceso.

    Gracias por todo y disculpen las molestias.

Un saludo,
Cayetano Hernández.
Administrador de Sistemas	T000000018	C	Jul  2 2004 12:18:12:716PM	NUEVA CLAVE DE ACCESO	N		S	N
0000001056	T000000005	Saludos,

    Cuando vuelvan a entrar al programa la clave de acceso que tienen actualmente no les servirá, deberán preguntarme la nueva clave de acceso.

    Gracias por todo y disculpen las molestias.

Un saludo,
Cayetano Hernández.
Administrador de Sistemas	T000000018	C	Jul  2 2004 12:18:12:716PM	NUEVA CLAVE DE ACCESO	N		N	S
0000001057	T000000002	Saludos,

    Cuando vuelvan a entrar al programa la clave de acceso que tienen actualmente no les servirá, deberán preguntarme la nueva clave de acceso.

    Gracias por todo y disculpen las molestias.

Un saludo,
Cayetano Hernández.
Administrador de Sistemas	T000000018	C	Jul  2 2004 12:18:12:716PM	NUEVA CLAVE DE ACCESO	S	Aug  2 2004  8:42:15:983AM	N	S
0000001058	T000000014	Saludos,

    Cuando vuelvan a entrar al programa la clave de acceso que tienen actualmente no les servirá, deberán preguntarme la nueva clave de acceso.

    Gracias por todo y disculpen las molestias.

Un saludo,
Cayetano Hernández.
Administrador de Sistemas	T000000018	C	Jul  2 2004 12:18:12:716PM	NUEVA CLAVE DE ACCESO	S	Dec 29 2005 11:28:01:736AM	N	S
0000001059	T000000015	Saludos,

    Cuando vuelvan a entrar al programa la clave de acceso que tienen actualmente no les servirá, deberán preguntarme la nueva clave de acceso.

    Gracias por todo y disculpen las molestias.

Un saludo,
Cayetano Hernández.
Administrador de Sistemas	T000000018	C	Jul  2 2004 12:18:12:716PM	NUEVA CLAVE DE ACCESO	S	Nov  9 2004 11:38:18:063AM	N	S
0000001060	T000000007	Saludos,

    Cuando vuelvan a entrar al programa la clave de acceso que tienen actualmente no les servirá, deberán preguntarme la nueva clave de acceso.

    Gracias por todo y disculpen las molestias.

Un saludo,
Cayetano Hernández.
Administrador de Sistemas	T000000018	C	Jul  2 2004 12:18:12:716PM	NUEVA CLAVE DE ACCESO	S	Jul  9 2004  8:43:31:530AM	N	N
0000001061	T000000006	Saludos,

    Cuando vuelvan a entrar al programa la clave de acceso que tienen actualmente no les servirá, deberán preguntarme la nueva clave de acceso.

    Gracias por todo y disculpen las molestias.

Un saludo,
Cayetano Hernández.
Administrador de Sistemas	T000000018	C	Jul  2 2004 12:18:12:716PM	NUEVA CLAVE DE ACCESO	S	Oct 13 2004  1:12:26:796PM	N	N
0000001062	T000000003	Saludos,

    Cuando vuelvan a entrar al programa la clave de acceso que tienen actualmente no les servirá, deberán preguntarme la nueva clave de acceso.

    Gracias por todo y disculpen las molestias.

Un saludo,
Cayetano Hernández.
Administrador de Sistemas	T000000018	C	Jul  2 2004 12:18:12:716PM	NUEVA CLAVE DE ACCESO	S	Jul  2 2004  1:16:20:126PM	N	N
0000001063	T000000012	Saludos,

    Cuando vuelvan a entrar al programa la clave de acceso que tienen actualmente no les servirá, deberán preguntarme la nueva clave de acceso.

    Gracias por todo y disculpen las molestias.

Un saludo,
Cayetano Hernández.
Administrador de Sistemas	T000000018	C	Jul  2 2004 12:18:12:716PM	NUEVA CLAVE DE ACCESO	S	Jul  2 2004 12:18:56:900PM	N	N
0000001064	T000000011	Saludos,

    Cuando vuelvan a entrar al programa la clave de acceso que tienen actualmente no les servirá, deberán preguntarme la nueva clave de acceso.

    Gracias por todo y disculpen las molestias.

Un saludo,
Cayetano Hernández.
Administrador de Sistemas	T000000018	C	Jul  2 2004 12:18:12:716PM	NUEVA CLAVE DE ACCESO	S	Jul  5 2004  9:02:44:376AM	N	N
0000001065	T000000009	Saludos,

    Cuando vuelvan a entrar al programa la clave de acceso que tienen actualmente no les servirá, deberán preguntarme la nueva clave de acceso.

    Gracias por todo y disculpen las molestias.

Un saludo,
Cayetano Hernández.
Administrador de Sistemas	T000000018	C	Jul  2 2004 12:18:12:716PM	NUEVA CLAVE DE ACCESO	S	Jul  2 2004 12:22:22:610PM	N	S
0000001066	T000000008	Saludos,

    Cuando vuelvan a entrar al programa la clave de acceso que tienen actualmente no les servirá, deberán preguntarme la nueva clave de acceso.

    Gracias por todo y disculpen las molestias.

Un saludo,
Cayetano Hernández.
Administrador de Sistemas	T000000018	C	Jul  2 2004 12:18:12:716PM	NUEVA CLAVE DE ACCESO	S	Jul  2 2004 12:49:28:110PM	N	N
0000001069	T000000018	Este mensaje es para Cayetano, no tengo idea de como se maneja asi que es una prueba para confirmar que lo he remitido correctamente a su único destinatario que es Cayetano.
Saludos
Marta
	T000000007	C	Jul  9 2004  8:49:41:763AM	ACUSE DE RECIBO	S	Jul  9 2004 12:02:23:360PM	N	S
0000001070	0000000001	Me pregunto, Paco, si puedo hacer una remesa con un único recibo (el recibo del colegiado cuya factura que me quedo sin domiciliar por fallida). Como ya tiene corregidos los dígitos de la Cuenta Corriente, en caso afirmativo haría 5 ficheros, uno por cada isla mas el del colegiado 1496. ¿Cómo lo ves?	T000000004	C	Jul 13 2004 10:28:10:016AM	REMESA INDIVIDUAL	S	Jul 13 2004 11:43:41:156AM	N	N
0000001071	T000000004	Hola Elvira,
Sí puedes... lo más rápido es ir al módulo de cobros y seleccionar la factura CUOTA-04002467, te aparecerá en la lista ese recibo-factura, que está impagado al no haberse remesado.

A continuación pulsas el botón do,iciliar y te sale la ventana de domiciliación de siempre, rellenas los datos y sigues los pasos como siempre hasta obtener el fichero. Después de esto debería quedar pagada la factura y con el banco al que la has remesado puesto.


Lo de las poblaciones luego te lo contesto
Saludos
Paco	0000000001	C	Jul 13 2004 11:48:53:266AM	RE REMESA INDIVIDUAL	S	Jul 13 2004 11:47:25:936AM	N	N
0000001072	0000000001	Paco, tengo dos facturas duplicadas. Las generé como Tenerife y también como la Palma. Números de factura que quisiera destruir CUOTA-04003644 y CUOTA-04003645. No sé si es posible. Cuéntame algo.

Elvira	T000000004	C	Jul 13 2004 11:57:25:046AM	OTRO	S	Jul 13 2004 12:22:50:313PM	N	N
0000001073	T000000004	Elvira:
No se pueden eliminar facturas, se saltarían números...

Lo que puedes hacer es ponerlas a 0 y borrar el cobro.

saludos
Paco	0000000001	C	Jul 13 2004 12:23:48:530PM	OTRO	S	Jul 13 2004 12:24:09:420PM	N	N
0000001074	0000000001	Oye, Paco, veo que las facturas de cuotas colegiales emitidas para ser liquidadas en la ventanilla de Caja (metálico) figuran como pagadas. Entiendo que para evitar confusiones a contabilidad, debo modificarlas para que figuren como impagadas, ¿o me estoy quietita?
Un saludo,
Elvira	T000000004	C	Jul 13 2004  1:27:05:686PM	FACTURAS	S	Jul 13 2004  2:11:41:216PM	N	N
ORDEN_001 	T000000018	Por orden de Juan Carlos, se le da acceso de lectura a Gloria al Resumen económico, despues de que (según Juan Carlos) ha hablado con Cristina y le ha dado el visto bueno. No se ha tramitado escrito ninguno	T000000018	C	Jul 13 2004  1:27:05:686PM	Cambios de privilegios para Gloria Zamora	S	Jul 13 2004  1:27:05:686PM	N	N
ORDEN_002 	T000000018	Por orden de Juan Carlos, se crea el usuario volante para poder atender desde el mostrador en el período de vacaciones de Luis Borges. El problema es que ese usuario puede ser cualquiera y no se detectará quien lo uso	T000000018	C	Jul 13 2004  1:27:05:686PM	Creación de usuario nuevo	S	Jul 13 2004  1:27:05:686PM	N	N
0000001077	T000000011	Paquita, he enviado el fichero de MUSAAT. A ver que nos dicen. ;)	T000000018	C	Jul 14 2004 10:44:36:466AM	FICHERO ENVIADO	S	Jul 14 2004  3:13:19:076PM	N	N
0000001078	0000000001	¡Hola, Paco!    ¿Podemos incluir el siguiente código postal en los ya existentes?:  38108 - SAN MATÍAS.
Thank you.
Elvira	T000000004	C	Jul 19 2004 10:13:19:670AM	CÓDIGO POSTAL	S	Jul 30 2004  7:04:31:186PM	N	N
0000001080	T000000001	Otro código postal:   
35071 -LAS PALMAS DE GRAN CANARIA (PROVINCIA DE LAS PALMAS DE GRAN CANARIA).
Gracias.	T000000004	C	Jul 19 2004 11:54:51:546AM	CP	S	Jul 19 2004 12:18:12:843PM	N	N
0000001081	0000000001	Otro código postal:   
35071 -LAS PALMAS DE GRAN CANARIA (PROVINCIA DE LAS PALMAS DE GRAN CANARIA).
Gracias.	T000000004	C	Jul 19 2004 11:54:51:546AM	CP	S	Jul 30 2004  7:05:00:266PM	N	N
0000001082	T000000009	Benito me acaba de llamar a las 9:12 y que si podíamos darle un poquito de prisa a los faxes de arquitectos.

Gracias 	T000000018	C	Jul 20 2004  9:13:23:610AM	CARTAS ARQUITECTOS	S	Jul 20 2004  9:34:02:376AM	N	S
0000001083	T000000018	PODER CONSULTAR POR P.E.M	T000000009	C	Jul 20 2004 10:23:01:453AM	CONSULTA POR P.E.M	S	Jul 20 2004 10:43:43:216AM	S	N
0000001084	T000000018	TOLOS CODIGOS 028 QUE PERTENECEN AL PUERTO DE LA CRUZ ESTAN COMO PUENTE DE LA CRUZ	T000000009	C	Jul 20 2004 10:32:41:076AM	CODIGOS POSTALES	S	Jul 20 2004 10:43:52:670AM	S	N
0000001085	T000000009	Ya está solucionado la descripción del codigo postal 028 como Puerto de La Cruz.

Saludos	T000000018	C	Jul 20 2004 10:46:32:296AM	CODIGOS POSTALES	S	Jul 20 2004 10:58:13:530AM	N	S
0000001088	0000000001	Necesito que incorporéis el código postal siguiente:   38108 - EL DRAGUILLO (PROVINCIA DE SANTA CRUZ DE TENERIFE). Gracias.	T000000004	C	Jul 20 2004 11:24:11:436AM	CÓDIGO POSTAL	S	Jul 30 2004  7:05:21:046PM	N	N
0000001089	T000000010	Saludos,

    Cuando un colegiado actúe como funcionario en una obra hay que marcar la casilla de Fº para que los movimientos de MUSAAT salgan correctamente, ya que si no el programa no emite el correspondiente movimiento de MUSAAT con el consiguiente trastorno.


Saludos,
Cayetano Hernández.	T000000018	C	Jul 22 2004  9:41:50:436AM	SELECCIÓN DE FUNCIONARIO	S	Jul 22 2004  9:38:39:453AM	N	N
0000001090	T000000009	Saludos,

    Cuando un colegiado actúe como funcionario en una obra hay que marcar la casilla de Fº para que los movimientos de MUSAAT salgan correctamente, ya que si no el programa no emite el correspondiente movimiento de MUSAAT con el consiguiente trastorno.


Saludos,
Cayetano Hernández.	T000000018	C	Jul 22 2004  9:41:50:436AM	SELECCIÓN DE FUNCIONARIO	S	Jul 22 2004  9:41:36:170AM	N	S
0000001091	T000000018	VISTO MENSAJE GRACIAS POR LA INFORMACION 	T000000010	C	Jul 22 2004  9:39:56:406AM	DAR GRACIAS	S	Jul 22 2004  9:47:50:093AM	N	N
0000001092	0000000001	el código de VALSEQUILLO (EN LA ISLA DE GRAN CANARIA) ES 35217.
LO NECESITO PARA QUE RECIBA LA CORRESPONDENCIA EL COLEGIADO 162.
GRACIAS.	T000000004	C	Jul 27 2004  8:53:10:063AM	CORRECCIÓN	S	Jul 30 2004  7:05:45:326PM	N	N
0000001093	0000001003	Saludos,

    El portatil para sacar las cartas de arquitectos está en mi despacho, no tiene clave de acceso y el icono es el de siempre.

    En caso de que tengas dudas llamame al 687.933.546 

Cayetano Hernández.
	T000000018	C	Jul 27 2004  6:09:34:030PM	CARTAS DE ARQUITECTOS	N		S	N
0000001094	T000000009	Saludos,

    El portatil para sacar las cartas de arquitectos está en mi despacho, no tiene clave de acceso y el icono es el de siempre.

    En caso de que tengas dudas llamame al 687.933.546 

Cayetano Hernández.
	T000000018	C	Jul 27 2004  6:09:34:030PM	CARTAS DE ARQUITECTOS	S	Jul 28 2004  8:00:10:250AM	N	S
0000001095	T000000003	REF. 2004-04118= 63671	T000000009	C	Jul 28 2004  9:46:17:733AM	Nº VDO. COAC	S	Jul 28 2004  9:52:51:186AM	S	N
0000001096	T000000003	REG. 2004-03271 = 64004 Y ESTA EN VDO. SOLO BORRAR DE LISTA	T000000009	C	Jul 29 2004  8:24:37:093AM	Nº VDO. COAC	S	Jul 29 2004  8:38:02:110AM	S	N
0000001097	T000000003	REF. 2004-04630 ES DE INGENIERO NO DE ARQUITECTO	T000000009	C	Jul 29 2004  8:27:41:233AM	VDO.COAC	S	Jul 29 2004  8:36:33:296AM	S	N
0000001098	0000000001	Necesito añadir el siguiente código postal:   38509 - ARAFO (Provincia de Santa Cruz de Tenerife)	T000000004	C	Jul 29 2004 12:20:01:376PM	CÓDIGOS A AÑADIR	S	Jul 30 2004  7:06:08:733PM	N	N
0000001099	T000000004	Hola Elvira,

Ya tienes todos esos códigos postales en la base de datos de poblaciones...

saludos.Paco	0000000001	C	Jul 30 2004  7:15:55:733PM	CÓDIGOS A AÑADIR	S	Aug  2 2004  9:53:14:483AM	N	N
0000001100	T000000018	CAYE IMPRIME APARTE DE LAS DEL DIA 3/8/04 LA REF. 2004-04842, GRACIAS	T000000009	C	Aug  4 2004  8:20:48:826AM	CARTAS SEGURIDAD COAC	S	Aug  4 2004  9:46:08:343AM	S	N
0000001102	0000000001	Att.  Ricardo.
¡Hola!. Tienes la línea telefónica echando humo así que, te voy a hacer una pregunta por este medio.  En las notificaciones que salen dirigidas a Ayuntamiento y Consejería de la Vivienda (en la sección de contratos), figura el colegiado encargado de esa dirección de obra y a continuación se indica el  domicilio del mismo.  Necesito saber cuál de sus domicilios es el que se indica, si es el personal, profesional, postal ó fiscal, a los efectos de modificar la ficha de uno de mis colegiados.  
Muy agradecida.
Elvira.	T000000004	C	Aug 12 2004 11:54:53:170AM	COLEGIADO 1923	S	Aug 12 2004 12:19:05:216PM	N	N
0000001103	T000000004	El domicilio de las correspondencias es el domicilio activo	0000000001	C	Aug 12 2004 12:19:31:656PM	COLEGIADO 1923	S	Aug 12 2004 12:19:59:266PM	N	N
0000001104	0000000001	¡Hola, muchachos!. Necesito un nuevo código postal:
38180 - SANTA CRUZ DE TENERIFE (Prov. IDEM)
Thank you.
Elvira
	T000000004	C	Aug 12 2004  1:04:47:716PM	CP	S	Sep 29 2004  6:28:57:046PM	N	N
0000001105	0000000001	Soy una insistente petardaaaaaaaaaaaaaa. Necesito el siguiente código postal:

38108 - LA LAGUNA (Prov. Santa Cruz de Tenerife).
Gracias.	T000000004	C	Aug 12 2004  1:16:55:140PM	C.2606	S	Sep 29 2004  6:29:24:063PM	N	N
0000001106	0000000001	no encuentro código postal para la localidad de LA GALLEGA que sea 38109.  Lo necesito para el colegiado 1899. Gracias.	T000000004	C	Aug 17 2004 10:01:16:890AM	CP	S	Sep 29 2004  6:29:39:483PM	N	N
0000001108	0000000001	¡Hello! Necesito para actualizar el domicilio del colegiado 1700 disponer del siguiente código postal:
     38109 - EL ROSARIO (Prov. de Santa Cruz de Tenerife).
Gracias...................
Elvira
	T000000004	C	Aug 17 2004  1:32:12:813PM	CP	S	Sep 29 2004  6:30:02:563PM	N	N
0000001110	0000000001	Necesito un nuevo código postal para la colegiada 806:  38355 - AGUAGARCÍA-TACORONTE (Prov. S/C de Tenerife). Gracias.
Elvira.	T000000004	C	Aug 18 2004 11:04:13:343AM	CODIGOS	S	Sep 29 2004  6:30:26:076PM	N	N
0000001111	T000000018	yo he entrado con la version del servidor con el usuario de Juan Carlos y si que me sale el borrar

Mira a ver si tiene la version de contabilidad que está en el servidor

Saludos
Ricardo	0000000001	C	Aug 19 2004 10:19:46:170AM	SOBRE CONTABILIDAD	S	Aug 19 2004 12:14:52:500PM	N	N
0000001112	0000001009	El Habilitado ya tiene número (99806). Amén, Jesús.
Elvira	T000000004	C	Aug 20 2004 12:29:05:780PM	NIEVES	S	Oct 18 2004  8:51:07:976AM	N	N
0000001113	0000000001	PACO CUANDO LO PUEDAS ARREGLAR MANDEME UN MENSAJE PORQUE CAYETANO SE FUE AL MEDICO Y PARA NO ESTAR ESPERANDO HASTA QUE LLEGUE EL GRACIAS, SALUDOS	T000000009	C	Sep 29 2004 11:15:18:953AM	EXP. 2004-06575	S	Sep 29 2004  6:19:58:703PM	S	N
0000001114	T000000009	Hola Patricia..

Ya lo tienes listo

Saludos	0000000001	C	Sep 29 2004  6:28:53:406PM	EXP. 2004-06575	S	Sep 30 2004  8:35:50:530AM	N	S
0000001116	T000000004	Hola Elvira...

Tienes los CPs ya creados...

El último de Aguagarcía - Tacoronte está como Aguagarcía símplemente... si quieres le completamos la descripción si el nombre de la población es como dices...

Saludos	0000000001	C	Sep 30 2004 11:35:48:063AM	CODIGOS	S	Oct  1 2004  9:40:11:063AM	N	N
0000001117	0000000001	Queridos compañeros:  Hacía tiempo que no os molestaba. Un saludo. Necesito que dejéis creado el municipio "BREÑA BAJA", al que corresponde el código postal 38711. Provincia de Santa Cruz de Tenerife (en la isla de La Palma).  Muchas gracias.
Elvira	T000000004	C	Oct 11 2004 12:20:45:360PM	CÓDIGO NUEVO	S	Oct 25 2004 12:51:15:766PM	N	N
0000001118	T000000009		T000000018	C	Oct 18 2004 12:04:37:626PM	YA ESTÁ DADO DE ALTA.	S	Oct 18 2004 12:13:20:170PM	N	S
0000001119	0000000001	Necesito incluir el siguiente código postal en la base de datos:

36957 - MOAÑA (Provincia de Pontevedra).
Gracias.
	T000000004	C	Oct 18 2004  2:08:04:250PM	CÓDIGO	S	Oct 25 2004 12:51:11:610PM	S	N
0000001120	0000001010	NECESITO INCLUIR UNO NUEVO EN LA BASE DE DATOS:  
36957 - MOAÑA (PROVINCIA DE PONTEDRA)	T000000004	C	Oct 18 2004  2:09:26:860PM	CÓDIGO	S	Aug 19 2005  9:56:55:616AM	N	S
0000001121	0000000001	NECESITO INCLUIR UNO NUEVO EN LA BASE DE DATOS:  
36957 - MOAÑA (PROVINCIA DE PONTEDRA)	T000000004	C	Oct 18 2004  2:09:26:860PM	CÓDIGO	S	Oct 25 2004 12:51:05:156PM	N	N
0000001122	0000000001	AÑAZA FIGURA CON EL CÓDIGO POSTAL 38109. ES CORRECTO. HAY UN SECTOR DE AÑAZA QUE TIENE EL CÓDIGO POSTAL 38111. NECESITO QUE LO INCLUYÁIS. GRACIAS.
ELVIRA	T000000004	C	Oct 21 2004  8:16:08:343AM	MÁS CÓDIGOS	N		N	S
0000001123	T000000009	Ya está corregida la fecha de salida 2004-06805	T000000018	C	Oct 25 2004  9:51:12:546AM	CORREGIDA LA FECHA DE SALIDA.	S	Oct 25 2004 10:37:14:390AM	N	S
0000001124	0000000001	NECESITO INCLUIR UNO NUEVO EN LA BASE DE DATOS:  
36957 - MOAÑA (PROVINCIA DE PONTEDRA)	T000000004	C	Nov 12 2004  9:50:02:326AM	CODIGOS	S	Dec  9 2004 11:09:15:813AM	N	N
0000001125	0000000001	NECESITO INCLUIR UNO NUEVO EN LA BASE DE DATOS:  
36957 - MOAÑA (PROVINCIA DE PONTEDRA)	T000000004	C	Nov 12 2004  9:51:04:406AM	CODIGOS	S	Apr 14 2005  2:41:12:473PM	N	N
0000001126	0000000001	Estimados compañeros: Tengo un colegiado que se ha empeñado en cambiar su domicilio a un sector del municipio de ARONA que tiene un código postal que no se encuentra registrado. Véase 38652 - ARONA .  ¿Podéis darle de alta?. Agradecida y emocionada......................
Elvira.	T000000004	C	Nov 12 2004  9:52:35:626AM	CODIGO	S	Apr 14 2005  2:41:16:230PM	N	N
0000001127	0000000001	NECESITO QUE CREÉIS EL CÓDIGO POSTAL 38111 PARA UN NUEVO DISTRITO DE SANTA CRUZ DE TENERIFE,  CIUDAD DE SANTA CRUZ DE TENERIFE.
GRACIAS.
	T000000004	C	Nov 29 2004  2:48:39:500PM	CODIGOS POSTALES	S	Apr 14 2005  2:41:34:166PM	N	N
0000001128	0000000001	38073 - LA LAGUNA (PROVINCIA DE SANTA CRUZ DE TENERIFE)
GRACIAS POR EL NUEVO CÓDIGO POSTAL.
	T000000004	C	Dec  2 2004  6:15:04:826PM	CODIGO POSTAL	S	Apr 14 2005  2:41:42:836PM	N	N
0000001129	0000000001	NECESITO LA CREACIÓN DEL CÓDIGO POSTAL 38111. POBLACIÓN SANTA CRUZ DE TENERIFE. GRACIAS.	T000000004	C	Dec  9 2004  4:34:34:703PM	CODIGOS NUEVOS	S	Apr 14 2005  2:41:49:236PM	N	N
0000001134	0000000001	NECESITO LA CREACIÓN DE "AGUILAS DEL TEIDE" COMO POBLACIÓN A LA QUE CORRESPONDE EL CÓDIGO POSTAL 38652.  GRACIAS	T000000004	C	Dec 16 2004 12:20:26:780PM	COGIGO A CREAR	S	Apr 14 2005  2:41:55:556PM	N	N
0000001135	T000000009	Hola Patri

He estado mirando esto que me has comentado. En principio supongo que lo que voy a decirte no te corresponde a ti, pero bueno, como eres tu la que me lo has comentado, dirijo este mensaje a ti.
La explicacion de por qué ese colegiado no dice que presta servicio para el cabildo, como tu me comentabas, es simplemente que en esa situacion empezó y terminó el mismo dia, es decir, que tal como pone la incompatibilidad, solo afecta al dia 04/02/1998, que es cuando ese colegiado prestó servicio al Cabildo.

Supongo que este tema lo tendrá que mirar Elvira, que creo recordar que era la responsable de los colegiados, o bien se lo comentas a Cayetano. 

Un saludo,
Ricardo	0000000001	C	Dec 20 2004 12:27:19:466PM	SOBRE LAS CARTAS DEL AYUNTAMIENTO PARA EL COELGIADO 00326	S	Dec 20 2004 12:20:26:640PM	N	S
0000001138	T000000004	Hola Patri

He estado mirando esto que me has comentado. En principio supongo que lo que voy a decirte no te corresponde a ti, pero bueno, como eres tu la que me lo has comentado, dirijo este mensaje a ti.
La explicacion de por qué ese colegiado no dice que presta servicio para el cabildo, como tu me comentabas, es simplemente que en esa situacion empezó y terminó el mismo dia, es decir, que tal como pone la incompatibilidad, solo afecta al dia 04/02/1998, que es cuando ese colegiado prestó servicio al Cabildo.

Supongo que este tema lo tendrá que mirar Elvira, que creo recordar que era la responsable de los colegiados, o bien se lo comentas a Cayetano. 

Un saludo,
Ricardo	T000000009	C	Dec 20 2004 12:22:50:203PM	SOBRE LAS CARTAS DEL AYUNTAMIENTO PARA EL COELGIADO 00326	S	Dec 20 2004 12:34:30:733PM	S	N
0000001139	W01787	PARA COMENTAR UNA FACTURA DE GERMAN TLF. 922-24,30,31	T000000009	C	Jan 24 2005 10:23:30:390AM	FACTURA	N		S	N
0000001140	W01294	PARA COMENTAR UNA FACTURA DE GERMAN TLF. 922-24,30,31	T000000009	C	Jan 24 2005 10:23:30:390AM	FACTURA	N		S	N
0000001142	T000000016	TEC . ABELARDO ROBLES TLF: 922-12,25,12    O   647,71,72,35	T000000009	C	Jan 24 2005 10:26:01:030AM	JORNADA TEC.	N		S	N
0000001143	T000000017	TEC . ABELARDO ROBLES TLF: 922-12,25,12    O   647,71,72,35	T000000009	C	Jan 24 2005 10:26:01:030AM	JORNADA TEC.	S	Aug  3 2005 10:06:04:626AM	S	N
0000001145	T000000003	REG. 2004-09038 = 65658
REG. 2005-00294 = 65683 	T000000009	C	Jan 26 2005  9:25:51:390AM	VDOS COACA	S	Jan 26 2005  9:49:34:093AM	S	N
0000001147	T000000003	EXP. 2005-00542 Nº VDO. 65894	T000000009	C	Feb  1 2005 12:23:49:436PM	CODO. COAC	S	Feb  1 2005 12:38:59:376PM	S	N
0000001137	0000000001	Hola Patri

He estado mirando esto que me has comentado. En principio supongo que lo que voy a decirte no te corresponde a ti, pero bueno, como eres tu la que me lo has comentado, dirijo este mensaje a ti.
La explicacion de por qué ese colegiado no dice que presta servicio para el cabildo, como tu me comentabas, es simplemente que en esa situacion empezó y terminó el mismo dia, es decir, que tal como pone la incompatibilidad, solo afecta al dia 04/02/1998, que es cuando ese colegiado prestó servicio al Cabildo.

Supongo que este tema lo tendrá que mirar Elvira, que creo recordar que era la responsable de los colegiados, o bien se lo comentas a Cayetano. 

Un saludo,
Ricardo	T000000009	C	Dec 20 2004 12:22:50:203PM	SOBRE LAS CARTAS DEL AYUNTAMIENTO PARA EL COELGIADO 00326	S	Feb  3 2005  9:46:11:640AM	S	N
0000001149	T000000003	EL Nº DE VDO. DEL COAC ES EL 65994, PERO NO HA LLEGDO, YO YA LO PUSE EN ORDENADOR A FALTA DE QUE LLEGUE	T000000009	C	Feb 10 2005 12:53:25:343PM	REG. 2005-00852	S	Feb 10 2005  1:03:56:076PM	S	N
0000001150	T000000009		0000000001	C	Feb 14 2005 12:19:14:703PM	CONTRATO 2005-00809 CORREGIDO	S	Feb 14 2005 12:30:26:250PM	N	S
0000001151	T000000003	2005-00890=69111	T000000009	C	Feb 18 2005 12:18:56:750PM	VDO. COAC	S	Feb 18 2005  1:31:58:483PM	S	N
0000001152	T000000003	REF. 2005-01089 = 66171	T000000009	C	Feb 28 2005  2:20:32:920PM	Nº COAC	S	Feb 28 2005  2:38:42:250PM	S	N
0000001153	T000000003	REF. 2005-01089 = 66171
	T000000009	C	Feb 28 2005  2:24:09:593PM	Nº COAC	S	Feb 28 2005  2:37:57:953PM	S	N
0000001154	T000000018	Hola,
Tal como ayer me indicaste, he estado comprobando en el historico aparece que algunos de los avisos que se modificó el movimiento de musaat (es lo que aparece en el historico como MUSAAT... así que si dicho movimiento ahora no existe es que ha debido borrarse.

No puedo decir nada más, puesto q las pruebas realizadas, siempre se genera el movimiento de musaat correspondiente.

un saludo
Ricardo	0000000001	C	Mar  1 2005  8:31:14:750AM	BUENOS DIAS. SOBRE LOS MOVIMIENTOS DE MUSAAT	S	Mar  1 2005  8:52:02:170PM	N	N
0000001155	T000000009	LAEKRGJETLKHTEÑLK	0000001011	C	Mar  1 2005 10:17:23:886AM	QEWLRKGHERÑKLG	S	Mar  1 2005 10:18:36:280AM	N	S
0000001156	0000001011	HOLA REINA MORA	T000000009	C	Mar  1 2005 10:13:46:063AM	SALUDO	S	Mar  1 2005 10:53:53:156AM	S	N
0000001159	T000000003	REF. 2005-01272 = 65967
REF. 2005-00144= 66061	T000000009	C	Mar  3 2005 12:37:35:826PM	VDOS. COAC	S	Mar  3 2005  1:11:24:860PM	S	N
0000001161	T000000003	REF. 2005-01556= 66050 YA ESTA PARA VDO.	T000000009	C	Mar  3 2005  1:54:31:016PM	VDO. COAC	S	Mar  3 2005  5:03:33:860PM	S	N
0000001162	0000001011	Ya lo tienes corregido	0000000001	C	Mar  8 2005 12:35:52:860PM	CONTRATO 2005-01766	S	Mar  8 2005  1:05:09:450PM	N	N
0000001166	T000000003	YA ESTA EL CDO. COAC Y PASADO A VDO. BORRAR DE LA LISTA Nº VDO. COAC: 66121	T000000009	C	Mar 18 2005 12:23:58:313PM	EXP. 2005-02032	S	Mar 18 2005  1:12:32:280PM	S	N
0000001167	T000000003	REF. 2005-01990 = 65696	T000000009	C	Mar 23 2005 11:19:03:466AM	VDO. COAC	S	Mar 23 2005 12:22:17:936PM	S	N
0000001168	T000000003	REF. 2005-01563 = 65853	T000000009	C	Mar 29 2005 11:11:13:390AM	CDO. COAC	S	Mar 29 2005 12:19:13:983PM	S	N
0000001169	T000000009	Me faltaba un cambio a realizar. Espero que no te vuelva a pasar lo de la sociedad.
Ya me comentas. Creo que el contrato ya está bien	0000000001	C	Apr 15 2005 11:24:42:786AM	CONTRATO 2005-02969	S	Apr 15 2005 11:28:30:453AM	N	S
0000001174	T000000003	REF. 2005-02334 = 66284	T000000009	C	Apr 19 2005 11:13:27:436AM	VDO. COAC	S	Apr 20 2005  8:48:20:343AM	S	N
0000001175	T000000003	REF. 2005-02626 = 66619
REF. 2005-02629 = 66621
REF. 2005-00050 = 66748
REF. 2005-00052 = 66747	T000000009	C	Apr 28 2005  8:54:01:796AM	CDO. COAC	S	Apr 28 2005  9:20:14:906AM	S	N
0000001176	T000000003	65744 = 2005-00578	T000000009	C	May  4 2005 10:34:25:516AM	CDO. COAC	S	May  4 2005 11:18:01:733AM	S	N
0000001177	T000000003	REF. 2005-02908 = 66919	T000000009	C	May  6 2005  2:32:31:110PM	VDO. COAC	S	May  9 2005  8:36:35:466AM	S	N
0000001179	T000000003	2005-01676=65954	T000000009	C	May 16 2005  1:22:30:576PM	VDO. COAC	S	May 16 2005  4:59:56:313PM	S	N
0000001180	T000000003	2005-03846= 66943	T000000009	C	May 17 2005 12:11:01:626PM	CODO. COAC	S	May 17 2005  1:22:19:843PM	S	N
0000001184	T000000003	2005-03923 = 66519	T000000009	C	May 26 2005  8:01:52:466AM	COD. COAC	S	May 26 2005  9:26:30:170AM	S	N
0000001186	T000000003	2005-01155 = 66279	T000000009	C	Jun  6 2005  2:28:03:030PM	CDO. COAC	S	Jun  7 2005  8:52:11:186AM	S	N
0000001187	T000000003	2005-04220 = 66650	T000000009	C	Jun 10 2005  7:47:17:983AM	CDO. COAC	S	Jun 10 2005  8:47:19:453AM	S	N
0000001188	T000000003	2005-04614  = 62972
2005-04615 = 62214
2005-04612 = 62213	T000000009	C	Jun 10 2005 10:52:54:046AM	CDO. COAC	S	Jun 13 2005  9:42:06:750AM	S	N
0000001189	T000000003	2005-04887 = 67081 YA ESTA PARA VDO. BORRALO DE LA LISTA	T000000009	C	Jun 14 2005  1:18:23:890PM	CDO. COAC	S	Jun 15 2005  8:23:03:703AM	S	N
0000001191	T000000003	VDO. 2005-04758 = 67437	T000000009	C	Jun 20 2005  1:21:19:966PM	CDO. COAC	S	Jun 20 2005  1:49:33:686PM	S	N
0000001192	T000000003	2005-04184= 67394
2005-04894= 67281	T000000009	C	Jun 21 2005 12:47:23:016PM	CDO. COAC	S	Jun 21 2005  1:04:12:906PM	S	N
0000001193	T000000003	2005-04795 = 67297	T000000009	C	Jun 27 2005 12:37:29:826PM	CDO. COAC	S	Jun 27 2005 12:49:10:390PM	S	N
0000001194	T000000003	2005-05182 = 67508	T000000009	C	Jun 30 2005 12:22:17:453PM	CDO. COAC	S	Jul  6 2005 11:55:00:876AM	S	N
0000001195	T000000003	2005-05299 =67510	T000000009	C	Jul  1 2005  1:10:21:966PM	CDO. COAC	S	Jul  6 2005 11:54:32:906AM	S	N
0000001196	T000000003	2005-05057 = 67438 YA ESTA PARA VDO. SOLO BORRAR DE LA LISTA	T000000009	C	Jul  5 2005 10:10:08:686AM	CDO. COAC	S	Jul  6 2005 11:54:19:000AM	S	N
0000001197	T000000003	2005-05299 = 67510 YA ESTA PARA VDO. SOLO BORRAR DE LISTA	T000000009	C	Jul  5 2005 12:51:22:966PM	CDO. COAC	S	Jul  6 2005 11:54:01:530AM	S	N
0000001199	T000000003	2005-05557 = 67557	T000000009	C	Jul  6 2005 11:16:10:656AM	CDO. COAC	S	Jul  6 2005 11:44:06:126AM	S	N
0000001200	T000000003	2005-05437 = 67357	T000000009	C	Jul  8 2005  1:43:57:063PM	CDO. COAC	S	Jul 11 2005  8:30:04:843AM	S	N
0000001201	T000000003	2005-05568= 67327
2005-05515= 67442	T000000009	C	Jul 11 2005  9:59:05:576AM	CDO. COAC	S	Jul 11 2005 10:35:41:140AM	S	N
0000001202	T000000003	2005-05642 = 67607 OJO EL TEC. ESTA MAL 
2005-05885 = 67657	T000000009	C	Jul 12 2005 12:27:17:030PM	CDO. COAC	S	Jul 12 2005  1:08:11:266PM	S	N
0000001203	T000000003	2005-05962 = 67706	T000000009	C	Jul 15 2005 10:34:57:390AM	CDO. COAC	S	Jul 15 2005 11:04:41:516AM	S	N
0000001204	T000000003	2005-05891= 67757	T000000009	C	Jul 19 2005  8:18:37:626AM	CDO. COAC	S	Jul 19 2005  9:05:08:516AM	S	N
0000001205	T000000008	Ya tienes acceso a los resúmenes económicos. En caso contrario comunicamelo	T000000018	C	Jul 20 2005 11:15:31:076AM	PRIVILEGIOS	S	Jul 20 2005 12:06:25:203PM	N	N
0000001206	T000000003	2005-05990 = 67666
2005-05992 = 67724
2005-06148 = 67707
2005-06165 = 67393	T000000009	C	Jul 25 2005 12:28:43:186PM	CDO. COAC	S	Jul 25 2005 12:41:02:376PM	S	N
0000001208	T000000003	2005-06634 = 68043	T000000009	C	Aug  9 2005 12:01:51:920PM	CDO. COAC	S	Aug  9 2005  1:37:18:546PM	S	N
0000001209	T000000003	2005-06976 = 67853 YA ESTA PARA VISAR SOLO BORRAR DE LISTA	T000000009	C	Aug 10 2005 11:07:31:156AM	CODO. COAC	S	Aug 10 2005  1:17:07:953PM	S	N
0000001210	T000000009	Patri, ya lo tienes arreglado...

Un saludo, y disculpas por la tardanza
Ricardo


	0000000001	C	Aug 10 2005 11:27:44:350AM	SOBRE EL CONTRATO 2005-06977	S	Aug 10 2005 11:29:02:186AM	N	S
0000001211	T000000018	YA PUEDO METER LA CONTRATA	T000000009	C	Aug 11 2005 10:35:28:733AM	REF. 2005-07035	S	Aug 11 2005 10:43:35:076AM	S	N
0000001212	T000000018	NO PUEDO TODAVIA PONER A LA CONSTRATA TU ME DICES CUANDO PUEDA ?	T000000009	C	Aug 11 2005 10:37:01:216AM	REF. 2005-07035	S	Aug 11 2005 10:43:48:796AM	S	N
0000001213	T000000003	2005-06891 = 68078
2005-06808 = 68100	T000000009	C	Aug 11 2005  1:08:22:076PM	CDO. COAC	S	Aug 11 2005  1:25:19:093PM	S	N
0000001214	T000000003	2005-06044 = 67606	T000000009	C	Aug 12 2005 11:32:01:186AM	CDO. COAC	S	Aug 12 2005 12:44:58:030PM	S	N
0000001215	T000000003	2005-06661 = 68006 YA ESTA PARA VDO. SOLO BORRAR DE LISTA	T000000009	C	Aug 12 2005  1:31:01:796PM	CDO. COAC	S	Aug 16 2005  8:35:24:343AM	S	N
0000001216	T000000018	AÑADI UN NUEVO TIPO DE REGISTRO ANEXO = AX	T000000009	C	Aug 17 2005  7:53:45:436AM	TIPO DE REGISTRO	S	Aug 17 2005 12:51:25:516PM	S	N
0000001217	T000000018	SB = SUBIDA	T000000009	C	Aug 19 2005 10:28:03:766AM	TIPO VIA NUEVO	S	Aug 19 2005 10:48:41:860AM	S	N
0000001218	T000000003	2005-05316=67489	T000000009	C	Aug 23 2005 11:56:50:796AM	CDO. COAC	S	Aug 23 2005  1:03:09:250PM	S	N
0000001219	T000000003	2005-07422= 68139 NO HA LLEGDO YA ESTA COMPRADO HASTA LAS CARTAS DEL DIA 31/08/05	T000000009	C	Aug 31 2005 11:49:38:516AM	CDO. COAC	S	Aug 31 2005 12:03:26:640PM	S	N
0000001220	T000000003	2005-07518 = 68268	T000000009	C	Sep  5 2005 10:54:58:250AM	CDO. COAC	S	Sep  5 2005 11:13:43:546AM	S	N
0000001221	T000000018	SE CREA UN NUEVO TIPO DE REGISTRO "MC" MINUTA A CUENTA	T000000009	C	Sep 12 2005  1:30:39:593PM	NUEVO TIPO DE REGISTRO	S	Sep 12 2005  1:39:36:063PM	S	N
0000001222	T000000003	2005-06868=68274	T000000009	C	Sep 22 2005 11:47:15:576AM	CDO. COAC	S	Sep 22 2005  1:19:39:670PM	S	N
0000001223	T000000003	2005-07980=68399	T000000009	C	Sep 26 2005 12:33:56:266PM	CDO. COAC	S	Sep 27 2005  8:53:55:716AM	S	N
0000001225	0000001011	hola, en vista de que no podemos comunicarnos por telefono, utilizo esta via a ver... Javier Lozano col. 01820, me dice que le han cobrado 156,80 euros el 15 de octubre. mirando las facturas vi que son dos cuotas de premaat y que la de septiembre estaba sin pagar, entonces debe ser que le enviaron las dos juntas, septiembre y octubre. ¿es asi, para yo decirselo? chao	0000001009	C	Oct 18 2005  2:41:32:686PM	CUOTA PREMAAT JAVIER LOZANO	S	Oct 18 2005  3:09:08:273PM	N	N
0000001227	0000001009		0000001011	C	Oct 18 2005  3:10:54:716PM	CUOTA PREMAAT JAVIER LOZANO	S	Oct 18 2005  2:49:53:766PM	S	N
0000001229	0000001011	recibi tu mensaje, pero en blanco	0000001009	C	Oct 18 2005  2:51:26:750PM	CUOTA PREMAAT JAVIER LOZANO	S	Oct 18 2005  3:18:40:906PM	N	N
0000001230	0000001009	por si te llega, claro que si tenía una pendiente se le duplica en la siguiente. que compruebe los cargos.
	0000001011	C	Oct 18 2005  3:19:52:096PM	CUOTA PREMAAT JAVIER LOZANO	S	Oct 19 2005  8:27:46:376AM	N	N
0000001231	0000001009	POR LA PRESENTE LES COMUNICO QUE A PARTIR DEL 01 DE NOVIEMBRE DE 2005, CUANDO SE LES PRESENTE UNA NUEVA COLEGIACION, SOLO SE LE COBRARA 20 € DE CUOTA DE INCORPORACION. 

EL RESTO DE CUOTAS, CONSEJO Y COLEGIO, QUEDARAN SUBVENCIONADAS DURANTE SEIS MESES.	0000001011	C	Nov  3 2005  1:35:02:376PM	1ª COLEGIACION	S	Nov  3 2005  1:22:23:420PM	N	N
0000001232	0000001006	POR LA PRESENTE TE COMUNICO QUE CON RESPECTO A LAS COLEGIACIONES,  A PARTIR DEL 01 DE NOVIEMBRE SOLAMENTE HAY QUE COBRAR 20 € COMO CUOTA DE INCORPORACION.

EL RESTO DE LAS CUOTAS, CONSEJO Y COLEGIO, QUEDARAN SUBVENCIONADAS DURANTE SEIS MESES.	0000001011	C	Nov  3 2005  1:37:39:993PM	1ª COLEGIACION	S	Nov  3 2005  1:26:24:813PM	N	S
0000001233	0000001008	POR EL PRESENTE TE COMUNICO, QUE A PARTIR DEL 01 DE NOVIEMBRE DE 2005, CON RESPECTO A LA COLEGIACION, SOLAMENTE SE COBRARA 20 € COMO CUOTA DE INCORPORACION.
EL RESTO DE LAS CUOTAS, CONSEJO Y COLEGIO,  QUEDARAN SUBVENCIONADAS DURANTE SEIS MESES,	0000001011	C	Nov  3 2005  1:40:20:773PM	1ª COLEGIACION	S	Nov  7 2005  9:01:41:063AM	N	S
0000001234	0000001011	quedamos enteradas. chao	0000001009	C	Nov  3 2005  1:24:51:063PM	1ª COLEGIACION	S	Nov  3 2005  2:07:18:770PM	N	N
0000001236	T000000003	EXP. 2005-09050 ES PROYECTO DE APAREJADOR BORRAR DE LISTA COD. COAC	T000000009	C	Nov  4 2005  9:19:50:716AM	CDO. COAC	S	Nov  4 2005  9:54:38:576AM	S	N
0000001237	0000001011	MI ESTIMADA, NUESTRO COLEGIADO 797, PAGO CUOTAS DE PREMAAT DE SEPTIEMBRE Y OCTUBRE, Y ADEMAS CUOTAS CONSEJO Y COLEGIO SEPTIEMBRE/OCTUBRE. YO YA MARQUÉ LAS CORRESPONDIENTES FACTURAS COMO PAGADAS. UN SALUDO	0000001009	C	Nov  4 2005 12:28:07:376PM	CUOTAS 797	S	Nov  4 2005 12:56:40:410PM	N	N
0000001238	T000000018	BA =  PROYECTO BASICO DE ARQUITECTO	T000000009	C	Nov  5 2005  8:41:50:186AM	NUEVO TIPO DE REGISTRO	S	Nov  7 2005 11:16:12:546AM	S	N
0000001239	T000000003	2005-09194= 68721	T000000009	C	Nov  7 2005 11:10:25:983AM	CDO. COAC	S	Nov  7 2005 12:13:15:920PM	S	N
0000001240	T000000003	VDO. 2005-09215=68937
VDO. 2005-09740=68989	T000000009	C	Nov 17 2005  1:10:53:390PM	CDO. COAC	S	Nov 17 2005  1:41:40:376PM	S	N
0000001243	0000001009	MARIA JESUS SEGUN PARECE EL 797 PAGO AYER PREMAAT Y CUOTAS, PERO LE APARECE A ANDRES EN LA CAJA DE TENERIFE. LLAMAME.	0000001011	C	Nov 17 2005  4:54:59:623PM	CUOTAS 797	S	Nov 18 2005  8:27:55:483AM	N	N
0000001244	T000000003	REF. 2005-09665=68827	T000000009	C	Nov 18 2005 12:01:13:280PM	CDO. COAC	S	Nov 18 2005 12:35:52:953PM	S	N
0000001245	T000000003	REF. 2005-10206= 68712
REF. 2005-09947=68919	T000000009	C	Nov 23 2005 10:49:22:436AM	CDO. COAC	S	Nov 23 2005  1:11:00:110PM	S	N
0000001247	0000001011	LA CUENTA DE LEZCANO YA ESTA CAMBIADA. DE TODAS FORMAS, TE ENVIO POR FAX LA DOMICILIACION PARA QUE LA TENGAS AHI. CHAO	0000001009	C	Dec 16 2005 10:34:32:250AM	CUENTA LEZCANO	S	Dec 16 2005 11:02:11:256AM	N	N
0000001249	0000001009	LLEGOME	0000001011	C	Dec 16 2005 11:08:19:716AM	CUENTA LEZCANO	S	Dec 16 2005 10:50:21:466AM	N	N
0000001251	0000001011	LA CUENTA DE JUAN CARLOS GARCIA MARTIN YA ESTA CAMBIADA. TE LA PASO POR FAX, DE TODAS FORMAS Y ENVIO EL ORIGINAL AL BANCO. NO BEBAS MUCHO MAÑANA. HASTA EL AÑO QUE VIENE	0000001009	C	Dec 30 2005  1:57:22:420PM	DOMICILIACION COLEGIADO 2553	S	Jan  2 2006  8:16:38:123AM	N	N
0000001252	0000001011	MI ESTIMADA, EL COLEGIADO Nº 01516, PAGO EL 30-12-2005 LAS CUOTAS ATRASADAS DE JULIO A DICIEMBRE DE 2005, Y TAMBIEN TIENE PAGADA EL MISMO DIA LAS CUOTAS ENERO/FEBRERO DE 2006.
CHAO	0000001009	C	Jan  2 2006 12:04:48:890PM	CUOTAS COLEGIADO JORGE MANSO FDEZ.	S	Jan  2 2006 12:45:10:980PM	N	N
0000001253	T000000003	2005-11081= 69398	T000000009	C	Jan  3 2006 12:43:50:576PM	COD. COAC	S	Jan  4 2006  9:16:03:360AM	S	N
0000001254	T000000003	2005-11071=69397
2005-11065=69396	T000000009	C	Jan  4 2006  1:34:15:703PM	CDO. COAC	S	Jan  5 2006  8:49:07:610AM	S	N
0000001255	T000000003	2005-11081=69398	T000000009	C	Jan  4 2006  1:35:27:016PM	CDO. COAC	S	Jan  5 2006  8:48:09:420AM	S	N
0000001258	0000001011	NUESTRO COMUN AMIGO PAGO LA MUTUA DE DICIEMBRE, YA LE PUSE PAGADA. PORFA, ENVIAME IMPRESOS DE  SOLICITUD DE INSCRIPCION DE MUTUALISTA DE PREMAAT. CHAITO	0000001009	C	Jan 10 2006 11:53:13:670AM	MUTUA 797	S	Jan 10 2006 12:52:38:043PM	N	N
0000001259	0000001009	PASA  UN FAX A PREMAAT A/A DE DEPARTAMENTO DE ADMINISTRACION PORQUE YO TAMPOCO TENGO.
 LOS PEDI POR FAX EN DICIEMBRE Y CON EL CAMBIO DE DOMICILIO ESTAN DISLOCADOS, LA SEMANA PASADA SE LO DIJE A LA TELEFONISTA Y ESTOY A LA ESPERA.	0000001011	C	Jan 10 2006 12:54:59:406PM	MUTUA 797	S	Jan 10 2006 12:36:08:966PM	N	N
0000001260	T000000003	2005-11361=69401	T000000009	C	Jan 10 2006  1:19:36:093PM	CDO. COAC	S	Jan 10 2006  5:55:50:326PM	S	N
0000001261	W88872	MI AMIGA, LA CUENTA DE JOSE CARLOS YA ESTA ARREGLADA. COMPRUEBALO PORFA.	0000001009	C	Jan 10 2006  1:27:16:483PM	CUENTA COLEGIADO 1449	N		S	N
0000001262	0000001011	MI AMIGA, LA CUENTA DE JOSE CARLOS YA ESTA ARREGLADA. COMPRUEBALO PORFA.	0000001009	C	Jan 10 2006  1:27:16:483PM	CUENTA COLEGIADO 1449	S	Jan 10 2006  1:55:31:080PM	N	N
0000001264	0000001009	ALELUYA   AALELUYAA                 AALELUUYAAAAAAAAAAAAAAAA	0000001011	C	Jan 10 2006  1:57:38:123PM	CUENTA COLEGIADO 1449	S	Jan 10 2006  1:34:44:906PM	N	N
0000001265	0000001011	TE ENVIE AL CORREO DE ELVIRA EL COMPROBANTE DEL INGRESO DE LAS CUOTAS ATRASADAS DE JUAN CARLOS GARCIA MARTIN. CHAO	0000001009	C	Jan 11 2006  1:16:20:376PM	CUOTAS 2553	S	Jan 11 2006  1:58:05:896PM	N	N
0000001266	T000000003	2006-05069=66847	T000000009	C	Jan 25 2006  9:34:11:703AM	CDO. COAC	S	Jan 25 2006 10:31:31:233AM	S	N
0000001267	T000000003	2006-00537= 69734	T000000009	C	Jan 25 2006 10:10:15:890AM	CDO. COAC	S	Jan 25 2006 10:32:02:266AM	S	N
0000001268	T000000018	AN= ANULADO	T000000009	C	Jan 26 2006  7:51:34:296AM	NUEVO TIPO DE REGISTRO	S	Jan 26 2006  8:48:12:126AM	S	N
0000001269	T000000003	REF. 2005-11507= 69472	T000000009	C	Jan 27 2006  1:48:08:076PM	CDO. COAC	S	Jan 30 2006  8:40:15:716AM	S	N
0000001270	T000000003	2006-00873=69852	T000000009	C	Feb  9 2006  7:20:09:156AM	CDO. COAC	S	Feb  9 2006  9:04:13:140AM	S	N
0000001271	T000000003	2006-00724=69685	T000000009	C	Feb  9 2006  8:24:57:920PM	CDO. COAC	S	Feb 10 2006  8:54:07:920AM	S	N
0000001273	0000001009	POR FIN TENGO CORREO ELECTRONICO,  ngonzalez@coaat-tfe.com	0000001011	C	Feb 16 2006 12:44:57:583PM	CORREO ELECTRONICO DE NIEVES	S	Feb 16 2006 12:49:23:953PM	N	N
0000001274	0000001011	TANTO QUE ME ALEGRO. YA TE ENVIARE LOS MENSAJITOS QUE NOS MANDA ELOY ( Y MAS COSAS). CHAO	0000001009	C	Feb 16 2006 12:52:00:110PM	CORREO ELECTRONICO DE NIEVES	S	Feb 16 2006  4:16:08:643PM	N	N
0000001276	T000000003	2006-01476 = 69955	T000000009	C	Feb 23 2006 11:51:43:420AM	CDO. COAC	S	Feb 23 2006  1:49:50:530PM	S	N
0000001277	T000000003	2006-01598=70036 YA ESTA PARA VDO.
2006-01599=70035 YA ESTA PARA VDO.	T000000009	C	Mar  2 2006 10:20:14:546AM	CDO. COAC	S	Mar  2 2006 11:25:58:766AM	S	N
0000001278	T000000003	2006-01722 =70006
2006-01721= 70005	T000000009	C	Mar  9 2006  1:49:16:126PM	CDO. COAC	S	Mar  9 2006  2:44:14:483PM	S	N
0000001279	T000000003	2006-02012 0 70251	T000000009	C	Mar 13 2006 12:42:29:610PM	COD. COAC	S	Mar 13 2006  2:12:59:516PM	S	N
0000001280	T000000003	2006-01261 069790 YA ESTA LOCALIZADO SOLO BORRAR DE LISTA	T000000009	C	Mar 14 2006  9:58:27:216AM	CDO. COAC	S	Mar 14 2006  1:43:16:780PM	S	N
0000001281	T000000003	2006-02488=70305 TRAJERON PROY. -YA ESTA PARA VDOS.- BORRAR DE LISTA	T000000009	C	Mar 22 2006  1:47:54:703PM	CDO. COAC	S	Mar 23 2006  9:11:05:750AM	S	N
0000001283	0000001011	NAYRA PAGO LA CUOTA DE MARZO/ABRIL. EL Nº DE FACTURA ES CUOTA-06003885. TE ENVIO EL ORIGINAL POR MENSAJERIA. CHAO	0000001009	C	Mar 29 2006  9:20:51:873AM	ALTA NAYRA	S	Mar 29 2006  9:56:04:153AM	N	N
0000001284	T000000003	2006-02556=70319	T000000009	C	Mar 29 2006  1:24:11:843PM	CDO. COAC	S	Mar 30 2006  8:35:26:186AM	S	N
0000001285	T000000003	2006-02786=70374
2006-02782=70364
2006-02727=70423	T000000009	C	Mar 31 2006 12:16:48:906PM	CDO. COAC	S	Mar 31 2006  1:19:11:016PM	S	N
0000001286	T000000003	2006-02802= 70469	T000000009	C	Apr  5 2006 12:42:55:076PM	CDO. COAC	S	Apr  5 2006  2:50:04:390PM	S	N
0000001287	T000000003	2006-02948 70466 YA PASO PARA VDO. BORRAR DE LISTA	T000000009	C	Apr  6 2006 10:13:16:716AM	CDO. COAC	S	Apr  6 2006  2:23:45:640PM	S	N
0000001288	0000001008	MERCHE LLAMA CUANDO PUEDAS REFERENTE D.O. DE PEDRO JOSE GONZALE GONZALEZ	T000000009	C	Apr 18 2006  9:13:49:860AM	VISADOS	S	Apr 18 2006  9:33:15:716AM	S	N
0000001289	T000000003	2006-03206=70497	T000000009	C	Apr 20 2006 11:21:27:826AM	CDO. COAC	S	Apr 21 2006  9:56:06:766AM	S	N
0000001290	T000000003	2006-02788=70676	T000000009	C	Apr 24 2006 11:00:57:733AM	CDO. COAC	S	Apr 24 2006  1:35:06:046PM	S	N
0000001291	T000000003	2006-03385=70195	T000000009	C	Apr 26 2006 12:29:03:716PM	CDO. COAC	S	Apr 26 2006  1:55:42:876PM	S	N
0000001293	T000000003	2006-02785=70825
2006-03809=70761	T000000009	C	May  8 2006 12:55:29:406PM	CDO. COAC	S	May  8 2006  1:34:36:703PM	S	N
0000001294	T000000003	2006-03794=70745	T000000009	C	May 15 2006  2:39:30:890PM	CODO. COAC	S	May 16 2006  8:36:00:156AM	S	N
0000001295	T000000003	2005-11240=69446	T000000009	C	May 16 2006  1:01:32:376PM	CDO. COAC	S	May 16 2006  4:33:40:436PM	S	N
0000001296	T000000003	2006-04429=70624 BORRAR DE LISTA YA ESTA PARA VDO.	T000000009	C	May 22 2006  2:20:04:326PM	CDO. COAC	S	May 22 2006  3:00:15:530PM	S	N
0000001297	T000000003	2006-04631=70982 SOLO BORRAR DE LISTA YA ESTA PARA VDO.	T000000009	C	May 24 2006 12:13:51:016PM	CDO. COAC	S	May 24 2006  1:02:10:860PM	S	N
0000001298	T000000003	2006-04399=70976
	T000000009	C	May 25 2006 12:08:26:843PM	CDO. COAC	S	May 25 2006 12:37:39:016PM	S	N
0000001299	T000000003	2006-04482=71135	T000000009	C	May 29 2006 11:47:27:466AM	CDO. COAC	S	May 29 2006 12:17:57:563PM	S	N
0000001300	T000000003	2006-04900=70778
2006-04902=70953	T000000009	C	Jun  6 2006 12:32:43:016PM	COD. COAC	S	Jun  6 2006  1:02:40:030PM	S	N
0000001301	T000000003	2006-04311=69387	T000000009	C	Jun  8 2006 11:49:24:233AM	CDO. COAC	S	Jun  8 2006 12:49:54:546PM	S	N
0000001302	T000000003	2006-02717=69958	T000000009	C	Jun 16 2006  1:14:03:936PM	CDO. COAC	S	Jun 16 2006  2:09:33:140PM	S	N
0000001303	T000000003	2006-00754=66182 SOLO BORRAR DE LISTA YA ESTA PARA VISADOS	T000000009	C	Jun 20 2006  8:47:40:813AM	CDO. COAC	S	Jun 20 2006 10:04:18:703AM	S	N
0000001304	T000000003	2006-04705=71085	T000000009	C	Jun 21 2006 10:32:02:953AM	CDO. COAC	S	Jun 21 2006 11:03:30:860AM	S	N
0000001305	T000000003	2006-05417=71425	T000000009	C	Jun 22 2006 12:52:47:733PM	CDO. COAC	S	Jun 22 2006  1:21:02:983PM	S	N
0000001306	T000000003	2006-04891 = 71066	T000000009	C	Jun 23 2006 11:01:18:093AM	CDO. COAC	S	Jun 23 2006 11:38:14:876AM	S	N
0000001307	T000000003	2006-05680=71430
	T000000009	C	Jun 27 2006 10:55:47:343AM	CDO. COAC	S	Jun 27 2006 12:42:51:860PM	S	N
0000001308	T000000003	2006-06109=71415
2006-06055=71669
2006-06276=71490	T000000009	C	Jul  6 2006 10:32:11:126AM	CDO. COAC	S	Jul  6 2006 10:57:43:140AM	S	N
0000001309	T000000003	2006-06329=71642
2006-06288=71631
2006-06208=71561	T000000009	C	Jul 12 2006  1:37:29:280PM	CDO. COAC	S	Jul 13 2006  8:57:17:296AM	S	N
0000001310	T000000003	2006-06101= 71422 SOLO BORRAR DE LISTA YA ESTA PARA VDO.	T000000009	C	Jul 13 2006 12:08:14:716PM	CDO. COAC	S	Jul 14 2006  8:37:51:376AM	S	N
0000001311	T000000003	2006-06385 = 71662
2006-06404 = 71488
	T000000009	C	Jul 13 2006 12:44:52:436PM	CDO. COAC	S	Jul 14 2006  8:38:18:390AM	S	N
0000001312	T000000003	2006-05399=70464
2006-06419=71667
	T000000009	C	Jul 14 2006  1:37:08:766PM	CDO. COAC	S	Jul 14 2006  2:10:58:360PM	S	N
0000001313	T000000003	2006-06716=71428 YA ESTA PARA VDO. SOLO BORAR DE LISTA	T000000009	C	Jul 19 2006  9:56:23:156AM	COD. COAC	S	Jul 19 2006  1:46:35:813PM	S	N
0000001314	T000000003	2006-07029=71911	T000000009	C	Jul 25 2006 10:45:28:500AM	CDO. COAC	S	Jul 25 2006 12:45:18:716PM	S	N
0000001315	T000000003	2006-06919=71874 YA ESTA VISADO SOLO BORRAR DE LISTA	T000000009	C	Jul 25 2006 11:14:01:466AM	CDO. COAC	S	Jul 25 2006  1:15:10:343PM	S	N
0000001316	T000000003	2006-06704=71718
2006-06432=71605 YA ESTA DESPACHADO SOLO BORRAR DE LISTA	T000000009	C	Jul 25 2006  2:34:28:860PM	CDO. COAC	S	Jul 26 2006  8:26:57:563AM	S	N
0000001317	T000000003	2006-06986=71947
2006-06668=71760
2006-06430=71545
	T000000009	C	Jul 26 2006  2:18:03:376PM	CDO. COAC	S	Jul 27 2006  9:45:45:563AM	S	N
0000001318	T000000003	2006-07081=71930	T000000009	C	Jul 31 2006  1:49:18:216PM	CDO. COAC	S	Aug  1 2006  8:59:31:826AM	S	N
0000001319	T000000003	2006-07064=67583	T000000009	C	Aug  1 2006 12:47:47:046PM	CDO. COAC	S	Aug  1 2006  2:10:08:546PM	S	N
0000001320	T000000003	2006-07337=71915	T000000009	C	Aug  3 2006 11:44:04:406AM	CDO. COAC	S	Aug  3 2006  2:09:31:266PM	S	N
0000001321	T000000003	2006-07488 = 71909 FALTA PONER SOCIEDAD DE PABLO 88882	T000000009	C	Aug  9 2006 12:42:19:016PM	CDO. COAC	S	Aug 10 2006  9:25:14:343AM	S	N
0000001322	T000000003	2006-07491=72042
2006-07439=71948	T000000009	C	Aug 10 2006 11:09:54:796AM	CDO. COAC	S	Aug 10 2006 12:07:01:516PM	S	N
0000001323	T000000003	2006-07412= 71998	T000000009	C	Aug 11 2006 11:36:44:703AM	CDO. COAC	S	Aug 11 2006 11:57:29:110AM	S	N
0000001339	T000000003	ya esta puesto el nif de la prop. sandra lo cogio por telefono	T000000009	C	Sep 19 2006 11:52:50:983AM	REF. 2006-09055	S	Sep 20 2006  8:56:03:703AM	S	N
0000001340	T000000003	2006-07707= 71712 YA ESTA, SOLO BORRAR DE LISTA	T000000009	C	Sep 19 2006 12:33:39:953PM	CDO. CACA	S	Sep 20 2006  8:55:47:000AM	S	N
0000001341	T000000003	2006-09008=72637 SOLO BORRAR DE LISTA YA ESTA PARA VDO.	T000000009	C	Sep 21 2006 12:38:39:953PM	CDO. COAC	S	Sep 21 2006  3:50:35:876PM	S	N
0000001342	T000000008	EXP. DE CRISTINA IBALLA PARA CREAR FACTURA CON DIFERENCIA DE SEGURO 2005-05474	T000000009	C	Sep 22 2006 12:39:04:563PM	EXP. CRISTINA IBALLA	S	Sep 22 2006  1:01:27:813PM	S	N
0000001343	T000000003	2006-09609=73028
2006-09608=73019	T000000009	C	Oct  3 2006  3:11:48:250PM	CDO. COAC	S	Oct  3 2006  4:33:39:716PM	S	N
0000001344	T000000003	2006-09848=72502	T000000009	C	Oct  5 2006 11:03:45:233AM	CDO. COAC	S	Oct  5 2006  1:24:57:093PM	S	N
0000001345	T000000003	2006-09915=73025  SOLO BORAR DE LISTA YA ESTA VDO.	T000000009	C	Oct  5 2006 11:54:21:983AM	CDO. COAC	S	Oct  5 2006  1:24:46:843PM	S	N
0000001346	T000000003	2006-09629 = 72715	T000000009	C	Oct 10 2006  3:09:00:563PM	CDO. COAC	S	Oct 10 2006  4:53:02:703PM	S	N
0000001347	T000000003	2006-10321=72975, SOLO BORRAR DE LISTA YA ESTA PARA VISADOS	T000000009	C	Oct 11 2006 12:16:26:843PM	CDO. COAC	S	Oct 11 2006  2:00:09:233PM	S	N
0000001348	T000000003	2006-09312=31429	T000000009	C	Oct 13 2006  9:29:20:813AM	CDO. COAC	S	Oct 16 2006  9:08:43:140AM	S	N
0000001350	T000000003	2006-10625=73274	T000000009	C	Nov  2 2006  1:10:30:313PM	COD. COAC	S	Nov  2 2006  1:53:08:936PM	S	N
0000001351	T000000003	2006-11517=72968	T000000009	C	Nov 24 2006 11:45:31:483AM	CDO. COAC	S	Nov 24 2006 12:48:50:203PM	S	N
0000001352	T000000003	2006-11531=73395 COMPROBAR SI SE PASA POR LA SOCIEDAD DEL TEC. 	T000000009	C	Nov 29 2006 11:29:13:920AM	CDO. COAC	S	Nov 29 2006  2:34:09:126PM	S	N
0000001354	T000000003	2006-12929=73901	T000000009	C	Jan 12 2007 11:11:44:280AM	CDO. COAC	S	Jan 12 2007 11:52:27:920AM	S	N
0000001355	T000000003	REF. 2006-07514 VDO. COAC 73922
BORRAR DE LISTA TRAJERON EL PROY. VDO. COAC NO LO HAN TRAIDO	T000000009	C	Feb  1 2007  9:56:20:343AM	CDO. COAC	S	Feb  5 2007  9:42:56:406AM	S	N
0000001356	T000000003	2007-00133=74135	T000000009	C	Feb  7 2007 10:46:00:076AM	CDO. COAC	S	Feb  7 2007  1:45:16:750PM	S	N
0000001357	0000001011	mi flor, Niza, del Colegio de Arquitectos esta intentando hablar contigo, pero parece que nadie coge el telefono. como me pregunto si tienes linea directa y le dije que no que siguiera llamando, pues te informo. Chao	0000001009	C	Feb  7 2007 12:00:51:296PM	RECADO DE NIZA	S	Feb  7 2007 12:50:45:866PM	N	N
0000001358	T000000003	2007-00692=73997	T000000009	C	Feb  8 2007 12:56:14:390PM	CDO COAC	S	Feb  9 2007  8:23:23:093AM	S	N
0000001359	T000000003	REF. 2007-00494=74354	T000000009	C	Feb 27 2007  5:50:55:936PM	CDO. COAC	S	Feb 27 2007  6:28:33:326PM	S	N
0000001360	T000000003	2007-01803=74307, MAL Nº VDO. COAC QUE ESTABA PUESTO	T000000009	C	Mar  5 2007 10:11:26:860AM	CDO. COAC	S	Mar  5 2007 11:11:42:906AM	S	N
0000001361	T000000003	2007-02217=74504 YA ESTA PUESTO EN PANTALLA Y HATA HOY DIA 19/3/2007 NO ESTA	T000000009	C	Mar 19 2007 12:38:48:843PM	COD. COAC	S	Mar 20 2007  8:23:36:733AM	S	N
0000001362	T000000003	2007-02191=74621	T000000009	C	Mar 19 2007 12:47:52:733PM	CDO. COAC	S	Mar 20 2007  8:23:11:126AM	S	N
0000001363	T000000003	2007-01933=74934	T000000009	C	Mar 22 2007 11:45:59:360AM	CDO. COAC	S	Mar 22 2007  1:36:42:546PM	S	N
0000001364	T000000003	2007-02420-19=74546, YA ESTA PUESTO EN PANTALLA PENDIENTE DE QUE LLEGUE CDO. COAC. COMPROBADO 23/3/2007	T000000009	C	Mar 23 2007 10:00:35:703AM	CDO. COAC	S	Mar 23 2007 10:50:08:860AM	S	N
0000001365	T000000003	2007-02091=74749
2007-02513=74583
2007-02649=74582	T000000009	C	Mar 23 2007 10:27:41:313AM	CDO. COAC	S	Mar 23 2007 10:50:39:046AM	S	N
0000001366	T000000003	REF. 2007-02750-49, LLAMO ELOY.	T000000009	C	Mar 26 2007 10:57:45:216AM	REVISAR	S	Mar 27 2007  1:25:11:576PM	S	N
0000001367	T000000003	2007-02736, LLAMO LA TEC. SI PUDE SER PARA HOY,
LO DE ELOY. ES PARA EL MIERCOLES, GRACIAS	T000000009	C	Mar 26 2007 10:59:38:826AM	REVISAR	S	Mar 27 2007  1:24:56:466PM	S	N
0000001368	T000000003	2007-02537-38 PARA EL MIERCOLES	T000000009	C	Mar 26 2007 11:09:42:296AM	REVISAR	S	Mar 27 2007  1:24:46:576PM	S	N
0000001369	T000000003	2007-02722, PARA EL MARTES
2007/02724-25, PARA EL MARTES	T000000009	C	Mar 26 2007 11:16:25:203AM	REVISAR	S	Mar 27 2007  1:24:25:876PM	S	N
0000001370	T000000003	2007-02486=74444, SOLO BORRAR DE LISTA YA ESTA VISADO	T000000009	C	Mar 29 2007 11:42:49:703AM	CODO. COAC	S	Mar 30 2007  9:00:36:376AM	S	N
0000001371	T000000003	2007-03002=75037  SOLO BORRAR DE LISTA YA ESTA PARA VDO.	T000000009	C	Mar 29 2007 12:03:56:093PM	CDO. COAC	S	Mar 30 2007  9:00:51:186AM	S	N
0000001372	T000000003	2007-02932=75194	T000000009	C	Apr 13 2007 12:43:32:280PM	CDO. COAC	S	Apr 13 2007  1:24:47:280PM	S	N
0000001373	T000000003	2007-02849=74973	T000000009	C	Apr 16 2007  1:22:57:670PM	CDO. COAC	S	Apr 16 2007  1:33:31:250PM	S	N
0000001374	T000000003	2007-04391=75551	T000000009	C	May 16 2007 12:42:26:906PM	CDO. COAC	S	May 16 2007  1:01:01:436PM	S	N
0000001375	T000000003	2007-04585= 75576	T000000009	C	May 21 2007 10:00:51:140AM	CDO. COAD	S	May 21 2007 10:18:59:233AM	S	N
0000001376	T000000003	2007-04352=75427	T000000009	C	May 22 2007  1:37:08:093PM	CDO. COAC	S	May 22 2007  4:50:50:906PM	S	N
0000001377	T000000003	2007-03963 = 75422	T000000009	C	May 25 2007  9:27:58:843AM	CDO. COAC	S	May 28 2007  8:56:22:516AM	S	N
0000001378	T000000003	2007-04805 = 75616	T000000009	C	May 31 2007 11:38:55:140AM	CDO. COAC	S	May 31 2007  1:41:06:453PM	S	N
0000001379	T000000003	2007-05139  =75522
SOLO BORAR DE LISTA YA ESTA VISADO
	T000000009	C	Jun  8 2007  9:06:36:140AM	CDO. COAC	S	Jun  8 2007  9:33:51:140AM	S	N
0000001380	T000000003	REFERNCIA 2007-05472 Nº COAC 75619.
SOLO BORRAR LISTA. PASO A VISADOS	T000000002	C	Jun 15 2007  1:09:56:170PM	COMUNICADO COAC	S	Jun 18 2007  8:32:42:156AM	N	N
0000001381	T000000003	2007-05952 Y 2007-06001 VDO. COAC 75957, SOLO BORRAR DE LISTA YA ESTA PARA VDO.	T000000009	C	Jun 21 2007 10:20:09:656AM	CDO. COAC	S	Jun 21 2007 11:21:12:296AM	S	N
0000001382	T000000003	2007-05829 = 75794	T000000009	C	Jun 27 2007  1:01:55:016PM	CDO. COAC	S	Jun 28 2007  8:36:36:466AM	S	N
0000001383	T000000003	REF. 2007-06260 = 75980	T000000009	C	Jul  3 2007  7:49:10:546AM	CDO. COAC	S	Jul  4 2007  8:47:58:530AM	S	N
0000001384	T000000003	2007-06425 = 76140	T000000009	C	Jul 10 2007 10:07:05:656AM	CODO. COAC	S	Jul 10 2007 11:12:32:126AM	S	N
0000001385	T000000003	200706594 = 75631 SOLO BORRAR DE LISTA YA ESTA VISADO	T000000009	C	Jul 11 2007 10:28:25:280AM	CDO. COAC	S	Jul 11 2007 12:53:42:983PM	S	N
0000001387	T000000003	2007-06937= 76238	T000000009	C	Jul 20 2007  1:47:34:516PM	CDO. COAC	S	Jul 23 2007  9:07:16:000AM	S	N
0000001388	T000000003	REF. 2007-03187=76092	T000000009	C	Jul 24 2007 11:02:34:436AM	CDO. COAC	S	Aug 20 2007  9:04:18:420AM	S	N
0000001389	T000000003	2007-07992 = 76665
2007-07893 = 76504
2007-07785 = 76628
2007-07694 = 76657
	T000000009	C	Aug 21 2007 10:07:24:140AM	CDO. COAC	S	Aug 21 2007 10:23:31:046AM	S	N
0000001390	T000000003	2007-07835= 76680	T000000009	C	Sep  6 2007 12:53:04:216PM	CDO. COAC	S	Sep  7 2007  8:57:36:686AM	S	N
0000001391	T000000003	2007-08511= 76793, SOLO BORRAR DE LISTA YA ESTA PARA VISADOS	T000000009	C	Sep 14 2007  8:31:54:703AM	CDO. COAC	S	Sep 14 2007 12:45:35:046PM	S	N
0000001392	T000000003	2007-08581=76792 SOLO BORRAR DE LISTA YA ESTA PARA VISADOS	T000000009	C	Sep 14 2007 11:15:43:733AM	CDO. COAC	S	Sep 14 2007 12:45:42:563PM	S	N
0000001393	T000000003	REF. 2007-09310 BORRAR DE LISTA ES PROYECTO DE INGENIERO, YA ESTA PARA VISADOS	T000000009	C	Sep 28 2007 11:00:48:156AM	CDO. COAC	S	Oct  1 2007 10:56:45:716AM	S	N
0000001394	T000000003	2007-10247=77216	T000000009	C	Oct 31 2007 12:18:34:906PM	CDO. COAC	S	Nov  2 2007  9:12:03:906AM	S	N
0000001395	0000001017	2007-10097=77245	T000000009	C	Nov  2 2007  1:38:42:953PM	CDO. COAC	N		S	N
0000001396	T000000003	2007-10097=77245	T000000009	C	Nov  2 2007  1:38:42:953PM	CDO. COAC	S	Nov  5 2007 11:00:32:593AM	S	N
0000001397	T000000003	REF. 2007-10632-10634 = 77364, YA ESTA PARA VISADOS BORAR DE LISTA	T000000009	C	Nov 23 2007  1:08:23:796PM	CDO. COAC	S	Nov 26 2007  9:30:12:716AM	S	N
0000001398	T000000003	2007-10097=77245	T000000009	C	Nov 23 2007  1:09:58:420PM	CDO. COAC	S	Nov 26 2007  9:30:20:436AM	S	N
0000001399	T000000003	2007-11391=77372	T000000009	C	Dec  3 2007 10:58:39:516AM	CDO. COACA	S	Dec  3 2007  1:23:01:656PM	S	N
0000001400	T000000003	2007-12353=77876	T000000009	C	Jan 10 2008  9:27:48:233AM	CDO. COAC	S	Jan 10 2008  9:49:34:140AM	S	N
0000001401	T000000003	2007-12338 = 77701	T000000009	C	Jan 18 2008 11:41:55:453AM	CODO. COAC	S	Jan 18 2008  1:40:37:000PM	S	N
0000001402	T000000003	2008-00883 = 78221	T000000009	C	Feb 19 2008  1:33:42:843PM	CDO. COAC	S	Feb 19 2008  5:34:00:186PM	S	N
0000005001	T000000003	2007-11828=77607
2007-12489=77933
	T000000009	C	Mar  5 2008  8:23:15:766AM	CDO. COAC	S	Mar  5 2008 10:29:06:733AM	S	N
0000005002	T000000003	2007-06740= 76106	T000000009	C	Mar  7 2008  1:55:47:076PM	CDO. COAC	S	Mar  7 2008  2:42:18:203PM	S	N
0000005003	T000000003	2008-01786=78494	T000000009	C	Mar 11 2008 11:19:30:850AM	CDO. COAC	S	Mar 11 2008 11:33:38:156AM	S	N
0000005004	T000000003	2008-01865=78503	T000000009	C	Mar 13 2008 12:41:01:780PM	CDO. COAC	S	Mar 13 2008  2:17:59:000PM	S	N
0000005005	T000000003	2008-01865=78503, HASTA LOS CDO. COAC DEL  DIA 13/03/2008 Y NO ESTA	T000000009	C	Mar 13 2008 12:43:19:030PM	CDO. COAC	S	Mar 13 2008  2:18:24:890PM	S	N
0000005006	T000000003	2008-02115=78652
2008-02195=78542
	T000000009	C	Mar 28 2008 12:51:12:610PM	COD. COAC	S	Mar 31 2008  9:12:21:610AM	S	N
0000005007	T000000003	REF. 2008-02904=78787	T000000009	C	Apr 16 2008  2:50:46:876PM	CDO. COAC	S	Apr 17 2008  8:38:40:860AM	S	N
0000005008	T000000003	2008-03187=78941	T000000009	C	Apr 21 2008  2:01:54:326PM	CDO. COAC	S	Apr 22 2008 12:49:14:390PM	S	N
0000005009	T000000003	2008-03306= 46383 SOLO BORRAR DE LISTA YA TENGO EL PROYECTO	T000000009	C	Apr 23 2008 12:27:53:983PM	CDO. COAC	S	Apr 23 2008  2:08:28:890PM	S	N
0000005010	T000000003	2008-03730=78897, SOLO BORRAR DE LISTA YA ESTA LOCALIZADO	T000000009	C	May  7 2008  1:15:37:843PM	CDO. COAC	S	May  7 2008  1:44:41:156PM	S	N
0000005011	T000000003	2008-03493 =79015	T000000009	C	May 20 2008  9:28:23:936AM	CDO. COAC	S	May 20 2008 10:59:43:326AM	S	N
0000005012	T000000003	2008-04086= 78650	T000000009	C	May 28 2008 12:02:06:563PM	CDO. COAC	S	May 28 2008 12:57:58:343PM	S	N
0000005013	T000000003	2008-05183 = 79459, YA LO BUSQUE HASTA EL 13/06/2008 Y NO HA LLEGADO, PARA ANORTAR EN LISTA	T000000009	C	Jun 16 2008  9:48:40:656AM	CDO. COAC	S	Jun 16 2008 11:57:32:483AM	S	N
0000005014	T000000003	2008-05100 = 79323	T000000009	C	Jun 19 2008  2:11:06:156PM	CDO. COAC	S	Jun 20 2008  8:42:10:326AM	S	N
0000005015	T000000003	2008-05370 = 79395, SOLO BORRAR DE LISTA Y ESTA PARA VISADOS	T000000009	C	Jun 25 2008  8:00:14:876AM	CDO. COAC	S	Jun 25 2008  9:14:45:953AM	S	N
0000005016	T000000003	REF. 2008-03038=79628	T000000009	C	Jun 26 2008  1:18:38:406PM	CDO. COAC	S	Jun 27 2008  8:47:29:936AM	S	N
0000005017	T000000003	2008-05035=79294	T000000009	C	Jun 27 2008  1:46:42:500PM	CDO. COAC	S	Jun 30 2008  8:44:20:343AM	S	N
0000005018	T000000003	2008-05904= 79752
2008-05905=79753
SOLO BORRAR DE LISTA	T000000009	C	Jul 14 2008 11:08:23:843AM	CDO. COAC	S	Aug  4 2008 10:01:09:530AM	S	N
0000005019	T000000003	2008-06746 = 79468	T000000009	C	Aug  8 2008 12:27:06:640PM	CDO. COAC	S	Aug  8 2008  1:31:44:876PM	S	N
0000005020	0000001023	NUEVOS VISADOS	T000000009	C	Aug 25 2008  9:54:24:186AM	VISADO ELECTRONICO	S	Aug 25 2008 12:49:13:733PM	S	N
0000005021	T000000013	NUEVOS VISADOS	T000000009	C	Aug 25 2008  9:54:24:186AM	VISADO ELECTRONICO	S	Aug 25 2008 11:22:45:750AM	S	N
0000005022	T000000013	2008-07387 ENVIADO NUEVO PAQUETE SUBSANADO	T000000009	C	Aug 27 2008  8:30:23:716AM	SUBSANACION	S	Aug 27 2008  8:50:41:716AM	S	N
0000005023	T000000013	REF. 2008-07388 SUBSANADO	T000000009	C	Aug 27 2008 10:29:02:140AM	SUBSANACION	S	Aug 27 2008 10:35:24:890AM	S	N
0000005024	0000001023		T000000009	C	Aug 27 2008 10:47:30:686AM	NUEVO REF. 2008-07451	S	Aug 27 2008 11:25:42:610AM	S	N
0000005025	T000000013		T000000009	C	Aug 27 2008 10:47:30:686AM	NUEVO REF. 2008-07451	S	Aug 27 2008 11:33:42:983AM	S	N
0000005026	0000001023	2008-07496	T000000009	C	Aug 28 2008 10:16:51:780AM	VISARED	S	Aug 29 2008 10:04:52:860AM	S	N
0000005027	T000000013	2008-07496	T000000009	C	Aug 28 2008 10:16:51:780AM	VISARED	S	Aug 28 2008 11:02:17:406AM	S	N
0000005028	0000001023	2008-07500	T000000009	C	Aug 28 2008 10:37:42:766AM	VISARES	S	Aug 29 2008 10:04:44:576AM	S	N
0000005029	T000000013	2008-07500	T000000009	C	Aug 28 2008 10:37:42:766AM	VISARES	S	Aug 28 2008 11:02:03:983AM	S	N
0000005030	0000001023	2008-07552	T000000009	C	Sep  1 2008  9:46:35:313AM	VISADO ELECTRONICO	S	Sep  1 2008 10:37:10:826AM	S	N
0000005031	T000000003	REF. 2008-07172 = 80030	T000000009	C	Sep  2 2008  1:51:12:046PM	CDO. COAC	S	Sep  3 2008  8:32:01:406AM	S	N
0000005032	0000001023	SUBSANACION ERRORES 2008-07252, SIGUE FALTANDO LO MISMO	T000000009	C	Sep  3 2008 12:11:57:186PM	2008-07252	S	Sep  5 2008  9:22:37:546AM	S	N
0000005033	0000001023	NUEVO VISADO ELECTRONICO 2008-07603	T000000009	C	Sep  3 2008 12:21:29:670PM	NUEAV REF.2008-07603	S	Sep  5 2008  9:22:42:953AM	S	N
0000005034	0000001023	REF. 2008-07666	T000000009	C	Sep  4 2008  1:58:59:890PM	VISARED	S	Sep  5 2008  9:22:45:703AM	S	N
0000005035	0000001023	REF. 2008-07700	T000000009	C	Sep  8 2008  8:50:48:500AM	VISARES	S	Sep  8 2008 12:23:29:360PM	S	N
0000005036	0000001023	2008-07252	T000000009	C	Sep  9 2008  6:31:08:390AM	ANEXO REF. 2008-07252 FICHA CTE	S	Sep  9 2008 12:11:26:983PM	S	N
0000005037	0000001023	NO ES 2008-07252 SINO 2008-7552, LA FICHA CTE ESTA SIN FIRMA DIGITAL	T000000009	C	Sep  9 2008  6:33:50:766AM	ANEXO REF. 2008-07552 NO 2008-07252	S	Sep  9 2008 12:11:50:390PM	S	N
0000005038	0000001023	NUEVO	T000000009	C	Sep  9 2008  6:48:29:500AM	VISARED REF. 2008-07735	S	Sep  9 2008 11:31:38:733AM	S	N
0000005039	0000001023	NUEVO 2008-07758	T000000009	C	Sep  9 2008 12:36:44:076PM	VISARED	S	Sep 15 2008  9:28:19:233AM	S	N
0000005040	0000001023	2008-07758 
2008-07813	T000000009	C	Sep 11 2008  7:47:05:766AM	VISARED	S	Sep 15 2008 11:35:08:516AM	S	N
0000005041	T000000012	2008-07758 
2008-07813	T000000009	C	Sep 11 2008  7:47:05:766AM	VISARED	S	Dec 15 2008 10:41:18:116AM	S	N
0000005042	0000001023	CERTIFICADO SEGURIDAD
CARATULA PROY.
NUEVA HSV	T000000009	C	Sep 11 2008  8:26:15:610AM	SUBSANACION REF. 2008-07451	S	Sep 15 2008 11:35:12:953AM	S	N
0000005043	T000000012	CERTIFICADO SEGURIDAD
CARATULA PROY.
NUEVA HSV	T000000009	C	Sep 11 2008  8:26:15:610AM	SUBSANACION REF. 2008-07451	S	Dec 15 2008 10:41:29:440AM	S	N
0000005044	0000001023		T000000009	C	Sep 18 2008 10:12:59:966AM	VISARED 2008-08006	S	Sep 18 2008 10:33:01:906AM	S	N
0000005045	T000000013		T000000009	C	Sep 18 2008 10:12:59:966AM	VISARED 2008-08006	S	Sep 18 2008 10:29:12:576AM	S	N
0000005046	T000000013	SE ENCUENTRAN ANTECEDENTES PERO NO COINCIDE P.E.M.	T000000009	C	Sep 18 2008 12:10:51:813PM	SUBSANACION REF. 2008-08006	S	Sep 18 2008 12:22:01:376PM	S	N
0000005047	T000000013		T000000009	C	Sep 19 2008  8:52:25:953AM	SUBSANACION REF. 2008-07758	S	Sep 19 2008 10:24:28:016AM	S	N
0000005048	T000000013		T000000009	C	Sep 22 2008  7:52:58:983AM	SUBSANACION REF. 2008-08006	S	Sep 22 2008  8:46:04:076AM	S	N
0000005049	T000000013		T000000009	C	Sep 22 2008  8:10:28:046AM	VISARED. REF. 2008-08075	S	Sep 22 2008  8:45:00:750AM	S	N
0000005050	T000000013		T000000009	C	Sep 22 2008  8:35:17:436AM	2008-08077 JUNTO SUBSANACION REF. 2008-08006, EXP. 2006-0459	S	Sep 22 2008  8:48:56:266AM	S	N
0000005051	T000000013	 	T000000009	C	Sep 29 2008  8:02:37:936AM	VISARED 2008-08293	S	Sep 29 2008  8:26:37:530AM	S	N
0000005052	T000000013		T000000009	C	Sep 29 2008 11:55:52:813AM	VISARED SUBSANACION REF. 2008-08077 Y 2008-08006	S	Sep 29 2008 12:23:40:876PM	S	N
0000005053	T000000003	APUNTAR EN LA LISTA 2008-08075 VISADO COAC 80462	T000000009	C	Sep 29 2008  1:03:37:376PM	CDO. COAC	S	Sep 30 2008  8:23:37:626AM	S	N
0000005055	T000000013		T000000009	C	Sep 30 2008 10:09:55:093AM	SUB REF. 2008-08006 Y 2008-08077 EXP.  2006-04596 CAÑAMERO	S	Sep 30 2008 10:26:03:280AM	S	N
0000005056	T000000013		T000000009	C	Oct  1 2008  8:56:31:546AM	SUB. REF. 2008-07552 FALTA AUTOR DE PROY. Y DE E.S	S	Oct  1 2008  9:41:32:170AM	S	N
0000005057	T000000013		T000000009	C	Oct  1 2008  9:23:39:390AM	VISARED EXP. 2008-03775 D.O. Y COORD. 2008-08364/5	S	Oct  1 2008  9:50:08:500AM	S	N
0000005058	T000000013		T000000009	C	Oct  2 2008  8:49:03:860AM	SUB REF. 2008-7552; 8364; 8365	S	Oct  2 2008  9:01:40:313AM	S	N
0000005059	T000000013		T000000009	C	Oct  2 2008  2:44:58:983PM	SUB. VISARED 2008-08075 VER INCIDENCIAS	S	Oct  3 2008  8:08:38:890AM	S	N
0000005060	0000001023		T000000009	C	Oct  3 2008  1:34:00:483PM	SUBSANACION REF. 2008-07500	S	Oct  6 2008  9:26:17:670AM	S	N
0000005061	0000001023		T000000009	C	Oct  3 2008  1:42:37:140PM	NUEVO VISARED 2008-08482	S	Oct  6 2008  9:26:20:860AM	S	N
0000005062	T000000013		T000000009	C	Oct  3 2008  1:42:37:140PM	NUEVO VISARED 2008-08482	S	Oct  6 2008  8:22:04:953AM	S	N
0000005063	T000000013		T000000009	C	Oct  7 2008  8:50:54:966AM	SUBSANACION REF. 2008-08075	S	Oct  7 2008  9:36:02:920AM	S	N
0000005065	T000000013		T000000009	C	Oct 14 2008  9:26:16:420AM	VISARED 2008-08756	S	Oct 14 2008 10:07:16:266AM	S	N
0000005064	0000001023		T000000009	C	Oct 14 2008  9:26:16:420AM	VISARED 2008-08756	S	Oct 14 2008 10:03:00:360AM	S	N
0000005066	T000000003	2008-08635 = 80495	T000000009	C	Oct 15 2008 12:30:50:826PM	COD. COAC	S	Oct 15 2008  2:27:56:466PM	S	N
0000005067	T000000013		T000000009	C	Oct 15 2008  2:03:34:000PM	SUBSANACION REF. 2008-08758	S	Oct 16 2008  8:09:49:546AM	S	N
0000005068	T000000013		T000000009	C	Oct 15 2008  2:16:41:656PM	SUBSANACION REF. 2008-08756	S	Oct 16 2008  8:09:44:890AM	S	N
0000005069	T000000013		T000000009	C	Oct 16 2008  1:10:21:453PM	SUBSANACION REF. 2008-08757 Y JUNTO CON  2008-08897	S	Oct 16 2008  1:22:25:936PM	S	N
0000005070	T000000013		T000000009	C	Oct 17 2008  1:22:48:110PM	VISARED 2008/8946	S	Oct 20 2008  8:08:01:466AM	S	N
0000005071	T000000003	MONTSE YA ESTA LISTO LO DE EBRULFO, YA LOS PASE POR LA SOCIEDAD	T000000009	C	Oct 20 2008 12:20:34:140PM	2008-08681	S	Oct 20 2008 12:45:10:233PM	S	N
0000005072	T000000013		T000000009	C	Oct 21 2008  9:11:35:766AM	VISARED EXP. 2008-04062 REF. 2008-08998 Y 2008-09001	S	Oct 21 2008  9:36:59:250AM	S	N
0000005073	T000000003		T000000009	C	Oct 21 2008  9:12:28:500AM	VDO. COAC REF. 2008-09001 = 80660	S	Oct 21 2008 11:53:04:360AM	S	N
0000005074	T000000013		T000000009	C	Oct 21 2008  9:40:44:186AM	VISARED REF.2008-09002	S	Oct 21 2008  9:56:49:076AM	S	N
0000005075	T000000013		0000001014	C	Oct 21 2008  1:37:04:036PM	REF. 2008/9032	S	Oct 22 2008  8:16:13:140AM	S	N
0000005076	T000000003	HOLA MONTSE. TE DEJE SOBRE LA MESA UN CERTIFICADO QUE ME HABIAS PASADO PARA RECALCULAS LOS GASTOS.
EL NUMERO DE REGISTRO ES EL 2008-08943	0000001022	C	Oct 22 2008 11:09:44:966AM	REGISTRO. 2008-08943	S	Oct 23 2008  8:31:27:860AM	N	N
0000005077	T000000013		T000000009	C	Oct 22 2008  1:13:01:983PM	VISARED REF. 2008-04102 REF. 2008-09065 Y 2008-09066	S	Oct 22 2008  1:44:09:016PM	S	N
0000005078	T000000003	 2008-08620 = 80488	T000000009	C	Oct 23 2008 12:49:21:216PM	CDO. COAC	S	Oct 23 2008  1:11:48:453PM	S	N
0000005079	T000000013		T000000009	C	Oct 23 2008  1:56:06:046PM	CDO. COACA VISARED. REF. 2008-09001	S	Oct 24 2008  8:14:56:966AM	S	N
0000005080	T000000013		T000000009	C	Nov  3 2008 10:00:17:563AM	VISARED 2008-09370	S	Nov  3 2008 10:13:13:656AM	S	N
0000005081	T000000013		0000001014	C	Nov  4 2008  9:46:58:110AM	SUBSANACION REF. 2008-09370	S	Nov  4 2008 10:27:34:466AM	S	N
0000005083	T000000013		0000001014	C	Nov 11 2008  8:57:50:796AM	2008-09620	S	Nov 11 2008  9:30:50:656AM	S	N
0000005084	0000001023		T000000009	C	Nov 11 2008  9:21:36:576AM	VISARED 2008-09623	S	Nov 11 2008  9:36:01:266AM	S	N
0000005085	T000000013		T000000009	C	Nov 11 2008  9:21:36:576AM	VISARED 2008-09623	S	Nov 11 2008  9:43:00:186AM	S	N
0000005086	T000000013		T000000009	C	Nov 11 2008 12:44:06:983PM	SUBSANACION REF. 2008-09065 CON COMUNICADO COAC	S	Nov 11 2008  1:39:32:046PM	S	N
0000005087	T000000009	HOLA PATRI	0000001022	C	Nov 17 2008 10:25:33:733AM	HOLA	S	Nov 17 2008 10:25:37:780AM	N	S
0000005088	T000000006	SDLFJSLSJSLDKJ	T000000009	C	Nov 17 2008 10:26:19:483AM	HOLA	S	Nov 17 2008 10:41:04:063AM	S	N
0000005097	T000000006	Colegiado nº 1.293
Hora: 8:55h.	0000001014	C	Nov 18 2008  9:02:22:666AM	LLAMADA DE Dº ALBERTO PINEDA	S	Nov 18 2008  9:56:34:453AM	S	N
0000005098	T000000006	Ernesto está  enfermo, llamarlo al móvil o llamar a la Fundación CIEC.
Hora: 9:05	0000001014	C	Nov 18 2008  9:15:33:496AM	MARI CARMEN, FUNDACION CIEC.	S	Nov 18 2008  9:57:48:313AM	S	N
0000005099	T000000006	Colegiado:1,424
Hora: 9:30h	0000001014	C	Nov 18 2008  9:38:29:846AM	LLAMADA DE Dº RAFAEL FERNANDEZ DOMINGUEZ	S	Nov 18 2008 10:00:42:453AM	S	N
0000005100	0000001023		T000000009	C	Nov 24 2008  9:33:26:453AM	VISARED 2008-10040	S	Nov 24 2008 10:03:02:170AM	S	N
0000005101	T000000013		T000000009	C	Nov 24 2008  9:33:26:453AM	VISARED 2008-10040	S	Nov 24 2008 10:03:58:716AM	S	N
0000005102	0000001023		T000000009	C	Nov 24 2008  9:41:15:953AM	VISARED 2008-10041	S	Nov 24 2008 10:03:14:780AM	S	N
0000005103	T000000013		T000000009	C	Nov 24 2008  9:41:15:953AM	VISARED 2008-10041	S	Nov 24 2008 10:05:22:076AM	S	N
0000005104	T000000006	JESUS DEL CASTILLO TELEFONO 629,502,228, HORA DE LA LLAMADA 9,00 	0000001010	C	Nov 25 2008  9:01:52:076AM	CENTRALITA	S	Nov 25 2008  9:37:53:703AM	S	N
0000005106	T000000006	COLEGIADO JOSE MANUEL GARCIA ARBOLEDA  630.78.82.50,	0000001010	C	Nov 25 2008  9:11:15:026AM	CENTRALITA	S	Nov 25 2008  9:38:33:343AM	S	N
0000005107	T000000013		0000001014	C	Nov 25 2008  9:33:53:506AM	2008-10094	S	Nov 25 2008  9:56:14:670AM	S	N
0000005108	0000001012	ALFREDO MORENO 618.961.553	0000001010	C	Nov 25 2008 10:44:51:380AM	CENTRALITA	N		S	N
0000005109	T000000006	ALFREDO MORENO 618.961.553	0000001010	C	Nov 25 2008 10:44:51:380AM	CENTRALITA	S	Nov 25 2008 11:00:48:016AM	S	N
0000005110	T000000006	DE NUEVO LLAMO ALFREDO MORENO QUE LE URGE HABLAR CONTIGO 	0000001010	C	Nov 25 2008 11:58:19:820AM	CENTRALITA	S	Nov 25 2008  1:22:39:750PM	S	N
0000005111	T000000006	COLEGIADO JOSE M. GARCIA ARBOLEDA 630.78.82.50	0000001010	C	Nov 26 2008  9:24:48:606AM	CENTRALITA	S	Nov 26 2008 10:40:19:016AM	S	N
0000005112	T000000013		0000001014	C	Nov 26 2008  9:18:29:066AM	2008-10138	S	Nov 26 2008  9:57:58:920AM	S	N
0000005113	T000000013		0000001014	C	Nov 26 2008  9:28:44:453AM	2008-10140	S	Nov 26 2008  9:57:50:563AM	S	N
0000005116	T000000006	colegiado 3030 remigio melian martin numero 667,947,332	0000001010	C	Nov 27 2008 12:07:29:456PM	CENTRALITA	S	Nov 27 2008 12:23:55:750PM	S	N
0000005120	T000000006	Llamar a Dº José Dorta, colegiado nº 1345
Tlf: 696-432-200
      922-121-675	0000001010	C	Nov 28 2008 10:47:38:783AM	CENTRALITA	S	Nov 28 2008 12:23:40:233PM	S	N
0000005121	T000000006	Dº Remigio necesita hacer consulta.
Tlf: 667-94-53-32
Luisi.	0000001010	C	Nov 28 2008 11:10:30:026AM	CENTRALITA	S	Nov 28 2008 12:24:30:703PM	S	N
0000005123	0000001023		T000000009	C	Dec  1 2008  9:29:28:906AM	VISARED 2008-10278	S	Dec  1 2008 10:21:32:500AM	S	N
0000005124	T000000013		T000000009	C	Dec  1 2008  9:29:28:906AM	VISARED 2008-10278	S	Dec  1 2008  9:41:31:216AM	S	N
0000005125	0000001023		0000001014	C	Dec  1 2008  9:16:14:196AM	2008-10279	S	Dec  1 2008 10:21:29:140AM	S	N
0000005126	T000000013		0000001014	C	Dec  1 2008  9:16:14:196AM	2008-10279	S	Dec  1 2008  9:38:23:250AM	S	N
0000005127	0000001023		T000000009	C	Dec  1 2008  9:33:47:376AM	VISRED 2008-10280	S	Dec  1 2008 10:21:35:436AM	S	N
0000005128	T000000013		T000000009	C	Dec  1 2008  9:33:47:376AM	VISRED 2008-10280	S	Dec  1 2008  9:41:24:280AM	S	N
0000005129	T000000006	POR FAVOR DEVOLVER LA LLAMADA AL 618.961.553	0000001018	C	Dec  1 2008 10:00:31:100AM	LLAMADA DE ALFREDO MORENO	S	Dec  1 2008 12:01:51:063PM	S	N
0000005130	0000001003	POR FAVOR DEVOLVER LLAMADA AL 629.774.997	0000001018	C	Dec  1 2008 10:02:49:170AM	LLAMADA DE GERARDO GARCÍA	N		S	N
0000005131	T000000004	POR FAVOR DEVOLVER LLAMADA AL 629.774.997	0000001018	C	Dec  1 2008 10:02:49:170AM	LLAMADA DE GERARDO GARCÍA	S	Dec  1 2008 12:05:47:140PM	S	N
0000005132	T000000006	922.413.351	0000001018	C	Dec  1 2008 10:04:08:953AM	LLAMADA DE JULIA DE LA PALMA	S	Dec  1 2008 10:00:41:670AM	S	N
0000005133	0000001023		0000001014	C	Dec  2 2008  8:54:28:696AM	2008-103	S	Dec  2 2008  9:40:54:626AM	S	N
0000005134	T000000013		0000001014	C	Dec  2 2008  8:54:28:696AM	2008-103	S	Dec  2 2008  9:19:04:170AM	S	N
0000005135	T000000006	LLAMO DE NUEVO ALFREDO MORENO 618,96,15,53	0000001018	C	Dec  2 2008  9:49:45:870AM	CENTRALITA	S	Dec  9 2008  9:09:51:780AM	S	N
0000005136	T000000007	ME COMENTO QUE SI POR FAVOR, YA QUE MARTIN NO VIENE HASTA EL VIERNES QUE SI PODÍAS LLAMARLO AL 618.961.553	0000001018	C	Dec  2 2008 12:30:04:100PM	LLAMADA DE ALFREDO MORENO	S	Dec  9 2008 12:44:51:983PM	S	N
0000005137	T000000004	LLAMADA DE FERNANDO ROCHA EN REPRESENTACIÓN DE SALA CANARIAS ( EMPRESA DE DIGITALIZACIÓN DE DOCUMENTOS).	0000001018	C	Dec  2 2008 12:37:11:673PM	LLAMADA DE FERNANDO ROCHA  670.645.359	S	Dec  2 2008  1:16:15:453PM	S	N
0000005139	T000000013	2008-10290  667.458.545	0000001018	C	Dec  3 2008  9:40:06:230AM	LLAMADA DEL 2241 D. JOSE LUIS MARTIN	S	Dec  3 2008  9:45:32:076AM	S	N
0000005140	0000001023		0000001018	C	Dec  3 2008 11:12:42:420AM	LLAMADA DEL (452) DOMINGO GLEZ.  922.25.64.73	S	Dec  3 2008 12:17:02:860PM	S	N
0000005141	T000000013		0000001018	C	Dec  3 2008 11:22:30:776AM	LLAMADA DE RUPERT  677.53.94.60	S	Dec  3 2008 12:23:56:843PM	S	N
0000005142	T000000013	2008-10229 Y 10230	0000001018	C	Dec  3 2008 11:28:42:260AM	LLAMADA DEL (1558) ALBERTO MENDEZ DEL HOYO 677.509.784	S	Dec  3 2008 12:24:18:186PM	S	N
0000005143	0000001023	2008-10111	0000001018	C	Dec  3 2008 11:55:20:500AM	LLAMADA DEL 1142 ROGELIO REYES  620.933.275	S	Dec  3 2008 12:17:19:860PM	S	N
0000005144	0000001023	COMO VA A SALIR DICE QUE LO LLAMES AL MOVIL EN CUANTO ESTES LIBRE.	0000001018	C	Dec  3 2008 11:59:25:290AM	DOMINGO GONZALEZ   630.08.32.22	S	Dec  3 2008 12:17:24:170PM	S	N
0000005145	T000000013		0000001018	C	Dec  3 2008  1:16:27:356PM	LLAMADA DEL 2325 D.CESAR DOMINGUEZ 649.94.80.65	S	Dec  3 2008  1:24:59:046PM	S	N
0000005147	T000000013		0000001018	C	Dec  4 2008  9:49:19:113AM	LLAMADA DE CESAR 2325  649.94.80.65	S	Dec  4 2008 10:23:28:500AM	S	N
0000005148	0000001023		T000000009	C	Dec  5 2008  8:36:16:826AM	VISARED 2008-10465	S	Dec  9 2008  8:17:23:030AM	S	N
0000005149	T000000013		T000000009	C	Dec  5 2008  8:36:16:826AM	VISARED 2008-10465	S	Dec  5 2008  9:26:35:076AM	S	N
0000005150	0000001023		T000000009	C	Dec  5 2008  8:40:37:216AM	VISARED 2008-10467	S	Dec  9 2008  8:17:26:686AM	S	N
0000005151	T000000013		T000000009	C	Dec  5 2008  8:40:37:216AM	VISARED 2008-10467	S	Dec  5 2008  9:40:18:766AM	S	N
0000005152	0000001023		T000000009	C	Dec  5 2008 11:23:37:576AM	VISARED 2008-10487	S	Dec  9 2008  8:17:30:016AM	S	N
0000005153	T000000013		T000000009	C	Dec  5 2008 11:23:37:576AM	VISARED 2008-10487	S	Dec  5 2008 11:31:26:436AM	S	N
0000005154	T000000013		0000001018	C	Dec  5 2008 11:49:27:160AM	LLAMADA DE ROMI  PROM. ROLIN   922.24.67.24	S	Dec  9 2008 12:43:04:453PM	S	N
0000005155	T000000006	Dº Alfredo Moreno, colegiado 510. 
TLF. 618-96-15-53	0000001014	C	Dec  9 2008  9:10:12:850AM	CENTRALITA	S	Dec  9 2008  9:09:59:453AM	S	N
0000005156	0000001023		T000000009	C	Dec  9 2008  9:21:59:390AM	VISARED 2008-10528	S	Dec  9 2008  9:48:29:530AM	S	N
0000005157	T000000013		T000000009	C	Dec  9 2008  9:21:59:390AM	VISARED 2008-10528	S	Dec  9 2008 12:43:11:110PM	S	N
0000005158	0000001023		T000000009	C	Dec  9 2008  9:36:41:110AM	VISARED2008-10532	S	Dec  9 2008  9:48:32:420AM	S	N
0000005159	T000000013		T000000009	C	Dec  9 2008  9:36:41:110AM	VISARED2008-10532	S	Dec  9 2008 12:43:17:406PM	S	N
0000005161	T000000006	Dº Santiago Yanes
Colegiado 1744
TLF. 670-841-321	0000001014	C	Dec  9 2008 11:24:44:826AM	CENTRALITA	S	Dec  9 2008 12:09:17:530PM	S	N
0000005162	T000000006	Dº Carlos López
Col. 2133
TLF. 629-51-62-60	0000001014	C	Dec  9 2008 12:24:32:096PM	CENTRALITA	S	Dec  9 2008 12:29:21:483PM	S	N
0000005163	T000000006	Dº Santiago Yanes
Col. 1744.
Tlf. 670-841-321
Dice que es urgente.
12:43	0000001014	C	Dec  9 2008 12:44:38:630PM	CENTRALITA	S	Dec  9 2008 12:50:47:516PM	S	N
0000005164	T000000006	LLamar a tu hermana.	0000001014	C	Dec  9 2008 12:54:43:970PM	CERTRALITA	S	Dec  9 2008 12:51:09:390PM	S	N
0000005165	0000001023		T000000009	C	Dec 10 2008  9:29:07:516AM	SUBSANACION REF. 2008-10532	S	Dec 10 2008  9:41:21:546AM	S	N
0000005166	0000001023		0000001014	C	Dec 10 2008 12:10:44:903PM	2008-10587	S	Dec 10 2008  1:12:20:140PM	S	N
0000005167	T000000013		0000001014	C	Dec 10 2008 12:10:44:903PM	2008-10587	S	Dec 10 2008 12:51:49:936PM	S	N
0000005168	0000001023		0000001014	C	Dec 10 2008 12:18:54:936PM	2008-10588	S	Dec 10 2008  1:12:23:420PM	S	N
0000005169	T000000013		0000001014	C	Dec 10 2008 12:18:54:936PM	2008-10588	S	Dec 10 2008 12:51:53:233PM	S	N
0000005170	0000001023		0000001014	C	Dec 10 2008 12:28:45:546PM	2008-10589	S	Dec 10 2008  1:12:25:530PM	S	N
0000005171	T000000013		0000001014	C	Dec 10 2008 12:28:45:546PM	2008-10589	S	Dec 10 2008 12:51:56:186PM	S	N
0000005172	T000000006	Dª Ana Luisa
Colg. 1254
Tlf:922-57-09-24	0000001014	C	Dec 11 2008  9:09:37:110AM	CENTRALITA	S	Dec 15 2008 10:34:43:966AM	S	N
0000005173	0000001001	Dº Gonzalo Sabina
Col. 556
Tlf. 685-621-228
10:05	0000001014	C	Dec 12 2008 10:06:56:370AM	CENTRALITA	N		S	N
0000005174	T000000006	Dº Gonzalo Sabina
Col. 556
Tlf. 685-621-228
10:05	0000001014	C	Dec 12 2008 10:06:56:370AM	CENTRALITA	S	Dec 15 2008 10:34:51:046AM	S	N
0000005176	T000000013		0000001018	C	Dec 12 2008 12:52:17:446PM	MARCOS CRUZ 649.45.12.07	S	Dec 12 2008 12:58:27:360PM	S	N
0000005178	0000001023		0000001018	C	Dec 12 2008 12:57:58:636PM	ALONSO LENNARD 922.53.14.21	S	Dec 12 2008  1:08:44:126PM	S	N
0000005179	T000000013		0000001018	C	Dec 12 2008 12:59:33:343PM	JUAN CRISTOBAL  657.812.933	S	Dec 12 2008  1:06:13:716PM	S	N
0000005181	0000001023		0000001018	C	Dec 15 2008 10:01:43:960AM	GENARO  922.51.16.99	S	Dec 15 2008 10:40:09:390AM	S	N
0000005182	0000001023		0000001018	C	Dec 15 2008 10:11:53:666AM	EDUARDO ALONSO   922.53.14.21	S	Dec 15 2008 10:40:20:733AM	S	N
0000005183	T000000006		0000001018	C	Dec 15 2008 11:51:09:530AM	FERNANDO ARROYO 2288   669.446.119	S	Dec 16 2008  9:23:17:093AM	S	N
0000005184	0000001023		T000000009	C	Dec 15 2008  2:05:59:860PM	VISARED 2008-10731	S	Dec 15 2008  2:08:12:140PM	S	N
0000005185	T000000013		T000000009	C	Dec 15 2008  2:05:59:860PM	VISARED 2008-10731	S	Dec 16 2008  8:42:12:593AM	S	N
0000005186	T000000006	JESUS DE CONSTRUCCIONES VEGA TENERIFE 670,997,447	0000001010	C	Dec 16 2008 12:09:24:250PM	CENTRALITA	S	Dec 16 2008  1:15:54:360PM	S	N
0000005187	0000001023		T000000009	C	Dec 16 2008  6:15:15:250PM	VISARED DO. 2008-10792 Y COORD. 2008-10793	S	Dec 17 2008  8:13:35:390AM	S	N
0000005188	T000000013		T000000009	C	Dec 16 2008  6:15:15:250PM	VISARED DO. 2008-10792 Y COORD. 2008-10793	S	Dec 17 2008  8:14:38:063AM	S	N
0000005189	T000000006	GLORIA SAMARIN 922,29,16,87	0000001010	C	Dec 18 2008 10:46:42:763AM	CENTRALITA	S	Dec 18 2008 11:56:15:170AM	S	N
0000005190	T000000006	ANA LUISA EXPOSITO 922,52,09,24 
639,41,19,30	0000001010	C	Dec 18 2008 11:40:21:993AM	CENTRALITA	S	Dec 18 2008 11:56:30:156AM	S	N
0000005191	0000001023		T000000009	C	Dec 19 2008  9:25:32:126AM	VISARED 2008-10900	S	Dec 19 2008  9:38:02:140AM	S	N
0000005192	T000000013		T000000009	C	Dec 19 2008  9:25:32:126AM	VISARED 2008-10900	S	Dec 19 2008  9:48:04:686AM	S	N
0000005193	T000000006	DAVID GARCIA CASO HOMOLOGACION 922749050 o 661187335	0000001010	C	Dec 19 2008 11:17:03:726AM	CENTRALITA	S	Dec 22 2008 10:22:02:576AM	S	N
0000005194	T000000006		0000001018	C	Dec 22 2008 11:40:34:340AM	COL. 1971 - MIGUEL ANGEL GOMEZ  922.634.440 / 661.672.158	S	Dec 22 2008 11:56:23:626AM	S	N
0000005195	T000000003	2008-04434=81180	T000000009	C	Dec 22 2008 12:05:17:203PM	VDO. COAC	S	Dec 23 2008  9:20:04:796AM	S	N
0000005196	0000001023		0000001018	C	Dec 23 2008  9:18:35:793AM	JUAN ABREU 678.472.168	S	Dec 23 2008 10:04:43:936AM	S	N
0000005197	0000001023		0000001018	C	Dec 23 2008  9:34:08:516AM	VICTOR 607.927.276	S	Dec 23 2008 10:12:52:016AM	S	N
0000005198	T000000006	 	0000001018	C	Dec 23 2008  9:54:31:863AM	MARTA SUAREZ  692.040.540  DICE QUE ES URGENTISIMO	S	Dec 23 2008 10:43:14:126AM	S	N
0000005199	0000001023		0000001018	C	Dec 23 2008 10:10:23:753AM	2279 VIRGINIA 639.790.910	S	Dec 23 2008 10:12:54:936AM	S	N
0000005200	0000001023		T000000009	C	Dec 23 2008 10:34:15:780AM	SUBSANACION REF. 2008-10792	S	Dec 23 2008 10:48:14:766AM	S	N
0000005201	0000001023		T000000009	C	Dec 23 2008 10:50:35:593AM	SUBSANACION VISARED 2008-10900	S	Dec 23 2008 12:41:05:000PM	S	N
0000005203	0000001023		0000001018	C	Dec 24 2008 10:07:20:390AM	RAUL PEREZ IZQUIERDO 1738   660.292.847	S	Dec 24 2008 10:32:40:046AM	S	N
0000005204	0000001023		0000001018	C	Dec 24 2008 11:48:06:183AM	CLAUDIO MÜLLER 922.73.55.80	S	Dec 24 2008 11:52:19:563AM	S	N
0000005205	T000000013		0000001018	C	Dec 29 2008 11:29:59:990AM	FELIX EXPOSITO  606.93.95. 08	S	Dec 29 2008 11:46:29:390AM	S	N
0000005208	T000000013		0000001018	C	Dec 29 2008 12:53:38:156PM	FRANCISCO RODRIGUEZ 1921  670.349.390	S	Dec 29 2008  1:11:06:953PM	S	N
0000005209	T000000006		0000001018	C	Dec 30 2008 11:10:09:496AM	FRANCISCO GONZALEZ DE CHAVES  610.28.79.97	S	Dec 30 2008  2:07:38:076PM	S	N
0000005210	T000000013	 TE MANDO POR MAIL ALGO QUE TENIA PENDIENTE DE UNA RENUNCIA	0000001018	C	Jan  2 2009  9:10:47:536AM	FELIX EXPOSITO  922.32.69.18	S	Jan  2 2009  9:30:43:046AM	S	N
0000005211	0000001023		0000001014	C	Jan  5 2009 10:03:56:800AM	2009-00032	S	Jan  5 2009 10:37:21:186AM	S	N
0000005213	T000000003	ladjsfkljalñkfjawoñiejro	0000001010	C	Jan  8 2009  8:55:31:176AM	PRUEBAS	S	Jan  8 2009  9:18:51:406AM	S	N
0000005214	0000001010	pasatelo como una loca	T000000003	C	Jan  8 2009  9:19:36:406AM	TE VAS A PARIS	S	Jan  8 2009  9:01:10:766AM	N	S
0000005215	0000001023		T000000009	C	Jan  8 2009 10:00:43:406AM	MODIFICADO REF. 2009-00081	S	Jan  8 2009 10:11:00:953AM	S	N
0000005216	T000000013		T000000009	C	Jan  8 2009 10:00:43:406AM	MODIFICADO REF. 2009-00081	S	Jan  8 2009 10:30:06:670AM	S	N
0000005217	0000001023		T000000009	C	Jan  8 2009 10:20:17:906AM	VISARED 2009-00083	S	Jan  8 2009 10:31:45:906AM	S	N
0000005218	T000000013		T000000009	C	Jan  8 2009 10:20:17:906AM	VISARED 2009-00083	S	Jan  8 2009 10:30:43:733AM	S	N
0000005219	T000000013		T000000009	C	Jan  9 2009 11:41:51:326AM	VISARED 2009-00120	S	Jan  9 2009 11:50:11:953AM	S	N
0000005220	T000000013		T000000009	C	Jan  9 2009 12:27:35:563PM	SUBSANADO 2009-00120 CTE	S	Jan  9 2009 12:43:32:126PM	S	N
0000005221	0000001012	Dº ALFREDO MORENO
COLEGIADO 510
TLF: 618-961-553
10:45	0000001014	C	Jan 12 2009 10:46:15:603AM	CENTRALITA	N		S	N
0000005222	T000000006	Dº ALFREDO MORENO
COLEGIADO 510
TLF: 618-961-553
10:45	0000001014	C	Jan 12 2009 10:46:15:603AM	CENTRALITA	S	Jan 13 2009 12:10:28:906PM	S	N
0000005223	T000000013		T000000009	C	Jan 12 2009 10:58:32:030AM	SUBSANACION REF. 2009-00120	S	Jan 12 2009 11:13:41:063AM	S	N
0000005224	0000001023		T000000009	C	Jan 13 2009  8:41:32:093AM	VISARED 2009-00153	S	Jan 13 2009  9:14:37:640AM	S	N
0000005225	T000000013		T000000009	C	Jan 13 2009  8:41:32:093AM	VISARED 2009-00153	S	Jan 13 2009  9:08:45:266AM	S	N
0000005226	0000001023		T000000009	C	Jan 14 2009  8:14:07:326AM	VISARD 2009-00183 MODIFICA A AREF.  REF. 2008-10467	S	Jan 14 2009  8:34:09:843AM	S	N
0000005227	T000000013		T000000009	C	Jan 14 2009  8:14:07:326AM	VISARD 2009-00183 MODIFICA A AREF.  REF. 2008-10467	S	Jan 14 2009  9:05:46:890AM	S	N
0000005229	T000000006	Dº Jesús del Castillo
TLF: 629-502-228
11:12	0000001014	C	Jan 14 2009 11:12:51:513AM	CENTRALITA	S	Jan 21 2009 10:00:13:390AM	S	N
0000005232	0000001011		0000001018	C	Jan 16 2009  1:28:24:966PM	LA COLEGIADA 03292 ELISA TOBAR NO TIENE NADA	S	Jan 16 2009  1:56:15:363PM	S	N
0000005233	0000001023		0000001014	C	Jan 19 2009  8:44:27:956AM	2009-00271	S	Jan 19 2009  9:19:43:420AM	S	N
0000005234	T000000013		0000001014	C	Jan 19 2009  8:44:27:956AM	2009-00271	S	Jan 19 2009  9:16:54:436AM	S	N
0000005235	0000001023		0000001014	C	Jan 19 2009  8:52:22:156AM	2009-00272	S	Jan 19 2009  9:19:46:860AM	S	N
0000005236	T000000013		0000001014	C	Jan 19 2009  8:52:22:156AM	2009-00272	S	Jan 19 2009  9:16:58:076AM	S	N
0000005237	0000001023		0000001014	C	Jan 19 2009  8:56:54:226AM	2009-00274	S	Jan 19 2009  9:19:49:500AM	S	N
0000005238	T000000013		0000001014	C	Jan 19 2009  8:56:54:226AM	2009-00274	S	Jan 19 2009  9:24:12:030AM	S	N
0000005239	0000001023		0000001018	C	Jan 19 2009  9:36:23:206AM	ALFREDO MARTINEZ SGS  922.23.55.66 EXTENSION 2	S	Jan 19 2009  9:38:04:640AM	S	N
0000005240	0000001023		0000001018	C	Jan 19 2009 11:52:49:206AM	ESTRELLA SANTANA 629.255.159	S	Jan 19 2009 12:26:17:826PM	S	N
0000005241	0000001023		0000001018	C	Jan 19 2009 12:30:27:973PM	FCO. MONTAÑES 670.63.32.54	S	Jan 19 2009 12:30:38:843PM	S	N
0000005242	0000001023		0000001018	C	Jan 20 2009 11:36:00:920AM	NORBERTO 967  922.29.65.68	S	Jan 20 2009 11:59:56:000AM	S	N
0000005243	0000001023		0000001018	C	Jan 20 2009 11:42:54:856AM	FCO. MONTAÑES COL. 02437   670.63.32.54	S	Jan 20 2009 11:52:02:250AM	S	N
0000005244	T000000006		0000001018	C	Jan 21 2009  9:51:25:363AM	SILVIA DE PONTEVEDRA  646.27.57.13	S	Jan 21 2009 10:00:45:000AM	S	N
0000005231	T000000006	Dº Jesús del Castillo 
11:47	0000001014	C	Jan 14 2009 11:47:53:946AM	CENTRALITA	S	Jan 21 2009 10:00:19:376AM	S	N
0000005245	0000001023		0000001018	C	Jan 21 2009 12:26:20:056PM	YASMINA   922.61.88.70	S	Jan 21 2009 12:41:22:326PM	S	N
0000005246	T000000006		0000001018	C	Jan 21 2009 12:40:41:346PM	LLAMADA DE JOSE ROCHA, DICE QUE PASARA HOY POR EL COLEGIO	S	Jan 21 2009 12:43:51:626PM	S	N
0000005247	0000001023		0000001018	C	Jan 21 2009 12:59:38:670PM	JESUS CASTRO 3278  922.51.30.61	S	Jan 21 2009  1:23:59:953PM	S	N
0000005248	0000001023		0000001018	C	Jan 22 2009  9:16:35:053AM	MIGUEL A.NERIS 2576  628.275.876	S	Jan 22 2009  9:23:54:813AM	S	N
0000005249	T000000013		0000001018	C	Jan 22 2009  9:29:47:823AM	FCO. RODRIGUEZ  1921  670.349.390	S	Jan 22 2009  9:40:04:126AM	S	N
0000005250	T000000013		0000001018	C	Jan 22 2009 10:15:41:210AM	LUIS MIGUEL MARTIN  2154   922.22.84.45	S	Jan 22 2009 10:36:04:516AM	S	N
0000005251	0000001011		0000001018	C	Jan 22 2009  1:26:01:773PM	MARI  2702  610.38.70.84	S	Jan 22 2009  1:54:02:446PM	S	N
0000005252	0000001023		T000000009	C	Jan 22 2009  2:04:53:216PM	VISARED 2009-00439	S	Jan 23 2009  7:59:45:983AM	S	N
0000005253	T000000013		T000000009	C	Jan 22 2009  2:04:53:216PM	VISARED 2009-00439	S	Jan 23 2009 10:32:04:716AM	S	N
0000005254	0000001023		T000000009	C	Jan 22 2009  2:11:04:110PM	VISARED 2009-00440	S	Jan 23 2009  7:59:48:920AM	S	N
0000005255	T000000013		T000000009	C	Jan 22 2009  2:11:04:110PM	VISARED 2009-00440	S	Jan 23 2009 10:32:07:626AM	S	N
0000005256	T000000013		0000001018	C	Jan 23 2009  8:58:54:426AM	ANA RUÍZ  2931  690.86.29.19	S	Jan 23 2009 10:32:10:030AM	S	N
0000005257	0000001011		0000001018	C	Jan 23 2009  9:15:43:950AM	LUIS NOBREGA  687.583.871	S	Jan 23 2009  9:20:27:516AM	S	N
0000005258	T000000011	elisajim@telefonica.net	0000001018	C	Jan 23 2009  9:44:26:893AM	ELISA JIMENEZ 1933   619.59.15.81	S	Jan 23 2009 12:16:49:093PM	S	N
0000005259	T000000013		0000001018	C	Jan 23 2009 10:21:44:876AM	FCO. GOMEZ 2243  922.53.12.07	S	Jan 23 2009 10:32:12:750AM	S	N
0000005260	0000001023		0000001018	C	Jan 23 2009 10:35:18:503AM	CRISTO MANUEL  2867  670.63.45.02	S	Jan 23 2009 10:51:31:110AM	S	N
0000005262	T000000003		0000001018	C	Jan 23 2009 11:28:20:596AM	IGNACIO DELGADO  922.57.18.03 POR FAVOR LLAMA DESDE QUE PUED	S	Jan 23 2009  1:56:34:360PM	S	N
0000005263	T000000013		0000001018	C	Jan 23 2009 11:33:34:596AM	GONZALO SABINA  685.621.228	S	Jan 23 2009 12:20:53:076PM	S	N
0000005264	0000001023		0000001018	C	Jan 23 2009 11:44:58:190AM	CARLOS CHINEA   2203 670.335.339	S	Jan 23 2009 12:14:25:216PM	S	N
0000005265	T000000006	POR FAVOR LLAMAR A GONZALO SABINA AL 685-621-228	0000001010	C	Jan 23 2009 11:48:05:136AM	CENTRALITA	S	Jan 27 2009  9:18:54:216AM	S	N
0000005266	T000000003	2009-00228 =  81409	T000000009	C	Jan 23 2009 12:04:35:983PM	VDO. COAC	S	Jan 23 2009  2:01:49:420PM	S	N
0000005268	T000000013		0000001018	C	Jan 23 2009 12:42:07:796PM	LLAMADA DE GONZALO SABINA DE NUEVO DEVOLVER CUANDO PUEDAS	S	Jan 23 2009  1:13:08:326PM	S	N
0000005269	T000000003	2008-10643 = 81368 SOLO BORRAR DE LISTA YA ESTA PARA VISADOS	T000000009	C	Jan 23 2009 12:45:42:656PM	VDO.  COAC	S	Jan 23 2009  1:56:19:140PM	S	N
0000005270	0000001011	COMPROBAR PAGOS DEL PREMAAT Y VER SI TIENE ALGO PENDIENTE	0000001018	C	Jan 23 2009 12:56:34:343PM	VICTOR BENCOMO  2071  647.329.887	S	Jan 23 2009  1:06:05:480PM	S	N
0000005271	T000000013		0000001018	C	Jan 23 2009  1:01:17:900PM	ALFONSO BAUTE  709  609.111.529	S	Jan 23 2009  1:20:35:530PM	S	N
0000005272	T000000013		0000001018	C	Jan 23 2009  1:14:59:180PM	JESUS DEL CASTILLO  629.502.228	S	Jan 23 2009  1:21:20:076PM	S	N
0000005273	T000000006		0000001018	C	Jan 23 2009  1:14:59:180PM	JESUS DEL CASTILLO  629.502.228	S	Jan 27 2009  9:27:32:140AM	S	N
0000005274	0000001023		0000001018	C	Jan 26 2009  9:00:35:406AM	JOSE JUAN MARIN  658.02.12.13	S	Jan 26 2009  9:33:26:780AM	S	N
0000005275	T000000006		0000001018	C	Jan 26 2009 10:12:26:960AM	LLAMADA DE D. ALFREDO MORENO 618.961.553	S	Jan 27 2009  9:18:30:640AM	S	N
0000005276	T000000006		0000001018	C	Jan 26 2009 11:01:08:563AM	JOSE FRANCISCO DORTA 696.432.200  922.12.16.75	S	Jan 27 2009 10:06:48:326AM	S	N
0000005277	T000000013		0000001018	C	Jan 26 2009 11:46:56:263AM	CONCEPCION DÍAZ  697.54.63.53	S	Jan 26 2009 11:50:14:140AM	S	N
0000005278	0000001023		0000001018	C	Jan 26 2009 11:59:31:570AM	FRAN GLEZ. 1601  922.20.75.99	S	Jan 26 2009 12:07:18:466PM	S	N
0000005279	T000000006		0000001018	C	Jan 26 2009 12:33:01:090PM	HECTOR HERNANDEZ  922.28.90.76	S	Jan 27 2009  9:18:43:110AM	S	N
0000005280	0000001023		0000001018	C	Jan 26 2009  1:00:12:153PM	ALFREDO MARTINEZ  922.23.55.66   2008-09534	S	Jan 26 2009  1:18:17:516PM	S	N
0000005281	T000000013		0000001018	C	Jan 26 2009  1:12:29:626PM	PABLO LOPEZ 1095  650.57.27.01	S	Jan 26 2009  1:25:16:030PM	S	N
0000005282	T000000013		0000001018	C	Jan 26 2009  1:27:01:216PM	FELIX EXPOSITO 606.93.95.08	S	Jan 26 2009  1:33:04:313PM	S	N
0000005283	T000000006		0000001018	C	Jan 27 2009  9:31:14:293AM	ALFREDO MORENO 618.96.15.53	S	Jan 27 2009  9:52:01:656AM	S	N
0000005284	0000001023		0000001018	C	Jan 27 2009  9:47:29:503AM	FELIX EXPOSITO  606.939.508	S	Jan 27 2009  9:46:47:466AM	S	N
0000005285	T000000006		0000001018	C	Jan 27 2009  9:53:26:046AM	FCO. GONZ´ZLEZ DE CHAVES  922.28.79.96	S	Jan 27 2009  9:56:03:296AM	S	N
0000005286	T000000006		0000001018	C	Jan 27 2009  9:54:09:830AM	IGNACIO DELGADO 922.57.18.03	S	Jan 27 2009  9:55:09:203AM	S	N
0000005287	T000000013		0000001018	C	Jan 27 2009 10:08:51:096AM	SAMUEL GARCÍA 2800 699.635.702	S	Jan 27 2009 10:35:12:436AM	S	N
0000005288	T000000011		0000001018	C	Jan 27 2009 10:13:03:330AM	JESUS LORENZO  2220  658.847.299 DE GARACHICO	S	Jan 27 2009 10:50:01:593AM	S	N
0000005289	T000000006		0000001018	C	Jan 27 2009 11:03:32:446AM	BASILIO GOMEZ  669.87.43.99	S	Jan 27 2009 11:46:03:376AM	S	N
0000005290	0000001023		0000001018	C	Jan 27 2009 11:11:49:700AM	RAMON MENDEZ 398  922.24.38.52 EXST. 14	S	Jan 27 2009 12:43:07:030PM	S	N
0000005291	T000000006		0000001018	C	Jan 27 2009 11:23:59:820AM	FCO. DORTA 922.12.16.75  696.432.200	S	Jan 27 2009 12:02:54:500PM	S	N
0000005292	0000001023		0000001018	C	Jan 27 2009 11:25:49:536AM	JOSE JUÁN MARÍN 2286   658.02.12.13	S	Jan 28 2009  7:58:54:780AM	S	N
0000005293	T000000013		0000001018	C	Jan 27 2009 11:29:21:943AM	ANA MARTÍN 1992 639.91.30.84	S	Jan 27 2009 12:36:14:313PM	S	N
0000005294	0000001011		0000001018	C	Jan 27 2009 11:46:28:380AM	SANDRA MORALES 2643  922.56.74.29  RECIBO PENDIENTE	S	Jan 27 2009 11:46:52:966AM	S	N
0000005295	T000000006		0000001018	C	Jan 27 2009 12:09:18:010PM	LLAMADA DE JOSE DORTA DE NUEVO	S	Jan 27 2009 12:03:04:920PM	S	N
0000005296	0000001023		0000001018	C	Jan 27 2009 12:20:22:816PM	FELIX  606.93.95.08	S	Jan 27 2009 12:43:11:483PM	S	N
0000005297	T000000013		0000001018	C	Jan 27 2009 12:36:58:336PM	CARLOS DOMINGUEZ  922.73.15.04	S	Jan 27 2009 12:49:49:326PM	S	N
0000005299	0000001023		0000001018	C	Jan 27 2009 12:45:53:236PM	JUAN C. AFONSO MENDOZA 1031  670.826.676	S	Jan 27 2009 12:43:21:826PM	S	N
0000005301	0000001023		0000001018	C	Jan 27 2009 12:58:01:503PM	CLAUDIO 922.213.000	S	Jan 28 2009  7:58:57:843AM	S	N
0000005302	0000001023		T000000009	C	Jan 27 2009  1:13:41:140PM	VISARED 2009-00539	S	Jan 27 2009  1:29:03:406PM	S	N
0000005303	T000000013		T000000009	C	Jan 27 2009  1:13:41:140PM	VISARED 2009-00539	S	Jan 27 2009  1:30:12:280PM	S	N
0000005304	0000001020		0000001018	C	Jan 27 2009  1:22:50:893PM	JESUS DEL CASTILLO 629.502.228	N		S	N
0000005305	0000001023		T000000009	C	Jan 27 2009  1:18:42:983PM	VISARED 2009-00540	S	Jan 27 2009  1:29:10:483PM	S	N
0000005306	T000000013		T000000009	C	Jan 27 2009  1:18:42:983PM	VISARED 2009-00540	S	Jan 27 2009  1:41:39:546PM	S	N
0000005307	T000000013		0000001018	C	Jan 27 2009  1:25:34:470PM	JOSE SIVERIO 625.192.381	S	Jan 27 2009  1:41:44:453PM	S	N
0000005308	T000000006		0000001018	C	Jan 27 2009  1:27:37:976PM	LLAMADA DE NUEVO DE FCO. GONZÁLEZ CHAVEZ	S	Jan 27 2009  1:32:49:466PM	S	N
0000005309	0000001023		T000000009	C	Jan 27 2009  1:49:20:313PM	VISARED 2009-00541 Y 2009-00543	S	Jan 27 2009  2:25:48:796PM	S	N
0000005310	T000000013		T000000009	C	Jan 27 2009  1:49:20:313PM	VISARED 2009-00541 Y 2009-00543	S	Jan 28 2009  8:08:50:890AM	S	N
0000005311	0000001022		T000000009	C	Jan 27 2009  2:30:57:610PM	PRUEBA	S	Jan 27 2009  2:37:01:203PM	S	N
0000005313	T000000004		0000001018	C	Jan 28 2009  9:33:47:016AM	LLAMADA DE JUAN ANTONIO PÉREZ MEZQUITA 607.18.06.26	S	Jan 28 2009 11:10:12:466AM	S	N
0000005314	0000001023		0000001018	C	Jan 28 2009  9:46:32:396AM	CLAUDIO MÜLLER  922.213.000	S	Jan 28 2009 10:00:23:516AM	S	N
0000005315	T000000006		0000001018	C	Jan 28 2009  9:58:32:893AM	LLAMADA DE OSCAR PERESTELO	S	Jan 28 2009 10:02:58:563AM	S	N
0000005316	T000000006		0000001018	C	Jan 28 2009 10:17:53:660AM	ISABEL NICHALDAS  609.71.05.81	S	Jan 28 2009 10:18:20:920AM	S	N
0000005317	T000000006		0000001018	C	Jan 28 2009 11:14:05:930AM	JAVIER TEJERO  650.974.633	S	Jan 28 2009  1:33:14:233PM	S	N
0000005318	T000000013		0000001018	C	Jan 28 2009 11:48:17:460AM	GABRIEL  2042  922.03.23	S	Jan 28 2009  1:12:39:250PM	S	N
0000005319	T000000006		0000001018	C	Jan 28 2009 11:57:17:956AM	OMAR JURADO 3195 LA PALMA  606.24.77.84	S	Jan 28 2009  1:44:10:186PM	S	N
0000005320	T000000013		0000001018	C	Jan 28 2009 11:57:58:376AM	GABRIEL 2042  620.250.323	S	Jan 28 2009  1:12:42:626PM	S	N
0000005321	0000001023	INFORMACION SOBRE PRESCRIPCIONES DE AYUNTAMIENTOS	0000001018	C	Jan 28 2009 12:04:48:826PM	JAVIER RGUEZ. 1303  630.01.83.43	S	Jan 28 2009 12:18:27:343PM	S	N
0000005322	0000001011		0000001018	C	Jan 28 2009 12:07:55:613PM	RAMON 334 630.98.24.73	S	Jan 28 2009 12:04:56:406PM	S	N
0000005323	T000000006	COLEGIADO JAVIER TEJERO 650,974,633	0000001018	C	Jan 28 2009 12:26:08:256PM	CENTRALITA	S	Jan 28 2009  1:48:06:780PM	S	N
0000005325	0000001023		0000001018	C	Jan 28 2009 12:52:40:636PM	EVA CORDERO 662.140.580	S	Jan 28 2009  1:17:26:640PM	S	N
0000005326	0000001023	QUIERE ARREGLAR EL P.E.M DE 3 EXPEDIENTES DE UNA OBRA, DICE QUE LE LLAMES SOBRE LAS 13:50 POR FAVOR.	0000001018	C	Jan 28 2009  1:00:12:193PM	CARLOS CHINEA  2203  670.335.339  QUIERE ARREGLAR EXPS.	S	Jan 28 2009  1:17:17:126PM	S	N
0000005327	T000000006	DICE QUE LA LLAMES HOY POR FAVOR	0000001018	C	Jan 28 2009  1:02:48:980PM	AUSI  922.58.23.34	S	Jan 28 2009  2:02:07:500PM	S	N
0000005328	T000000006		0000001018	C	Jan 28 2009  1:12:41:130PM	OSCAR PEREZ GOMEZ 616.95.31.07 LA PALMA	S	Jan 28 2009  1:49:21:076PM	S	N
0000005329	T000000011		0000001018	C	Jan 28 2009  1:21:17:023PM	JOSE LUIS REGALADO  534  600.54.55.50	S	Jan 28 2009  1:53:26:390PM	S	N
0000005330	0000001023		T000000009	C	Jan 29 2009  9:51:18:233AM	VISARED 2008-00581	S	Jan 29 2009  9:58:19:000AM	S	N
0000005331	T000000013		T000000009	C	Jan 29 2009  9:51:18:233AM	VISARED 2008-00581	S	Jan 29 2009 10:44:24:843AM	S	N
0000005332	0000001011		0000001018	C	Jan 29 2009 10:08:33:083AM	AGUSTIN GARCIA  384   922.38.45.61 NO LE HAN PAGADO LA PENSI	S	Jan 29 2009 10:03:09:073AM	S	N
0000005334	0000001018		0000001011	C	Jan 29 2009 10:04:55:880AM	AGUSTIN GARCIA  384   922.38.45.61 NO LE HAN PAGADO LA PENSI	S	Jan 29 2009 10:36:59:246AM	N	N
0000005335	0000001011		0000001018	C	Jan 29 2009 10:22:02:716AM	BENITO DGUEZ. MARTIN 659.11.93.46	S	Jan 29 2009 10:17:04:050AM	S	N
0000005337	T000000006		0000001018	C	Jan 29 2009 10:32:47:063AM	PEDRO NEGRÍN 1281  922.14.14.00	S	Jan 29 2009  2:35:17:966PM	S	N
0000005340	T000000011		0000001018	C	Jan 29 2009 11:33:48:720AM	NORBERTO DÍAZ  922.29.65.68	S	Jan 29 2009 12:19:08:670PM	S	N
0000005341	T000000004	 ADMINISTRADOR DE LA COMUNIDAD DEL EDIFICIO.	0000001018	C	Jan 29 2009 12:08:01:250PM	JESUS OLIVA   922.21.36.88	S	Jan 29 2009 12:38:20:500PM	S	N
0000005342	T000000013		0000001018	C	Jan 29 2009 12:21:29:573PM	JUAN CRISTOBAL PEREZ HERNANDEZ  2673  657.812.933	S	Jan 30 2009 10:11:00:733AM	S	N
0000005343	T000000006	DICE QUE SI LO PUEDES LLAMAR URGENTE.	0000001018	C	Jan 29 2009 12:34:51:186PM	PEDRO CARBALLO 627,551,969	S	Jan 29 2009  2:41:20:610PM	S	N
0000005344	T000000006	RESPUESTA AL ACTA	0000001018	C	Jan 29 2009 12:38:59:673PM	JESUS DEL CASTILLO  629.502.228	S	Jan 30 2009  9:49:04:686AM	S	N
0000005345	0000001023		0000001018	C	Jan 29 2009  1:14:28:423PM	CARLOS CHINEA  628.015.017	S	Jan 30 2009  8:22:27:296AM	S	N
0000005346	T000000013		0000001018	C	Jan 29 2009  1:15:02:573PM	MANUEL MARTINEZ 696.449.769	S	Jan 30 2009 10:12:33:860AM	S	N
0000005347	0000001023		0000001018	C	Jan 29 2009  1:17:22:493PM	ESTHER PROYECTO SIMEON  922.688.958	S	Jan 30 2009  8:22:32:576AM	S	N
0000005348	T000000013		0000001018	C	Jan 29 2009  1:20:30:033PM	CARLOS DOMINGUEZ  DEL TORO  922.73.15.04	S	Jan 30 2009 10:13:18:466AM	S	N
0000005349	0000001023		0000001018	C	Jan 29 2009  1:37:18:693PM	NATALIA  2158   626.200.305	S	Jan 29 2009  2:05:04:750PM	S	N
0000005350	0000001023		T000000009	C	Jan 30 2009  8:47:39:780AM	VISARED 2009-00640	S	Jan 30 2009  9:23:03:733AM	S	N
0000005351	T000000013		T000000009	C	Jan 30 2009  8:47:39:780AM	VISARED 2009-00640	S	Jan 30 2009 10:13:22:076AM	S	N
0000005352	T000000013		0000001018	C	Jan 30 2009  9:09:04:410AM	JAVIER RGUEZ   1303 630.01.83.43	S	Jan 30 2009 10:13:26:343AM	S	N
0000005353	T000000006		0000001018	C	Jan 30 2009  9:41:26:563AM	JOSE MANUEL TABOADA 607.84.22.20	S	Jan 30 2009  9:50:04:170AM	S	N
0000005355	T000000006		0000001018	C	Jan 30 2009 10:08:59:110AM	JESUS DEL CASTILLO 629.502.228	S	Jan 30 2009 12:28:22:703PM	S	N
0000005356	T000000006		0000001018	C	Jan 30 2009 11:06:24:133AM	PEDRO LINARES 01809  607.276.607	S	Jan 30 2009 12:33:47:093PM	S	N
0000005357	T000000013		0000001018	C	Jan 30 2009 11:19:43:293AM	MARIO MESA 962  619.163.143	S	Jan 30 2009 12:32:14:890PM	S	N
0000005358	T000000013		0000001018	C	Jan 30 2009 11:26:57:956AM	ALBERTO AGUIAR  ARQUITECTO 619.28.70.46	S	Jan 30 2009 12:39:51:360PM	S	N
0000005359	T000000006		0000001018	C	Jan 30 2009 11:48:37:386AM	JESUS DEL CASTILLO VOLVIO A LLAMAR	S	Jan 30 2009 12:28:27:390PM	S	N
0000005360	0000001023		0000001018	C	Jan 30 2009 11:56:56:043AM	ESTHER CABRERA PROYECTOS SIMEON 1708  922.688.958	S	Jan 30 2009 12:04:41:593PM	S	N
0000005361	T000000013		0000001018	C	Jan 30 2009 12:27:42:286PM	RAFAEL HERNANDEZ  616.311.445	S	Jan 30 2009 12:35:59:750PM	S	N
0000005362	0000001023		0000001018	C	Jan 30 2009 12:55:39:426PM	ARTURO VEGA  1611  622.288.704	S	Jan 30 2009  1:44:08:076PM	S	N
0000005365	0000001023		0000001018	C	Jan 30 2009  1:15:50:240PM	LUCIANO 2187  669.026.129	S	Jan 30 2009  1:44:13:016PM	S	N
0000005366	T000000013		0000001018	C	Jan 30 2009  1:19:50:043PM	ALBERTO AGUIAR 619.28.70.46  ARQUITECTO	S	Jan 30 2009  1:35:09:046PM	S	N
0000005367	0000001023		T000000009	C	Feb  3 2009  9:15:19:716AM	VISARED 2009-00685	S	Feb  3 2009  9:24:37:733AM	S	N
0000005368	T000000013		T000000009	C	Feb  3 2009  9:15:19:716AM	VISARED 2009-00685	S	Feb  3 2009  9:37:45:563AM	S	N
0000005369	0000001023		T000000009	C	Feb  3 2009  9:25:32:733AM	VISARED 2009-00687	S	Feb  3 2009  9:29:54:313AM	S	N
0000005370	T000000013		T000000009	C	Feb  3 2009  9:25:32:733AM	VISARED 2009-00687	S	Feb  3 2009  9:37:50:406AM	S	N
0000005371	0000001023		T000000009	C	Feb  3 2009  9:33:15:860AM	VISARED 2009-00688	S	Feb  3 2009  9:39:01:610AM	S	N
0000005372	T000000013		T000000009	C	Feb  3 2009  9:33:15:860AM	VISARED 2009-00688	S	Feb  3 2009  9:42:46:326AM	S	N
0000005374	0000001023		T000000009	C	Feb  3 2009  9:40:42:750AM	VISARED 2009-00689	S	Feb  3 2009 10:36:38:046AM	S	N
0000005375	T000000013		T000000009	C	Feb  3 2009  9:40:42:750AM	VISARED 2009-00689	S	Feb  3 2009  9:54:39:843AM	S	N
0000005376	0000001023		T000000009	C	Feb  3 2009  9:51:19:016AM	VISARED 2009-00690	S	Feb  3 2009 10:36:41:703AM	S	N
0000005377	T000000013		T000000009	C	Feb  3 2009  9:51:19:016AM	VISARED 2009-00690	S	Feb  3 2009 10:03:42:233AM	S	N
0000005378	T000000006	ORLANDO RODRIGUEZ COLEGIADO DE LA PALMA 696,835,218	0000001010	C	Feb  3 2009 10:27:03:356AM	CENTRALITA	S	Feb  3 2009  1:23:24:420PM	S	N
0000005379	0000001023		0000001014	C	Feb  4 2009  9:38:00:756AM	2009-00732	S	Feb  4 2009 10:11:21:000AM	N	N
0000005380	T000000013		0000001014	C	Feb  4 2009  9:38:00:756AM	2009-00732	S	Feb  4 2009 10:11:06:016AM	N	N
0000005381	0000001023		0000001010	C	Feb  4 2009 11:33:17:153AM	FCO. MONTAÑES 2437  670.63.32.54	S	Feb  4 2009 12:09:57:063PM	S	N
0000005382	0000001011	MARI CARMEN ARMAS 617.804.508	0000001010	C	Feb  4 2009 11:56:50:276AM	CENTRALITA	S	Feb  4 2009 11:57:45:306AM	S	N
0000005383	0000001011	ANA MARTIN 922615040	0000001010	C	Feb  4 2009 12:30:36:276PM	CENTRALITA	S	Feb  4 2009 12:25:57:420PM	S	N
0000005384	0000001011	CARINA PADRON QUIERE DARSE DE BAJA DE PREMAAT Y QUIERE SABER CUANTO TIEMPO PUEDE ESTAR DE BAJA SIN QUE PIERDA NINGUN DERECHO TELEFONO 607.911.169	0000001010	C	Feb  4 2009  1:35:01:516PM	CENTRALITA	S	Feb  4 2009  1:50:11:596PM	S	N
0000005385	0000001023	FRANCISCO COLEGIADO 1991, TELEFONO 679,981,345

OTRO COLEGIADO JUAN CARLOS, EN RELACION PARA EL EXPEDIENTE 247/09 TELEFONO 628,019,024	0000001010	C	Feb  5 2009 11:05:57:220AM	CENTRALITA	S	Feb  5 2009 11:33:09:610AM	S	N
0000005386	0000001020		T000000009	C	Feb  5 2009  2:13:27:140PM	RESC. VISARED 2009-00788	N		S	N
0000005387	0000001022		T000000009	C	Feb  5 2009  2:32:46:126PM	VISARED 2009-00789	S	Feb  5 2009  2:38:03:076PM	S	N
0000005389	0000001023		0000001014	C	Feb  6 2009  9:38:44:570AM	2009-00790, SE ANULA EL EXPEDIENTE ANTERIOR	S	Feb  6 2009 10:13:11:296AM	N	N
0000005390	0000001023		0000001010	C	Feb  6 2009 12:21:50:506PM	FCO. MONTAÑES DICE QUE LO VUELVAS A LLAMAR POR FAVOR	S	Feb  6 2009 12:35:37:920PM	S	N
0000005391	0000001023		T000000009	C	Feb  9 2009  9:08:44:733AM	VISARED 2009-00838	S	Feb  9 2009  9:21:42:360AM	S	N
0000005393	0000001023		T000000009	C	Feb  9 2009  9:14:49:983AM	VISARED 2009-00839	S	Feb  9 2009  9:21:46:233AM	S	N
0000005394	T000000013		T000000009	C	Feb  9 2009  9:14:49:983AM	VISARED 2009-00839	S	Feb 16 2009  8:35:50:076AM	S	N
0000005395	0000001023		0000001014	C	Feb  9 2009 12:08:29:430PM	FCO. GOMEZ  1906   620.26.30.34	S	Feb  9 2009  2:02:00:670PM	N	N
0000005396	T000000006		0000001014	C	Feb  9 2009 12:13:40:940PM	ALBERTO COLZ  691.480.520	S	Feb  9 2009  1:40:54:360PM	N	N
0000005397	0000001023		0000001014	C	Feb  9 2009 12:23:35:233PM	FERNANDO ARROYO  669.44.61.19	S	Feb 10 2009  9:21:05:076AM	N	N
0000005398	T000000006		0000001014	C	Feb 10 2009 10:31:51:443AM	OMAR JURADO 3195  606.24.77.84	S	Feb 10 2009  1:06:06:826PM	N	N
0000005399	0000001023	PARA CONSULTA	0000001014	C	Feb 10 2009 10:46:26:453AM	LUIS GLEZ. CLAVIJO  649.97.95.38	S	Feb 10 2009 10:50:26:360AM	N	N
0000005400	0000001023		0000001014	C	Feb 10 2009 11:08:12:440AM	CRISTINA POLEGRE  677.60.39.76	S	Feb 10 2009 11:32:35:750AM	S	N
0000005401	0000001023		0000001014	C	Feb 10 2009 11:22:27:560AM	JULIO ALBERTO  607.56.53.73	S	Feb 10 2009 11:36:02:453AM	N	N
0000005402	0000001023		0000001014	C	Feb 10 2009 11:47:18:263AM	ANA Mª 2806   665.768.815	S	Feb 11 2009  9:53:15:313AM	N	N
0000005403	0000001023		0000001014	C	Feb 10 2009 12:21:48:070PM	HECTOR GLEZ. 2055  672.46.11.39	S	Feb 11 2009 12:12:06:203PM	N	N
0000005336	T000000012		0000001018	C	Jan 29 2009 10:24:18:833AM	FCO. PEREZ 650.229.389 POR EL TEMA DE FUERTEVENTURA.	S	Feb 10 2009 12:25:42:750PM	S	N
0000005405	T000000006		0000001014	C	Feb 10 2009 12:38:34:376PM	SONIA AMIGA DE IGOR GLEZ.  648.183.440	S	Feb 10 2009 12:58:45:686PM	N	N
0000005406	0000001011		0000001014	C	Feb 10 2009 12:45:08:983PM	BEATRIZ 922.62.90.19	S	Feb 10 2009  1:00:02:250PM	N	N
0000005407	0000001023		0000001014	C	Feb 10 2009 12:54:47:736PM	ALFREDO MORA 1696667.756.198	S	Feb 11 2009 12:05:18:733PM	N	N
0000005408	0000001023		T000000009	C	Feb 10 2009  2:29:19:140PM	VISARED REF. 2009-00788 Y 2009-00789	S	Feb 11 2009  8:12:05:216AM	S	N
0000005409	0000001023		T000000009	C	Feb 11 2009  9:18:44:826AM	VISARED 2009-00902	S	Feb 11 2009  9:35:34:766AM	S	N
0000005410	0000001023		T000000009	C	Feb 11 2009  9:22:10:766AM	VISARED 2009-00903	S	Feb 11 2009  9:35:37:656AM	S	N
0000005411	0000001023		T000000009	C	Feb 11 2009  9:38:26:266AM	SUBSANADO 2009-00838 Y ADJUNTA 2009-00904	S	Feb 11 2009 10:06:01:280AM	S	N
0000005412	T000000006	Dº HECTOR HERNANDEZ
COLEG. 3310
TLF: 922-28-90-76	0000001014	C	Feb 11 2009 11:22:24:300AM	CENTRALITA	S	Feb 11 2009 12:39:15:670PM	N	N
0000005413	T000000006	Dº RICARDO PALOMARES
COL. 520
TLF. 658-999-444	0000001014	C	Feb 11 2009 12:02:04:510PM	CENTRALITA	S	Feb 11 2009 12:39:59:610PM	N	N
0000005415	T000000007	 TFO. 629547399	T000000003	C	Feb 12 2009 11:32:35:986AM	LLAMAR A LA COLEGIADA ELISA Nº 2515	S	Feb 16 2009 11:11:50:483AM	N	N
0000005416	0000001023	HOLA ANITA. EVA (COLEGIADA) QUE POR FAVOR LA LLAMES.
GRACIAS	0000001022	C	Feb 12 2009  1:36:07:696PM	LLAMA A EVA	S	Feb 13 2009  8:41:34:876AM	N	N
0000005417	0000001023		T000000009	C	Feb 12 2009  2:35:56:140PM	VISARED 2009-00960	S	Feb 13 2009  8:41:40:640AM	S	N
0000005418	T000000006	ME COMENTÓ QUE TE MANDO UN FAX.	0000001014	C	Feb 13 2009  9:18:54:770AM	 JOSE EULOGIO BORGES 922.32.61.37	S	Feb 13 2009  9:12:08:516AM	N	N
0000005419	T000000006	922.24.98.83	0000001014	C	Feb 13 2009  9:43:41:736AM	EDUARDO BALLESTEROS DEL DESPACHO DE ANGEL LUIS GUIMERA	S	Feb 13 2009 10:31:14:826AM	N	N
0000005420	T000000009		0000001014	C	Feb 13 2009  9:53:59:666AM	ANA Mª SOCAS 665.768.815	S	Feb 13 2009 10:08:35:953AM	N	S
0000005421	T000000006		0000001014	C	Feb 13 2009  9:56:39:276AM	HECTOR BENCOMO 2071  647.329.887	S	Feb 13 2009 10:35:48:313AM	N	N
0000005422	0000001023		0000001018	C	Feb 13 2009 10:33:01:193AM	CRISTINA POLEGRE  677.60.39.76	S	Feb 13 2009 11:16:43:670AM	S	N
0000005423	0000001023		0000001018	C	Feb 13 2009 10:38:09:686AM	ANA 02807  696.987.262	S	Feb 13 2009 10:36:49:280AM	S	N
0000005424	0000001023		0000001018	C	Feb 13 2009 10:46:24:310AM	JORGE FUMERO  02677  620.978.924	S	Feb 13 2009  1:35:05:296PM	S	N
0000005426	0000001023	EXP. QUE ESTABA PENDIENTE DEL ARCHIVO	0000001018	C	Feb 13 2009 11:17:16:183AM	JUAN FCO. GLEZ. ORIHUELA 00747  922.6234.61	S	Feb 13 2009  1:39:19:546PM	S	N
0000005427	0000001023		0000001018	C	Feb 13 2009 11:37:26:683AM	PEDRO MERIDA  606.01.75.07	S	Feb 13 2009 12:07:31:686PM	S	N
0000005428	0000001023		T000000009	C	Feb 13 2009 11:45:59:626AM	VISARED 2009-00984 SUBSANACION REF. 2009-00960	S	Feb 13 2009  1:02:15:500PM	S	N
0000005429	0000001023		T000000009	C	Feb 13 2009 11:50:39:406AM	VISARED 2009-00993	S	Feb 13 2009  1:35:00:046PM	S	N
0000005430	0000001023		T000000009	C	Feb 13 2009 11:54:24:233AM	VISARED 2009-00994	S	Feb 13 2009  1:34:57:233PM	S	N
0000005431	T000000006		0000001018	C	Feb 13 2009 12:44:02:506PM	PEDRO DENIZ  922.20.22.96	S	Feb 13 2009 12:41:41:733PM	S	N
0000005432	T000000006		0000001018	C	Feb 13 2009  1:09:18:806PM	ALICIA DEPARTE DE VICENTE PACHECO  922.59.27.06	S	Feb 13 2009  1:06:56:376PM	S	N
0000005425	0000001023		0000001018	C	Feb 13 2009 11:04:43:820AM	RAMIRO LAVIÑETA  659.90.53.27	S	Feb 13 2009  1:37:44:576PM	S	N
0000005392	T000000013		T000000009	C	Feb  9 2009  9:08:44:733AM	VISARED 2009-00838	S	Feb 16 2009  8:35:44:670AM	S	N
0000005434	0000001023		T000000009	C	Feb 16 2009  8:55:46:890AM	VISARED 2009-01014	S	Feb 16 2009  9:05:49:266AM	S	N
0000005435	T000000013		T000000009	C	Feb 16 2009  8:55:46:890AM	VISARED 2009-01014	S	Feb 16 2009  9:04:33:766AM	S	N
0000005436	0000001023		T000000009	C	Feb 16 2009  8:56:24:186AM	VISARED 2009-01014	S	Feb 16 2009  9:05:51:936AM	S	N
0000005437	T000000013		T000000009	C	Feb 16 2009  8:56:24:186AM	VISARED 2009-01014	S	Feb 16 2009  9:04:37:656AM	S	N
0000005438	0000001023		T000000009	C	Feb 16 2009  9:02:32:296AM	VISARED 2009-01015	S	Feb 16 2009  9:05:54:170AM	S	N
0000005439	T000000013		T000000009	C	Feb 16 2009  9:02:32:296AM	VISARED 2009-01015	S	Feb 16 2009  9:18:11:876AM	S	N
0000005440	T000000006		0000001018	C	Feb 16 2009 10:26:52:710AM	DAVID HDEZ. 2799   679.97.20.31	S	Feb 16 2009 10:49:18:126AM	S	N
0000005441	T000000013		0000001018	C	Feb 16 2009 10:28:02:943AM	FCO. HERNANDEZ GLEZ  1600   675.81.27.46	S	Feb 16 2009 11:01:08:390AM	S	N
0000005442	0000001023	659 64.12.71
QUIERE HABLAR DEL FINAL DE OBRA QUE ESTABA PENDIENTE DEL ARCHIVO PQ DICE QUE LA SEMANA PASADA TE ENVIÓ EL CONTRATO.	0000001018	C	Feb 16 2009 10:58:08:006AM	JUAN FCO. GLEZ ORIHUELA  747	S	Feb 16 2009 11:51:41:546AM	S	N
0000005443	T000000004	  HA LLAMADO EVA JIMENEZ EL DÍA 16/02/09, PARA QUE LE CONFIRMES LA ASISTENCIA A LA REUNION DE LA QUE ESTÁS INVITADA EL 26 DE FEBRERO.	T000000003	C	Feb 16 2009 11:24:26:280AM	PREMAAT	S	Feb 17 2009  9:15:48:733AM	N	N
0000005444	T000000006		0000001018	C	Feb 16 2009 11:09:04:410AM	DAVID HDEZ.  679.97.20.31	S	Feb 16 2009 12:38:19:890PM	S	N
0000005445	0000001011	 QUE POR FAVOR LE LLAMES , SU TELEFÓNO ES 619.046.973	T000000003	C	Feb 16 2009 11:26:05:780AM	COLEGIADO FERMIN GUTIERREZ	S	Feb 16 2009 11:07:30:253AM	N	N
0000005446	T000000004	 TELEFONO DE EV JIMENEZ 915.720.812	T000000003	C	Feb 16 2009 11:27:03:360AM	PREMAAT	S	Feb 17 2009 12:25:10:170PM	N	N
0000005447	0000001023	COMENTAR REPARO DE EXP.	0000001018	C	Feb 16 2009 11:39:37:586AM	PEDRO GUANCHE  784  922.812.105	S	Feb 16 2009 11:51:48:420AM	S	N
0000005448	T000000006	QUE LE LLAMES
922-20-22-96	0000001018	C	Feb 16 2009 12:12:34:450PM	LLAMADA PEDRO DENIZ	S	Feb 16 2009 12:39:12:093PM	S	N
0000005449	T000000013	EDU LLAMA A CARMEN MONFORTE QUE NO ENTIENDE LOS REPAROS.
REGISRO: 2009-00953
TFNO. 657912246	0000001018	C	Feb 16 2009 12:35:06:593PM	EXPDTE RETENIDO	S	Feb 16 2009 12:42:47:326PM	S	N
0000005450	T000000013		0000001018	C	Feb 16 2009 12:52:04:146PM	RAMON RIPADO 2782  687.928.616	S	Feb 16 2009 12:55:01:516PM	S	N
0000005452	T000000013		0000001018	C	Feb 16 2009  1:06:20:086PM	RAMON RIPADO  687.928.616 VOLVER A LLAMAR POR FAVOR	S	Feb 16 2009  1:10:09:670PM	S	N
0000005453	T000000006	ggddss@infonegocio.com	0000001018	C	Feb 16 2009  1:16:19:370PM	GUILLERMO DAVILA  619.09.83.19	S	Feb 16 2009  2:31:07:576PM	S	N
0000005454	T000000001		T000000009	C	Feb 16 2009  1:35:00:813PM	SUBSANADO 2009-01015	S	Feb 16 2009  2:00:44:466PM	S	N
0000005455	T000000013		T000000009	C	Feb 16 2009  1:35:00:813PM	SUBSANADO 2009-01015	S	Feb 16 2009  2:03:26:483PM	S	N
0000005456	T000000009	VETE AL CARAJO, YA ESTA HECHO	T000000001	C	Feb 16 2009  2:02:05:343PM	QUE TE VAYAS AL CARAJO	S	Feb 17 2009  7:46:39:686AM	N	S
0000005458	0000001023		T000000009	C	Feb 17 2009  9:01:23:516AM	SUBSANADO EXP. 2009-00472 REF. 2009-00960 Y 2009-00984	S	Feb 17 2009  9:23:56:640AM	S	N
0000005459	0000001023		T000000009	C	Feb 17 2009  9:05:41:110AM	VISARED 2009-01046	S	Feb 17 2009  9:23:59:953AM	S	N
0000005460	T000000013		T000000009	C	Feb 17 2009  9:05:41:110AM	VISARED 2009-01046	S	Feb 17 2009  9:25:59:280AM	S	N
0000005461	T000000006		0000001018	C	Feb 17 2009 10:06:50:483AM	COL. LA PALMA JOSE NOLASCO  653.654.535	S	Feb 17 2009 11:52:30:766AM	S	N
0000005462	T000000001		0000001018	C	Feb 17 2009 10:32:47:360AM	LLAMAR A ARANCHA DE CAJA 7	S	Feb 17 2009 10:54:37:766AM	S	N
0000005463	0000001023		0000001018	C	Feb 17 2009  1:30:19:346PM	JAVIER MARRERO 686.43.86.41	S	Feb 18 2009  8:07:01:406AM	S	N
0000005464	T000000006	DICE QUE NECESITA QUE LO LLAMES EN CUANTO PUEDAS POR AGUNA CITACIÓN QUE TIENE PARA EL 6 DE MARZO.	0000001018	C	Feb 18 2009  9:05:46:116AM	LLAMADA DE FERNANDO ARROYO 669.44.61.19	S	Feb 18 2009  9:11:58:516AM	S	N
0000005465	T000000006		0000001018	C	Feb 18 2009 10:07:47:940AM	JORGE HOSP.  922.53.03.03	S	Feb 19 2009  9:07:30:750AM	S	N
0000005466	T000000006		0000001018	C	Feb 18 2009 11:34:44:080AM	JESUS ARMARIO, HABILITADO, 617.47.99.47	S	Feb 19 2009  9:07:46:233AM	S	N
0000005467	T000000006		0000001018	C	Feb 18 2009 12:19:48:330PM	IGNACIO DELGADO 1050  922.57.18.03	S	Feb 18 2009 12:15:32:233PM	S	N
0000005468	T000000013		0000001018	C	Feb 18 2009 12:44:47:586PM	DOMINGO GLEZ 1266 617.86.82.75	S	Feb 18 2009 12:52:29:796PM	S	N
0000005469	T000000006		0000001018	C	Feb 18 2009  1:09:06:973PM	PEDRO NEGRÍN 922.14.14.00	S	Feb 19 2009  8:58:09:093AM	S	N
0000005470	0000001023		T000000009	C	Feb 19 2009 10:09:28:203AM	SUBSANADO EXP. 2009-00472, REF. 2009-00960	S	Feb 19 2009 10:24:23:826AM	S	N
0000005471	T000000013		0000001018	C	Feb 19 2009 11:22:56:463AM	CARLOS LORENZO 2444  SERNOA ARQ. TECNICA 696.42.27.18	S	Feb 19 2009 11:52:36:860AM	S	N
0000005472	0000001023	DUDA CON RESPECTO AL CERTIFICADO DEL COSTE SIN CERTIFICACIONES EMITIDAS.	0000001018	C	Feb 19 2009 11:24:50:396AM	GUILLERMO PEREZ ALBADALEJO  844  629.83.10.04	S	Feb 19 2009 11:54:15:656AM	S	N
0000005473	0000001023		0000001018	C	Feb 19 2009 12:46:02:473PM	PEDRO GUANCHE 784  922.812.105	S	Feb 19 2009  1:14:24:920PM	S	N
0000005474	0000001023		0000001018	C	Feb 19 2009  1:32:16:083PM	JAVIER MARRERO 2482  686.43.86.41	S	Feb 19 2009  1:34:58:766PM	S	N
0000005475	T000000006		0000001018	C	Feb 20 2009 10:10:04:956AM	JUAN DAVO  647.429.010	S	Feb 25 2009  9:50:59:890AM	S	N
0000005476	0000001023		T000000009	C	Feb 20 2009 10:48:19:576AM	SUBSANACION EXP. 2008-03091 PACO MONTAÑEZ, VER OBSERVACIONES	S	Feb 20 2009 11:11:42:966AM	S	N
0000005477	T000000013		0000001018	C	Feb 20 2009 11:22:52:836AM	FATIMA DIEGO 630.38.71.64	S	Feb 20 2009 11:27:34:420AM	S	N
0000005478	T000000013		0000001018	C	Feb 20 2009 11:41:19:326AM	FCO. LUIS GLEZ. 1991  679.981.345	S	Feb 20 2009 11:46:06:610AM	S	N
0000005479	T000000006	DICE QUE POR FAVOR LA LLAMES AL 928.85.24.72	0000001018	C	Feb 20 2009 11:43:31:930AM	LLAMADA DE SILVIA DEL COAAT DE FUERTEVENTURA	S	Feb 25 2009  9:51:13:360AM	S	N
0000005480	T000000013		0000001018	C	Feb 20 2009 11:45:10:860AM	1600  FCO. HERNANDEZ  675.81.27.46	S	Feb 20 2009 12:00:08:390PM	S	N
0000005481	0000001023		T000000009	C	Feb 20 2009 11:38:16:466AM	VISARED 2009-01210	S	Feb 20 2009 11:53:15:936AM	S	N
0000005482	T000000013		T000000009	C	Feb 20 2009 11:38:16:466AM	VISARED 2009-01210	S	Feb 20 2009 11:50:41:780AM	S	N
0000005483	0000001023		T000000009	C	Feb 20 2009 11:45:30:656AM	SUBSANADO 2009-00838 NUEVO ARCHI. SIN ACENTOS	S	Feb 20 2009 11:57:18:376AM	S	N
0000005484	0000001023		T000000009	C	Feb 20 2009 11:52:30:796AM	SUBSANACION REF. 2009-00960	S	Feb 20 2009 12:17:15:250PM	S	N
0000005486	0000001023	2007-11485 QUIERE COMENTAR EL EXP. DE LAS 7 VDAS.	0000001018	C	Feb 20 2009 12:11:12:526PM	LLAMADA DE CARLOS NAVARRO    600.567.010	S	Feb 20 2009 12:17:17:876PM	S	N
0000005487	T000000006	679.96.11.62; 922.40.12.43	0000001018	C	Feb 20 2009 12:19:52:013PM	ANA ISABEL RGUEZ LORENZO DE LA PALMA	S	Feb 25 2009  9:52:44:890AM	S	N
0000005488	T000000013	ANTES HABLO CONTIGO	0000001018	C	Feb 20 2009 12:51:21:640PM	679.981.345   FCO.1991	S	Feb 20 2009  1:01:57:110PM	S	N
0000005489	T000000013		0000001018	C	Feb 20 2009 12:52:15:516PM	1600  FCO. HDEZ. OTRA VEZ  675.81.27.46	S	Feb 20 2009  1:00:24:766PM	S	N
0000005490	T000000004	vuelve a llamar	0000001018	C	Feb 20 2009  1:02:32:116PM	LLAMADA DE LOLY DE LAS BODEGAS	S	Feb 20 2009  2:13:21:390PM	S	N
0000005491	0000001023		0000001018	C	Feb 20 2009  1:07:48:390PM	PEDRO JOSE MARTIN 3144  639.74.58.22	S	Feb 20 2009  1:33:27:593PM	S	N
0000005492	T000000006		0000001018	C	Feb 20 2009  1:08:46:073PM	MOISES PEREZ COL. 2622   600.97.92.50	S	Feb 25 2009  9:54:22:110AM	S	N
0000005493	0000001023		0000001018	C	Feb 25 2009  9:30:19:506AM	MANOLO BEAUTELL  619.37.09.18	S	Feb 25 2009  9:30:00:250AM	S	N
0000005494	T000000013	EL DEL EXP. PENDIENTE DE LA COMISION DE VISADOS QUIERE QUE LE LLAMES DESPUÉS DE LEERLE EL REPARO QUE LE PUSIESTE HOY, PUESTO QUE DICE QUE LLEVA ESPERANDO UNA SEMANA.	0000001018	C	Feb 25 2009  9:34:35:433AM	JOSE ANTONIO VALBUENA  670.81.42.52	S	Feb 25 2009  9:37:57:516AM	S	N
0000005495	T000000013		0000001018	C	Feb 25 2009 10:20:32:556AM	HECTOR GLEZ. 2055   667.62.59.81	S	Feb 25 2009 10:36:01:343AM	S	N
0000005496	0000001023	PREGUNTAR POR TEMA DE UNA DEMOLICIÓN	0000001018	C	Feb 25 2009 12:20:58:950PM	NORBERTO DÍAZ  922.10.56.52	S	Feb 25 2009 12:31:23:000PM	S	N
0000005497	T000000013		0000001018	C	Feb 25 2009  1:02:21:910PM	2009-01210  CARLOS LORENZO  696.42.27.18	S	Feb 26 2009  8:43:49:626AM	S	N
0000005498	0000001023		0000001018	C	Feb 25 2009  1:20:26:336PM	CARLOS FDEZ.  HABILITADO  609.505.789	S	Feb 25 2009  1:30:00:920PM	S	N
0000005499	T000000013		T000000009	C	Feb 26 2009  9:09:11:733AM	VISARED 2009-01271	S	Feb 26 2009  9:41:55:233AM	S	N
0000005500	T000000013		T000000009	C	Feb 26 2009  9:34:30:593AM	SUBSANADO 2009-01210	S	Feb 26 2009 10:43:35:250AM	S	N
0000005501	0000001023		0000001018	C	Feb 26 2009  9:45:59:503AM	RICARDO CASANOVA  617.45.55.86	S	Feb 26 2009 10:04:39:766AM	S	N
0000005503	T000000013		0000001018	C	Feb 26 2009  9:53:30:743AM	FCO. GLEZ. DE CHAVES  922.28.79.96	S	Feb 26 2009 10:46:51:250AM	S	N
0000005504	T000000006		0000001018	C	Feb 26 2009 10:31:29:670AM	FERNANDO OVIES  667.45.28.25	S	Feb 26 2009  1:24:17:703PM	S	N
0000005505	T000000006		0000001018	C	Feb 26 2009 10:32:10:276AM	JOSE MANUEL SANTOS 629.57.83.87	S	Feb 26 2009  1:24:30:516PM	S	N
0000005506	T000000013		0000001018	C	Feb 26 2009 10:34:19:083AM	JUAN MARIA LUNA 626.90.57.20	S	Feb 26 2009 10:47:03:593AM	S	N
0000005507	T000000006	DICE QUE SI PUEDES LLAMARLE A LO LARGO DE LA MAÑANA	0000001018	C	Feb 26 2009 10:49:08:030AM	FRANCISCO TRUJILLO  COL. 2238  665.26.25.37	S	Feb 26 2009  1:25:22:656PM	S	N
0000005508	0000001023		0000001018	C	Feb 26 2009 10:49:41:800AM	JESUS MIGUEL DORTA  COL.3293  617.87.93.47	S	Feb 26 2009 11:25:41:500AM	S	N
0000005509	0000001023		0000001018	C	Feb 26 2009 11:25:39:200AM	PEDRO GUANCHE 784  TLF.922.812.105	S	Feb 26 2009 11:30:04:110AM	S	N
0000005510	T000000006	llama a merchi del hierro 	0000001010	C	Feb 26 2009 11:45:56:980AM	CENTRALITA	S	Feb 26 2009  1:25:36:576PM	S	N
0000005511	T000000006		0000001018	C	Feb 26 2009 12:23:44:553PM	CANDE CABRERA 2980  667.76.24.76	S	Feb 26 2009  1:25:44:233PM	S	N
0000005515	T000000006		0000001018	C	Feb 26 2009  1:33:33:086PM	ARTURO VEGA  622.288.704	S	Feb 26 2009  1:29:47:140PM	S	N
0000005516	0000001023		T000000009	C	Feb 26 2009  1:50:45:453PM	VISARED 2009-01298	S	Feb 26 2009  1:58:49:326PM	S	N
0000005517	T000000013		T000000009	C	Feb 26 2009  1:50:45:453PM	VISARED 2009-01298	S	Feb 27 2009  8:19:54:420AM	S	N
0000005519	0000001023	Dice que te mandó un correo con una documentación que hacía falta.	0000001018	C	Feb 27 2009  8:48:01:666AM	MANOLO BEAUTELL  619.37.09.18	S	Feb 27 2009  8:57:33:250AM	S	N
0000005520	0000001023	Col. 724, quería aclarar contigo una minuta presentada.	0000001018	C	Feb 27 2009  8:50:58:993AM	MIGUEL HERRERO  922.34.62.34 EXT. 220	S	Feb 27 2009  8:57:37:406AM	S	N
0000005521	T000000013		0000001018	C	Feb 27 2009  9:22:29:930AM	SIMEON COL. 1958  637.422.427	S	Feb 27 2009 10:36:58:093AM	S	N
0000005522	0000001023		0000001018	C	Feb 27 2009 10:03:17:080AM	RAFAEL HERNANDEZ 1203  922.843.204.	S	Feb 27 2009 10:06:56:716AM	S	N
0000005524	0000001023	AYER LO LLAMASTE PERO NO TENÍA COBERTURA.	0000001018	C	Feb 27 2009 10:13:32:073AM	JESUS MIGUEL DORTA  617.87.93.47	S	Feb 27 2009 10:32:06:170AM	S	N
0000005525	T000000006	PASARA POR EL COLEGIO SOBRE LAS 11:OO	0000001018	C	Feb 27 2009 10:16:02:040AM	JESUS ARRATE 670.55.63.41	S	Mar  2 2009  2:14:47:530PM	S	N
0000005526	T000000013		0000001018	C	Feb 27 2009 10:55:56:583AM	JUAN BOSCO 922.81.25.57	S	Feb 27 2009 11:00:46:530AM	S	N
0000005528	0000001023		0000001018	C	Feb 27 2009 12:08:24:676PM	JOSE EULOGIO BORGES  922.32.61.37	S	Feb 27 2009 12:18:12:780PM	S	N
0000005529	0000001023		0000001018	C	Feb 27 2009 12:11:03:153PM	CARLOS FDEZ. CARA  609.505.789	S	Feb 27 2009 12:18:20:063PM	S	N
0000005530	0000001023		0000001014	C	Feb 27 2009 12:38:11:926PM	REG. 2009-01321	S	Feb 27 2009  1:14:15:563PM	N	N
0000005531	T000000013		0000001014	C	Feb 27 2009 12:38:11:926PM	REG. 2009-01321	S	Feb 27 2009  1:04:07:326PM	N	N
0000005532	0000001023		0000001018	C	Feb 27 2009  1:02:47:386PM	NOEMI  922.25.53.00	S	Feb 27 2009  1:46:10:546PM	S	N
0000005534	T000000013		T000000009	C	Feb 27 2009  2:42:01:360PM	SUBSANADO 2009-01298	S	Mar  2 2009  9:48:44:640AM	S	N
0000005535	T000000013		T000000009	C	Feb 27 2009  2:52:41:766PM	SUBSANADO 2009-01298 HABLAMOS POR FA	S	Mar  2 2009  9:48:47:826AM	S	N
0000005536	T000000013	647.87.58.21	0000001018	C	Mar  2 2009  9:44:22:673AM	FCO. GLEZ.	S	Mar  2 2009  9:48:52:733AM	S	N
0000005537	T000000013		0000001018	C	Mar  2 2009  9:45:18:813AM	JUAN BOSCO 922.81.25.57	S	Mar  2 2009  9:58:29:170AM	S	N
0000005538	T000000013		T000000009	C	Mar  2 2009  9:40:51:920AM	SUBSANADO 2009-01298 OK	S	Mar  2 2009  9:58:22:953AM	S	N
0000005539	T000000006		0000001018	C	Mar  2 2009 10:45:24:510AM	GUILLERMO NOVARO  670.84.14.14	S	Mar  2 2009  2:16:41:436PM	S	N
0000005540	0000001023	609.505.789	0000001018	C	Mar  2 2009 10:48:06:793AM	CARLOS CARA DE SAN ISIDRO	S	Mar  2 2009 10:46:35:983AM	S	N
0000005541	T000000006		0000001018	C	Mar  2 2009 11:18:49:913AM	FRANCISCO TRUJILLO  922.25.19.18	S	Mar  2 2009  1:59:08:030PM	S	N
0000005542	T000000013	922.58.01.78
600.74.02.38	0000001018	C	Mar  2 2009 11:56:39:616AM	DIANA FLORES 2991	S	Mar  2 2009 11:59:01:670AM	S	N
0000005543	0000001023		0000001018	C	Mar  2 2009 12:17:57:383PM	LUCIANO 669.026.129	S	Mar  2 2009 12:27:07:406PM	S	N
0000005544	T000000006	VOLVIO A LLAMAR A VER SI PODÍAS LLAMARLO CUANTO ANTES	0000001018	C	Mar  2 2009 12:18:50:010PM	FRANCISCO TRUJILLO	S	Mar  2 2009  1:59:20:686PM	S	N
0000005545	0000001023		0000001018	C	Mar  2 2009 12:57:05:940PM	LUICANO  669.026.129	S	Mar  2 2009  1:03:11:156PM	S	N
0000005546	T000000006		0000001018	C	Mar  2 2009  1:14:32:526PM	FCO. GLEZ. DE CHAVES  922.28.79.96	S	Mar  2 2009  2:08:54:733PM	S	N
0000005547	0000001023	646.42.58.18	0000001018	C	Mar  3 2009  8:54:33:543AM	FABIÁN 3152	S	Mar  3 2009  8:55:50:813AM	S	N
0000005548	T000000013	629.502.228	0000001018	C	Mar  3 2009  9:09:07:410AM	JESUS DEL CASTILLO	S	Mar  3 2009 11:42:57:906AM	S	N
0000005549	T000000006		0000001018	C	Mar  3 2009 11:26:25:846AM	PEDRO MARCIAL 669.84.85.76	S	Mar  3 2009 11:38:32:420AM	S	N
0000005550	0000001023		0000001018	C	Mar  3 2009 11:30:55:413AM	CARLOS CARA  609.505.789	S	Mar  3 2009 11:55:13:093AM	S	N
0000005551	T000000006		0000001018	C	Mar  3 2009 11:40:09:900AM	LLAMADA DE MARYORIT 922.62.56.24    619.61.36.06	S	Mar  3 2009 11:37:55:733AM	S	N
0000005553	T000000006		0000001018	C	Mar  3 2009 12:19:17:216PM	PASADA LLAMADA DE JUAN LUIS	S	Mar  3 2009 12:18:42:266PM	S	N
0000005554	T000000006		0000001018	C	Mar  3 2009  1:04:16:246PM	PASADA LLAMADA DE PEDRO MARCIAL DE NUEVO	S	Mar  4 2009 10:13:24:313AM	S	N
0000005555	T000000006		0000001018	C	Mar  3 2009  1:04:39:520PM	PATRICIO PERERA 922.20.90.56	S	Mar  4 2009 10:13:28:453AM	S	N
0000005556	T000000006		0000001018	C	Mar  3 2009  1:05:05:796PM	IVÁN EL HIJO DE WALKIRIO  626.11.59.54	S	Mar  5 2009  1:40:28:716PM	S	N
0000005557	T000000006		0000001018	C	Mar  3 2009  1:14:22:580PM	LLAMADA DE WALKIRIO  630.873.564	S	Mar  4 2009 10:13:35:250AM	S	N
0000005558	0000001023		T000000009	C	Mar  3 2009  1:35:35:280PM	VISARED 2009-01404	S	Mar  4 2009  8:10:56:716AM	S	N
0000005559	T000000013		T000000009	C	Mar  3 2009  1:35:35:280PM	VISARED 2009-01404	S	Mar  4 2009  8:00:18:656AM	S	N
0000005560	T000000006		0000001018	C	Mar  4 2009  9:34:47:760AM	LUIS PUGA  677.98.05.11	S	Mar  5 2009  1:06:53:000PM	S	N
0000005562	0000001020		0000001018	C	Mar  4 2009 10:07:55:516AM	JOSE MIGUEL SATAMARÍA  3075   647.39.46.84   922.63.45.90	N		S	N
0000005561	0000001023		0000001018	C	Mar  4 2009  9:53:57:853AM	JOSE MIGUEL 3075  647.39.46.84	S	Mar  4 2009 10:08:11:046AM	S	N
0000005563	T000000006		0000001018	C	Mar  4 2009 11:21:58:636AM	JUÁN MANUEL IZQUIERDO  922.24.00.35	S	Mar  5 2009  1:10:19:140PM	S	N
0000005564	T000000013		0000001018	C	Mar  4 2009 11:30:20:336AM	JOSE ACOSTA  667.62.57.23	S	Mar  4 2009 12:38:21:313PM	S	N
0000005565	0000001011		0000001018	C	Mar  4 2009 11:46:20:550AM	FCO. GLEZ. DE CHAVES	S	Mar  4 2009 11:55:48:146AM	S	N
0000005566	T000000006		0000001018	C	Mar  4 2009 12:01:01:736PM	JORGE HOSP 922.53.03.03	S	Mar  5 2009  1:07:08:203PM	S	N
0000005567	0000001023		T000000009	C	Mar  5 2009  9:24:19:110AM	SUBSANADO 2009-01404	S	Mar  5 2009  9:53:44:813AM	S	N
0000005568	T000000013		0000001018	C	Mar  5 2009  9:35:25:063AM	ALICIA CAÑIBANO  670.70.13.80	S	Mar  5 2009  9:39:49:576AM	S	N
0000005569	0000001023		0000001018	C	Mar  5 2009 10:15:31:683AM	CARLOS ALONSO LABRADOR  670.82.59.44	S	Mar  5 2009 11:02:11:626AM	S	N
0000005570	T000000006		0000001018	C	Mar  5 2009 11:05:54:890AM	JORGE HOSP 922.53.03.03	S	Mar  5 2009  1:07:12:640PM	S	N
0000005571	T000000006		0000001018	C	Mar  5 2009 11:16:39:556AM	GUILLERMO NOVARO  670.84.14.14	S	Mar  5 2009  1:22:52:063PM	S	N
0000005572	T000000006	Dice que es una consulta rápida.	0000001018	C	Mar  5 2009 11:18:54:900AM	PEDRO MÉRIDA 606.01.75.07	S	Mar  5 2009  1:40:18:376PM	S	N
0000005574	0000001023		0000001018	C	Mar  5 2009  1:12:31:573PM	FABIAN DIAZ 3152   646.42.58.18	S	Mar  5 2009  1:49:17:936PM	S	N
0000005575	T000000006		0000001018	C	Mar  6 2009  9:11:49:776AM	MANUEL SOCAS, COMPAÑERO:  922.814.599 ; 629.168.480	S	Mar  6 2009  9:20:27:016AM	S	N
0000005576	T000000006		0000001018	C	Mar  6 2009  9:13:15:663AM	TOÑI DEL HIERRO   629.264.114	S	Mar  6 2009  9:09:50:376AM	S	N
0000005577	T000000006		0000001018	C	Mar  6 2009 10:05:18:903AM	MARIA COL. 2713  657.655.498	S	Mar  6 2009 10:03:04:656AM	S	N
0000005578	T000000013		0000001018	C	Mar  6 2009 10:13:19:403AM	IGNACIO COSTUMERO  607.56.39.48	S	Mar  6 2009 10:44:32:920AM	S	N
0000005580	0000001011		0000001018	C	Mar  6 2009 10:41:24:486AM	DAVID COL. 2699 679.97.20.31	S	Mar  6 2009 10:46:49:280AM	S	N
0000005581	0000001023		0000001018	C	Mar  6 2009 10:54:11:610AM	JESUS CASTRO  03278  922.51.30.61	S	Mar  6 2009 11:08:20:063AM	S	N
0000005582	0000001023		T000000009	C	Mar  6 2009 10:52:20:703AM	VISARED 2009-01501	S	Mar  6 2009 11:08:04:813AM	S	N
0000005583	T000000013		T000000009	C	Mar  6 2009 10:52:20:703AM	VISARED 2009-01501	S	Mar  6 2009 11:09:13:186AM	S	N
0000005584	T000000013		0000001018	C	Mar  6 2009 11:05:37:536AM	NENA 922.34.00.06	S	Mar  6 2009 11:14:56:826AM	S	N
0000005585	0000001011	DICE QUE SI POR FAVOR LA PUEDES LLAMAR	0000001018	C	Mar  6 2009 12:22:20:986PM	AUXI 679.437.489	S	Mar  6 2009  1:17:01:093PM	S	N
0000005587	0000001023		T000000009	C	Mar  6 2009 12:39:42:280PM	VISARED 2009-01511	S	Mar  6 2009  1:49:15:436PM	S	N
0000005588	T000000013		T000000009	C	Mar  6 2009 12:39:42:280PM	VISARED 2009-01511	S	Mar  6 2009  1:39:45:280PM	S	N
0000005589	0000001011	629.087.038	0000001018	C	Mar  6 2009  1:06:32:216PM	DOMINGO NEGRÍN DE LANZAROTE	S	Mar  6 2009  1:15:32:576PM	S	N
0000005590	0000001011		0000001018	C	Mar  6 2009  1:07:28:470PM	RAFAEL  COL. 2875   605.319.601	S	Mar  6 2009  1:17:50:950PM	S	N
0000005591	T000000006		0000001018	C	Mar  6 2009  1:07:49:350PM	RAFAEL  COL. 2875   605.319.601	S	Mar  9 2009  8:19:38:860AM	S	N
0000005592	T000000006		0000001018	C	Mar  6 2009  1:08:39:320PM	ALFREDO MORENO   922.23.05.51	S	Mar  9 2009  8:29:50:500AM	S	N
0000005593	T000000006		0000001018	C	Mar  6 2009  1:09:42:803PM	JOSE FCO. DORTA  922.12.16.75  O  696.432.200	S	Mar  9 2009  8:11:20:703AM	S	N
0000005594	0000001023		0000001018	C	Mar  9 2009 10:05:02:206AM	JESUS CASTRO 03278  922.51.30.61	S	Mar  9 2009 10:18:54:233AM	S	N
0000005595	0000001023		T000000009	C	Mar  9 2009 10:18:01:876AM	SUBSANADO 2009-01501	S	Mar  9 2009 10:37:04:640AM	S	N
0000005596	0000001023	635.663.286	0000001018	C	Mar  9 2009 12:35:36:956PM	PEDRO MARTÍN C.C AÑAZA ARQUITECTURA Y GESTIÓN	S	Mar  9 2009 12:41:54:406PM	S	N
0000005597	T000000003	REF 2009-01333 81625	T000000009	C	Mar  9 2009  1:07:39:796PM	COMUNICADO COAC	S	Mar  9 2009  1:48:14:766PM	S	N
0000005598	0000001023		T000000009	C	Mar 10 2009  8:33:08:483AM	VISARED 2009-01546	S	Mar 10 2009  8:59:15:906AM	S	N
0000005599	T000000013		T000000009	C	Mar 10 2009  8:33:08:483AM	VISARED 2009-01546	S	Mar 10 2009  8:54:25:626AM	S	N
0000005600	0000001023		T000000009	C	Mar 10 2009  8:47:12:920AM	VISARED 2009-01547	S	Mar 10 2009  8:59:18:500AM	S	N
0000005601	T000000013		T000000009	C	Mar 10 2009  8:47:12:920AM	VISARED 2009-01547	S	Mar 10 2009  9:10:00:966AM	S	N
0000005602	T000000006	ALFREDO MORA HA LLAMADO VARIAS VECES POR FAVOR QUE LO LLAMES 618,961,553	0000001010	C	Mar 10 2009 10:17:48:183AM	CENTRALITA	S	Mar 10 2009 11:22:39:030AM	S	N
0000005603	0000001023		T000000009	C	Mar 11 2009  7:48:54:093AM	VISARED 2009-01579	S	Mar 11 2009  9:33:47:313AM	S	N
0000005604	T000000013		T000000009	C	Mar 11 2009  7:48:54:093AM	VISARED 2009-01579	S	Mar 11 2009  8:36:19:110AM	S	N
0000005605	T000000006	DICE QUE ES UNA PREGUNTA UN POCO URGENTE, QUE POR FAVOR LO LLAMES AL 676.110.662  O EN EL AYUNTAMIENTO AL 922.86.31.27 EXT. 161.	0000001018	C	Mar 11 2009  9:28:05:433AM	CELSO GLEZ.	S	Mar 11 2009  2:11:11:420PM	S	N
0000005606	T000000013		0000001018	C	Mar 11 2009  9:42:51:636AM	RAFAEL HERNANDEZ  616.311.445	S	Mar 11 2009 10:03:51:326AM	S	N
0000005607	T000000001		0000001018	C	Mar 11 2009  9:56:47:416AM	JESÚS LORENZO DE GARACHICO  658.847.299	S	Mar 11 2009 10:05:19:186AM	S	N
0000005609	0000001023		0000001018	C	Mar 11 2009 11:54:05:076AM	PACO MONTAÑES  657.80.30.46	S	Mar 11 2009 12:00:11:296PM	S	N
0000005611	T000000006		0000001018	C	Mar 11 2009  1:17:35:223PM	DAVID GLEZ.  1712  629.57.32.70	S	Mar 11 2009  2:13:23:576PM	S	N
0000005612	0000001023		0000001018	C	Mar 11 2009  1:37:23:150PM	PEDRO MARTIN  3144   639.74.58.22	S	Mar 11 2009  1:35:05:766PM	S	N
0000005613	T000000006		0000001018	C	Mar 12 2009  9:47:38:736AM	JOSÉ FCO. DORTA PÉREZ  922.12.16.75  O 696.432.200	S	Mar 12 2009 10:11:11:326AM	S	N
0000005614	0000001023	QUERÍA COMENTAR CONTIGO REPARO DEL 2009-00784  
TLF: 670.72.74.42	0000001018	C	Mar 12 2009  9:48:23:110AM	CARLOS MARTÍN  COL.2658	S	Mar 12 2009  9:53:35:250AM	S	N
0000005616	0000001023		0000001018	C	Mar 12 2009 11:21:53:606AM	CRISTO MANUEL  COL. 2867  670.63.45.02	S	Mar 12 2009 11:22:29:376AM	S	N
0000005617	T000000006	Llamar a Dª Dulce Gutierrez (VISOCAN)	0000001014	C	Mar 12 2009 11:58:44:926AM	CENTRALITA	S	Mar 12 2009 11:52:19:250AM	N	N
0000005618	T000000006	TLF:
Particular: 922,212,970
Profesional: 922,101,700
Móvil Personal: 610,813,306
Móvil profesional: 600,970,943	0000001014	C	Mar 12 2009 12:06:33:630PM	CENTRALITA	S	Mar 12 2009 11:58:41:920AM	N	N
0000005619	0000001023		0000001014	C	Mar 12 2009 11:56:20:960AM	2009-01641	S	Mar 12 2009 12:22:42:953PM	N	N
0000005620	0000001023	DICE QUE HABLO CON EDUARDO PERO QUE SI POR FAVOR PUEDES AYUDARLA YA QUE EDUARDO NO ESTÁ HOY.	0000001018	C	Mar 12 2009 12:28:21:110PM	CARMEN LUISA ESQUIVEL  647.301.655	S	Mar 13 2009  8:21:48:826AM	S	N
0000005621	0000001023		0000001014	C	Mar 12 2009 12:23:59:936PM	2009-01644	S	Mar 12 2009  1:02:14:796PM	N	N
0000005622	0000001023		0000001018	C	Mar 12 2009 12:50:14:380PM	DAVID GARCÍA COL. 3284  922.74.90.50  661.18.73.35	S	Mar 13 2009  8:21:16:376AM	S	N
0000005623	0000001023		0000001014	C	Mar 12 2009 12:40:30:550PM	ANEXO 2009-01015	S	Mar 12 2009  1:02:17:126PM	N	N
0000005624	T000000006	DICE QUE LO LLAMES A LA OFICINA 922.12.16.75.	0000001018	C	Mar 13 2009  8:54:36:486AM	JOSE FCO. DORTA	S	Mar 13 2009  9:26:24:390AM	S	N
0000005625	0000001023		0000001018	C	Mar 13 2009  9:02:30:730AM	CRISTO MANUEL COL. 2867  670.63.45.02	S	Mar 13 2009  9:11:30:110AM	S	N
0000005626	T000000006	649.924.327.	0000001018	C	Mar 13 2009  9:20:06:006AM	PACO HDEZ. FELIPE COL. DE LA PALMA	S	Mar 13 2009  9:26:38:703AM	S	N
0000005628	0000001023	ES LA QUE TE COMENTÉ ( VA A LLEVAR UNA OBRA A CONCURSO...)	0000001018	C	Mar 13 2009  9:58:20:716AM	MARTA GLEZ. GLEZ. COL. 3228    653.36.17.24	S	Mar 17 2009  8:07:49:703AM	S	N
0000005629	0000001023		0000001018	C	Mar 13 2009 10:13:25:056AM	JOSE EULOGIO  922.32.61.37	S	Mar 16 2009 11:24:23:546AM	S	N
0000005631	T000000006		0000001018	C	Mar 13 2009 10:33:20:256AM	CRISTO CABALLERO  COL.3098  629.14.89.99	S	Mar 13 2009 12:02:37:156PM	S	N
0000005632	0000001020	ENVIAR LAS TRES CARTAS DEL FINAL DE OBRA CON Nº  DE EXP. 08/04358  DEL COLEGIADO JUAN CARLOS RIVERA

AL DOMICILIO  :  C/ LANGRERO Nº 1, SAN SEBASTIAN DE LA GOMERA
	T000000003	C	Mar 13 2009 11:47:53:266AM	CARTAS RECLAMACION DEL FINAL DE OBRAS	N		N	N
0000005633	0000001023	TLF:615.32.08.24  	0000001018	C	Mar 13 2009 12:19:41:923PM	CEFERINO DGUEZ COL. 2566	S	Mar 16 2009 11:24:04:530AM	S	N
0000005634	0000001023		0000001018	C	Mar 13 2009 12:36:12:086PM	TOMÁS HERNÁNDEZ  609.84.02.22  COL. LAS PALMAS	S	Mar 16 2009 11:24:08:546AM	S	N
0000005635	0000001023		T000000009	C	Mar 13 2009  1:13:00:826PM	VISARED	S	Mar 13 2009  2:06:42:063PM	S	N
0000005636	T000000003	mira ver si a ti te llegan los mios???	0000001022	C	Mar 13 2009  1:48:56:216PM	PRUEBA	S	Mar 13 2009  2:13:10:766PM	N	N
0000005637	0000001022	SI	T000000003	C	Mar 13 2009  2:13:24:780PM	PRUEBA	S	Mar 13 2009  1:59:21:813PM	N	N
0000005638	T000000003	jajaja!! Menuda Bronca, no??
Ya funciono!!	0000001022	C	Mar 13 2009  2:05:45:313PM	PRUEBA	S	Mar 13 2009  2:21:34:670PM	N	N
0000005639	0000001023		0000001014	C	Mar 16 2009  8:52:11:063AM	2009-01688	S	Mar 16 2009 11:24:15:813AM	N	N
0000005640	T000000013		0000001014	C	Mar 16 2009  8:52:11:063AM	2009-01688	S	Mar 16 2009  9:18:50:110AM	N	N
0000005641	T000000013	922.28.09.24  O  657.91.22.46.	0000001018	C	Mar 16 2009  9:36:53:426AM	Mª CARMEN MONFORTE	S	Mar 16 2009 11:28:08:670AM	S	N
0000005642	T000000013	QUERÍA COMPROBAR SI TE HABÍA LLEGADO UN CORREO.	0000001018	C	Mar 16 2009 10:15:42:776AM	DIANA FLORES RGUEZ. 2991  922.58.01.78  O  600.74.02.38.	S	Mar 16 2009 11:29:54:936AM	S	N
0000005643	T000000013	 	0000001018	C	Mar 16 2009 11:14:59:963AM	DIANA VOLVIO A LLAMAR	S	Mar 16 2009 11:34:18:750AM	S	N
0000005644	0000001023	TE ENVIO POR E-MAIL EL ACTA RELLENA PARA QUE LE CONFIRMES SI ESTÁ CORRECTA.	0000001018	C	Mar 16 2009 11:57:50:046AM	GERARDO ACOSTA	S	Mar 16 2009 12:52:14:890PM	S	N
0000005645	0000001023		0000001018	C	Mar 16 2009 12:32:37:250PM	NOE  690.957.393	S	Mar 16 2009  1:00:22:063PM	S	N
0000005647	T000000013		0000001018	C	Mar 17 2009  9:34:22:786AM	JOSE EULOGIO BORGES  605.818.136	S	Mar 17 2009  1:23:37:563PM	S	N
0000005648	0000001023		0000001018	C	Mar 17 2009 10:41:50:646AM	SAMUEL GARCIA 699.635.702	S	Mar 17 2009 12:18:53:610PM	S	N
0000005650	0000001023		0000001018	C	Mar 17 2009 11:42:40:136AM	GERARDO ACOSTA  600.477.601	S	Mar 17 2009 12:18:57:170PM	S	N
0000005651	T000000013		0000001018	C	Mar 17 2009 12:23:12:723PM	ROSA 1889  670.88.58.68	S	Mar 17 2009  1:25:14:843PM	S	N
0000005652	0000001023		0000001018	C	Mar 17 2009  1:16:31:253PM	FERNANDO ARROYO 669.44.61.19	S	Mar 17 2009  1:28:05:670PM	S	N
0000005646	T000000013		0000001018	C	Mar 17 2009  9:22:31:486AM	JUÁN DE DIOS 649.675.103	S	Mar 17 2009  1:19:45:733PM	S	N
0000005653	T000000013		T000000009	C	Mar 18 2009  7:38:13:420AM	SUBSANADO 2009-01579	S	Mar 18 2009  8:09:52:233AM	S	N
0000005654	0000001023		T000000009	C	Mar 18 2009  7:48:20:483AM	VISARED 2009-01754	S	Mar 18 2009  8:10:50:126AM	S	N
0000005655	T000000013		T000000009	C	Mar 18 2009  7:48:20:483AM	VISARED 2009-01754	S	Mar 18 2009  8:11:56:766AM	S	N
0000005656	0000001023		0000001014	C	Mar 18 2009  8:11:44:353AM	2009-01756	S	Mar 18 2009  8:41:33:610AM	N	N
0000005657	T000000013		0000001014	C	Mar 18 2009  8:11:44:353AM	2009-01756	S	Mar 18 2009  8:38:32:326AM	N	N
0000005658	0000001023		0000001014	C	Mar 18 2009  8:15:10:260AM	2009-01757	S	Mar 18 2009  8:41:35:826AM	N	N
0000005659	T000000013		0000001014	C	Mar 18 2009  8:15:10:260AM	2009-01757	S	Mar 18 2009  8:44:13:716AM	N	N
0000005660	0000001023		0000001014	C	Mar 18 2009  8:25:53:516AM	2009-01758	S	Mar 18 2009  8:53:29:436AM	N	N
0000005661	T000000013		0000001014	C	Mar 18 2009  8:25:53:516AM	2009-01758	S	Mar 18 2009  9:06:39:326AM	N	N
0000005662	T000000013		T000000009	C	Mar 18 2009  8:46:26:670AM	VISARED 2009-00867 ENVIO CORREO PARA QUE HABLEN CONTIGO	S	Mar 18 2009  9:06:44:750AM	S	N
0000005663	T000000013		0000001018	C	Mar 18 2009  9:04:13:853AM	CANDE 667.76.24.76	S	Mar 18 2009  9:06:49:313AM	S	N
0000005664	0000001023	dice que es urgente	0000001018	C	Mar 18 2009  9:14:19:706AM	JESUS CARAZO 619.245.955	S	Mar 18 2009  9:23:35:343AM	S	N
0000005665	0000001023		0000001018	C	Mar 18 2009  9:49:38:783AM	MARIA 2858 605.28.93.59	S	Mar 18 2009  9:52:41:813AM	S	N
0000005667	0000001023		0000001018	C	Mar 18 2009 10:04:53:686AM	JUAN CARLOS DE LEON 2725  TLF: 628.019.024	S	Mar 18 2009 10:05:33:656AM	S	N
0000005668	T000000006		0000001018	C	Mar 18 2009 10:27:21:303AM	JOSE EULOGIO BORGES  922.31.61.37	S	Mar 18 2009  2:25:56:750PM	S	N
0000005669	T000000013		0000001018	C	Mar 18 2009 11:03:50:090AM	VÍCTOR DURÁN 677.46.28.50	S	Mar 18 2009 11:15:11:826AM	S	N
0000005671	T000000006		0000001018	C	Mar 18 2009 11:40:04:686AM	JAVIER ELEJABEITIA  ( ESTE ES LE Nº CORRECTO 658.895.353 )	S	Mar 18 2009  2:22:38:593PM	S	N
0000005672	T000000006		0000001018	C	Mar 18 2009 11:41:25:723AM	GLORIA SAMARÍN  922.29.16.87	S	Mar 18 2009  2:27:29:030PM	S	N
0000005673	0000001023		0000001018	C	Mar 18 2009 12:15:36:593PM	FELIX EXPOSITO  922.32.69.18	S	Mar 18 2009 12:34:16:906PM	S	N
0000005675	T000000013		0000001018	C	Mar 18 2009 12:21:36:220PM	VICTOR DURAN  677.46.28.50	S	Mar 18 2009 12:57:16:516PM	S	N
0000005676	T000000013		0000001018	C	Mar 18 2009  1:24:40:640PM	JOSE MANUEL RETAMAL 02134   606.017.499	S	Mar 19 2009  9:01:35:016AM	S	N
0000005677	0000001023		T000000009	C	Mar 18 2009  2:02:55:093PM	VISARED 2009-01787	S	Mar 18 2009  2:13:21:203PM	S	N
0000005678	T000000013		T000000009	C	Mar 18 2009  2:02:55:093PM	VISARED 2009-01787	S	Mar 19 2009  8:11:09:093AM	S	N
0000005670	T000000006		0000001018	C	Mar 18 2009 11:37:10:936AM	JAVIER ELEJABEITIA  658.895.383	S	Mar 18 2009  2:22:34:530PM	S	N
0000005679	0000001023		0000001014	C	Mar 19 2009  8:36:36:586AM	2009-01792	S	Mar 19 2009  9:01:45:796AM	N	N
0000005680	T000000013		0000001014	C	Mar 19 2009  8:36:36:586AM	2009-01792	S	Mar 19 2009  9:03:41:656AM	N	N
0000005681	T000000013		T000000009	C	Mar 19 2009  8:59:47:610AM	SUBSANADO 2009-01754	S	Mar 19 2009  9:11:37:516AM	S	N
0000005682	T000000013		T000000009	C	Mar 19 2009  9:11:42:170AM	SUBSANADO 2009-01758	S	Mar 19 2009  9:35:42:546AM	S	N
0000005683	0000001023		T000000009	C	Mar 19 2009  9:20:54:500AM	SUBSANADO 2009-01755	S	Mar 19 2009  9:29:54:936AM	S	N
0000005684	T000000006		0000001018	C	Mar 19 2009  9:42:25:536AM	JOSE FCO. DORTA  922.12.16.75  696.432.200	S	Mar 23 2009  9:13:55:343AM	S	N
0000005685	0000001023		0000001018	C	Mar 19 2009 10:37:18:620AM	ANTONIO DGUEZ. COL .750  922.38.36.11  O  629.55.28.04	S	Mar 19 2009 10:40:39:576AM	S	N
0000005686	0000001023		0000001018	C	Mar 19 2009 11:49:03:310AM	DOMINGO COL. 452  922.25.64.73   630.08.32.22	S	Mar 19 2009  1:24:19:686PM	S	N
0000005687	0000001023	PARA COMENTARTE UN REPARO QUE LE PUSISTE	0000001018	C	Mar 19 2009 12:07:31:133PM	FRANCISCO  1991  679.981.345	S	Mar 19 2009  1:24:21:626PM	S	N
0000005688	T000000013	DICE QUE TIENE UNA DUDA SOBRE HONORARIOS	0000001018	C	Mar 19 2009 12:36:51:346PM	MIGUEL JORGE    922.57.74.61  ARQUITECTO	S	Mar 19 2009 12:51:29:766PM	S	N
0000005691	T000000006		0000001010	C	Mar 20 2009 10:14:05:623AM	JOSE EULOGIO   922.32.61.37	S	Mar 23 2009  9:33:19:703AM	S	N
0000005692	0000001023		0000001018	C	Mar 20 2009 10:34:10:006AM	PEDRO MARCIAL  COL. 1075  669.84.85.76	S	Mar 20 2009 10:46:41:766AM	S	N
0000005693	0000001023		0000001010	C	Mar 20 2009 11:38:24:870AM	CRISTO MANUEL 2867   670.63.45.02	S	Mar 20 2009 12:26:59:436PM	S	N
0000005694	T000000006		0000001010	C	Mar 20 2009 11:57:14:033AM	JUAN BOSCO 2422   922.81.25.57	S	Mar 23 2009  9:33:37:656AM	S	N
0000005695	0000001023		T000000009	C	Mar 20 2009 12:50:04:530PM	VISARED 2009-01839	S	Mar 20 2009  1:25:51:920PM	S	N
0000005696	0000001023		T000000009	C	Mar 23 2009  8:43:32:360AM	SUBSANACION Y ANEXO 2009-01642	S	Mar 23 2009  8:59:43:030AM	S	N
0000005698	T000000006		0000001018	C	Mar 23 2009 10:02:04:033AM	LLAMADA PASADA DE JESÚS ARRATE	S	Mar 23 2009  9:57:34:626AM	S	N
0000005699	T000000006		0000001018	C	Mar 23 2009 10:07:33:966AM	PEDRO MARCIAL LOPEZ  669.84.85.76	S	Mar 23 2009 10:33:59:046AM	S	N
0000005700	T000000007		T000000009	C	Mar 23 2009 10:30:45:166AM	LLAMA A NOEMIA DE MUSAAT	S	Apr  1 2009  9:15:41:376AM	S	N
0000005701	T000000005		T000000009	C	Mar 23 2009 10:34:04:796AM	LLAMA A PATRICIA DEL DEPACHO DE AGUSTIN RUIZ	S	Jul 22 2009  9:51:01:126AM	S	N
0000005702	0000001023		T000000009	C	Mar 23 2009 10:39:48:563AM	2009-01642 ME OLVIDE DE ADJUNTAR MEMORIA EL TEC. LLAMO	S	Mar 23 2009 10:53:57:406AM	S	N
0000005703	T000000006		0000001018	C	Mar 23 2009 11:26:20:223AM	LLAMADA PASADA DE FERMÍN GUTIÉRREZ	S	Mar 26 2009 11:54:21:626AM	S	N
0000005706	0000001023		0000001018	C	Mar 23 2009 12:35:19:506PM	CRISTO MANUEL  670.63.45.02	S	Mar 23 2009 12:51:26:343PM	S	N
0000005707	0000001023		0000001018	C	Mar 23 2009 12:51:52:873PM	JOSE MANUEL SANTOS COL. 637   629.57.83.87	S	Mar 23 2009 12:51:45:530PM	S	N
0000005709	T000000006		0000001018	C	Mar 24 2009  8:55:36:040AM	JESUS ARRATE  670.55.63.41	S	Mar 26 2009 11:54:25:313AM	S	N
0000005711	0000001023	ME DIJO QUE TE DEJARA EL RECADO PARA COMENTARTE UN REPARO QUE LE PUSISTE	0000001018	C	Mar 24 2009  9:10:58:776AM	CARMEN NIEVES NUÑEZ  699.22.37.10	S	Mar 24 2009  9:26:42:046AM	S	N
0000005712	T000000013		0000001018	C	Mar 24 2009  9:55:13:643AM	DE LA OFICINA DELSEÑOR BORGES DE NUEVO  922.32.61.37	S	Mar 24 2009 11:18:47:640AM	S	N
0000005713	0000001023		0000001018	C	Mar 24 2009 10:16:06:886AM	LAURA CHAMERO  630.07.92.56	S	Mar 24 2009 10:47:21:860AM	S	N
0000005714	T000000006		0000001018	C	Mar 24 2009 10:28:01:123AM	LLAMADA DE TU HERMANA MARÍA LUISA	S	Mar 26 2009 11:54:31:216AM	S	N
0000005715	0000001023		T000000009	C	Mar 24 2009 10:25:53:516AM	VISARED 2009-01892	S	Mar 24 2009 11:07:18:703AM	S	N
0000005716	T000000013		T000000009	C	Mar 24 2009 10:25:53:516AM	VISARED 2009-01892	S	Mar 24 2009 11:33:33:280AM	S	N
0000005717	0000001023		T000000009	C	Mar 24 2009 10:44:49:420AM	VISARED 2009-01896	S	Mar 24 2009 11:07:21:110AM	S	N
0000005718	T000000013		T000000009	C	Mar 24 2009 10:44:49:420AM	VISARED 2009-01896	S	Mar 24 2009 11:33:36:813AM	S	N
0000005719	0000001023		0000001018	C	Mar 24 2009 11:16:38:506AM	CARLOS DE SOTAVENTO  667.03.10.71	S	Mar 24 2009 11:31:37:436AM	S	N
0000005720	0000001023		T000000009	C	Mar 24 2009 11:32:09:046AM	VISARED 2009-01903	S	Mar 24 2009 11:40:39:266AM	S	N
0000005721	T000000013		T000000009	C	Mar 24 2009 11:32:09:046AM	VISARED 2009-01903	S	Mar 24 2009 11:49:14:860AM	S	N
0000005722	0000001023		0000001018	C	Mar 24 2009 11:42:18:110AM	TOMÁS PÉREZ HDEZ. 670.67.54.15	S	Mar 24 2009 11:40:43:516AM	S	N
0000005723	0000001023		T000000009	C	Mar 24 2009 12:08:16:766PM	VISARED 2009-01912	S	Mar 24 2009 12:33:47:376PM	S	N
0000005724	T000000013		T000000009	C	Mar 24 2009 12:08:16:766PM	VISARED 2009-01912	S	Mar 24 2009 12:30:04:360PM	S	N
0000005725	T000000013		0000001018	C	Mar 24 2009 12:31:36:146PM	RAUL RAMOS VALERIANO  625.33.53.22  COL. 2906	S	Mar 24 2009 12:40:30:063PM	S	N
0000005726	T000000006		0000001018	C	Mar 24 2009 12:32:17:653PM	ALFREDO MORENO  618.96.15.53	S	Apr  6 2009  1:52:51:203PM	S	N
0000005727	T000000006	dice que va a estar en la oficina  922.12.16.75.	0000001018	C	Mar 25 2009  8:48:11:453AM	VOLVIÓ A LLAMAR JOSE FCO. DORTA	S	Mar 26 2009 11:54:35:313AM	S	N
0000005728	0000001023		0000001018	C	Mar 25 2009 10:57:31:220AM	SAMUEL GARCIA   699.635.702	S	Mar 25 2009 11:11:22:420AM	S	N
0000005729	T000000006		0000001018	C	Mar 25 2009 11:40:01:396AM	LLAMO JOSE FCO. DORTA DE NUEVO POR 3ª VEZ	S	Mar 26 2009 11:54:39:390AM	S	N
0000005730	T000000013		T000000009	C	Mar 25 2009 12:46:16:826PM	EXPEDIENTE 2008-03965 VISARED	S	Mar 25 2009 12:57:20:376PM	S	N
0000005732	T000000013		T000000009	C	Mar 25 2009 12:58:45:813PM	SUBSANADO 2009-01896	S	Mar 25 2009  1:14:54:576PM	S	N
0000005733	0000001023		0000001018	C	Mar 25 2009  1:40:25:846PM	MANUEL HERRERO  922.34.62.64 EXT.220	S	Mar 25 2009  2:03:55:313PM	S	N
0000005734	T000000013		T000000009	C	Mar 25 2009  1:52:21:140PM	SUBSANADO 2009-01896	S	Mar 25 2009  2:06:06:750PM	S	N
0000005735	T000000006		0000001018	C	Mar 26 2009  9:09:51:830AM	REMI  COL . 03030 TLF: 667.94.53.32	S	Apr  6 2009  2:01:44:766PM	S	N
0000005736	T000000006		0000001018	C	Mar 26 2009  9:18:30:706AM	JOSE FCO. DORTA  922.12.16.75	S	Mar 26 2009 11:55:08:796AM	S	N
0000005739	T000000006		0000001018	C	Mar 26 2009 10:17:59:496AM	PEDRO MARCIAL  669.84.85.76	S	Mar 26 2009 11:57:12:890AM	S	N
0000005740	T000000013		0000001018	C	Mar 26 2009 10:21:26:166AM	CARLOS DOMINGUEZ DEL TORO  922.73.15.04	S	Mar 26 2009 10:23:57:063AM	S	N
0000005742	T000000006	QUE POR FAVOR LE DEVUELVAS LA LLAMADA	0000001018	C	Mar 26 2009 10:58:30:633AM	TOÑI LA PRESIDENTA DEL HIERRO	S	Mar 27 2009  2:29:09:376PM	S	N
0000005743	T000000006		0000001018	C	Mar 26 2009 10:58:57:553AM	ALFREDO MORENO  618.961.553	S	Apr  6 2009  1:52:57:063PM	S	N
0000005747	0000001023	DICE QUE QUIERE COMENTARTE ALGO DE UN VISADO.	0000001018	C	Mar 26 2009 12:00:57:783PM	JORGE GARCÍA HERNÁNDEZ  690.21.23.86	S	Mar 26 2009 12:23:18:813PM	S	N
0000005710	T000000006		0000001018	C	Mar 24 2009  9:03:17:063AM	JOSE FCO. DORTA  922.12.16.75  O 696.432.200	S	Mar 26 2009 11:55:35:390AM	S	N
0000005738	T000000006	REFERENTE AL ASUNTO DE LUIS GLEZ Y PEDRO JUÁN	0000001018	C	Mar 26 2009  9:58:05:580AM	LUIS GONZALEZ  606.84.73.01	S	Mar 26 2009 11:57:04:170AM	S	N
0000005748	T000000006		0000001018	C	Mar 26 2009 12:10:13:710PM	FERNANDO OVIES 667.45.28.25	S	Mar 27 2009  2:32:56:343PM	S	N
0000005749	T000000013		0000001018	C	Mar 26 2009 12:11:14:830PM	VERONICA RAMOS  678.57.19.20	S	Mar 26 2009 12:19:25:030PM	S	N
0000005750	T000000006		0000001018	C	Mar 27 2009  8:59:24:186AM	CARLOS WALTER BELTRAN	S	Mar 27 2009  2:37:27:030PM	S	N
0000005751	T000000013		T000000009	C	Mar 27 2009  9:25:45:063AM	SUBSANADO 2009-01907, COMUNICADO COAC	S	Mar 27 2009 10:17:29:593AM	S	N
0000005752	T000000006	639.14.42.14  O  922.54.88.25.	0000001018	C	Mar 27 2009 10:18:10:583AM	JUAN ALBERTO  COL. 2395	S	Apr  6 2009  1:52:44:110PM	S	N
0000005753	T000000006		0000001018	C	Mar 27 2009 10:18:39:736AM	FERNANDO OVIES  663.883.283	S	Mar 27 2009  2:32:48:936PM	S	N
0000005754	T000000013		0000001018	C	Mar 27 2009 11:51:22:916AM	DULCE RGUEZ. COL.2206  637.41.79.28	S	Mar 30 2009  8:59:05:186AM	S	N
0000005756	T000000013		T000000009	C	Mar 27 2009 12:32:56:453PM	RECTIFICACION CERT. REF. 2009-01912	S	Mar 30 2009  8:12:50:360AM	S	N
0000005757	T000000006		0000001018	C	Mar 27 2009 12:45:51:876PM	RAFAEL ESPINOSA  616.43.02.09	S	Mar 27 2009  2:29:37:576PM	S	N
0000005758	T000000006		0000001018	C	Mar 27 2009 12:46:20:006PM	CRISTO MANUEL COL. 2867  670.63.45.02.	S	Apr  6 2009  2:05:31:983PM	S	N
0000005759	T000000013		0000001018	C	Mar 27 2009 12:47:46:480PM	CARLOS LECHUGA  662.324.324.	S	Mar 30 2009  9:00:51:140AM	S	N
0000005760	T000000013		0000001018	C	Mar 27 2009 12:57:55:386PM	MIGUEL ÁNGEL GIL  620.19.15.87	S	Mar 30 2009  9:02:00:500AM	S	N
0000005761	T000000013		0000001018	C	Mar 27 2009  1:27:45:820PM	DAVID BARROSO  650.870.611	S	Mar 30 2009  9:02:48:076AM	S	N
0000005763	T000000013		T000000009	C	Mar 30 2009  9:49:05:640AM	VISARED 2009-02033	S	Mar 30 2009 11:29:11:953AM	S	N
0000005762	0000001023		T000000009	C	Mar 30 2009  9:49:05:640AM	VISARED 2009-02033	S	Mar 30 2009  9:59:53:576AM	S	N
0000005764	T000000013		T000000009	C	Mar 30 2009  9:54:47:936AM	SUBSANADO 2009-01907	S	Mar 30 2009 11:30:33:326AM	S	N
0000005765	0000001023		T000000009	C	Mar 30 2009 10:07:04:390AM	VISARED 2009-02036	S	Mar 30 2009 10:19:59:093AM	S	N
0000005766	T000000013		T000000009	C	Mar 30 2009 10:07:04:390AM	VISARED 2009-02036	S	Mar 30 2009 11:37:33:483AM	S	N
0000005767	T000000006		0000001018	C	Mar 30 2009 11:00:09:353AM	GLORIA SAMARÍN  922.29.16.87	S	Apr  6 2009  2:05:37:110PM	S	N
0000005768	T000000006		0000001018	C	Mar 30 2009 11:47:51:680AM	CRISTO MANUEL  670.63.45.02	S	Apr  6 2009  2:05:27:860PM	S	N
0000005769	0000001001		0000001011	C	Mar 30 2009 12:07:53:013PM	JUAN JOSE SAAVEDRA GALLO QUIERE HABLAR CONTIGO	N		S	N
0000005770	0000001003		0000001011	C	Mar 30 2009 12:07:53:013PM	JUAN JOSE SAAVEDRA GALLO QUIERE HABLAR CONTIGO	N		S	N
0000005771	0000001012		0000001011	C	Mar 30 2009 12:07:53:013PM	JUAN JOSE SAAVEDRA GALLO QUIERE HABLAR CONTIGO	N		S	N
0000005772	0000001012		0000001011	C	Mar 30 2009 12:07:53:013PM	JUAN JOSE SAAVEDRA GALLO QUIERE HABLAR CONTIGO	N		S	N
0000005773	0000001023		0000001011	C	Mar 30 2009 12:07:53:013PM	JUAN JOSE SAAVEDRA GALLO QUIERE HABLAR CONTIGO	S	Mar 30 2009 12:39:50:343PM	S	N
0000005774	T000000001		0000001011	C	Mar 30 2009 12:07:53:013PM	JUAN JOSE SAAVEDRA GALLO QUIERE HABLAR CONTIGO	S	Mar 30 2009  1:26:44:156PM	S	N
0000005775	T000000016		0000001011	C	Mar 30 2009 12:07:53:013PM	JUAN JOSE SAAVEDRA GALLO QUIERE HABLAR CONTIGO	N		S	N
0000005776	AVANTIC		0000001011	C	Mar 30 2009 12:07:53:013PM	JUAN JOSE SAAVEDRA GALLO QUIERE HABLAR CONTIGO	N		S	N
0000005778	0000001015		0000001011	C	Mar 30 2009 12:07:53:013PM	JUAN JOSE SAAVEDRA GALLO QUIERE HABLAR CONTIGO	N		S	N
0000005779	T000000010		0000001011	C	Mar 30 2009 12:07:53:013PM	JUAN JOSE SAAVEDRA GALLO QUIERE HABLAR CONTIGO	S	Mar 30 2009  1:07:51:576PM	S	N
0000005780	T000000017		0000001011	C	Mar 30 2009 12:07:53:013PM	JUAN JOSE SAAVEDRA GALLO QUIERE HABLAR CONTIGO	N		S	N
0000005781	T000000018		0000001011	C	Mar 30 2009 12:07:53:013PM	JUAN JOSE SAAVEDRA GALLO QUIERE HABLAR CONTIGO	S	Mar 31 2009 12:58:28:390PM	S	N
0000005783	0000000001		0000001011	C	Mar 30 2009 12:07:53:013PM	JUAN JOSE SAAVEDRA GALLO QUIERE HABLAR CONTIGO	S	Jul 17 2009 10:45:08:920AM	S	N
0000005784	T000000013		0000001011	C	Mar 30 2009 12:07:53:013PM	JUAN JOSE SAAVEDRA GALLO QUIERE HABLAR CONTIGO	S	Mar 30 2009  1:14:16:936PM	S	N
0000005785	T000000004		0000001011	C	Mar 30 2009 12:07:53:013PM	JUAN JOSE SAAVEDRA GALLO QUIERE HABLAR CONTIGO	S	Mar 30 2009  1:32:43:376PM	S	N
0000005786	0000001501		0000001011	C	Mar 30 2009 12:07:53:013PM	JUAN JOSE SAAVEDRA GALLO QUIERE HABLAR CONTIGO	N		S	N
0000005787	0000001004		0000001011	C	Mar 30 2009 12:07:53:013PM	JUAN JOSE SAAVEDRA GALLO QUIERE HABLAR CONTIGO	N		S	N
0000005788	T000000005		0000001011	C	Mar 30 2009 12:07:53:013PM	JUAN JOSE SAAVEDRA GALLO QUIERE HABLAR CONTIGO	S	Jul 22 2009  9:50:57:360AM	S	N
0000005789	0000001024		0000001011	C	Mar 30 2009 12:07:53:013PM	JUAN JOSE SAAVEDRA GALLO QUIERE HABLAR CONTIGO	N		S	N
0000005791	0000001014		0000001011	C	Mar 30 2009 12:07:53:013PM	JUAN JOSE SAAVEDRA GALLO QUIERE HABLAR CONTIGO	S	Mar 31 2009  8:02:06:286AM	S	N
0000005793	T000000015		0000001011	C	Mar 30 2009 12:07:53:013PM	JUAN JOSE SAAVEDRA GALLO QUIERE HABLAR CONTIGO	N		S	N
0000005794	0000001017		0000001011	C	Mar 30 2009 12:07:53:013PM	JUAN JOSE SAAVEDRA GALLO QUIERE HABLAR CONTIGO	N		S	N
0000005797	T000000006		0000001011	C	Mar 30 2009 12:07:53:013PM	JUAN JOSE SAAVEDRA GALLO QUIERE HABLAR CONTIGO	S	Mar 31 2009  2:10:17:936PM	N	N
0000005798	0000001022		0000001011	C	Mar 30 2009 12:07:53:013PM	JUAN JOSE SAAVEDRA GALLO QUIERE HABLAR CONTIGO	S	Mar 30 2009  1:19:09:326PM	S	N
0000005799	T000000003		0000001011	C	Mar 30 2009 12:07:53:013PM	JUAN JOSE SAAVEDRA GALLO QUIERE HABLAR CONTIGO	S	Mar 30 2009  1:46:17:500PM	S	N
0000005800	T000000012		0000001011	C	Mar 30 2009 12:07:53:013PM	JUAN JOSE SAAVEDRA GALLO QUIERE HABLAR CONTIGO	S	Apr  1 2009 12:38:10:253PM	S	N
0000005801	T000000011		0000001011	C	Mar 30 2009 12:07:53:013PM	JUAN JOSE SAAVEDRA GALLO QUIERE HABLAR CONTIGO	S	Mar 30 2009  2:53:05:936PM	S	N
0000005803	0000001018		0000001011	C	Mar 30 2009 12:07:53:013PM	JUAN JOSE SAAVEDRA GALLO QUIERE HABLAR CONTIGO	S	Mar 30 2009  1:01:25:736PM	S	N
0000005804	T000000008		0000001011	C	Mar 30 2009 12:07:53:013PM	JUAN JOSE SAAVEDRA GALLO QUIERE HABLAR CONTIGO	N		S	N
0000005796	0000001009		0000001011	C	Mar 30 2009 12:07:53:013PM	JUAN JOSE SAAVEDRA GALLO QUIERE HABLAR CONTIGO	S	Mar 30 2009 12:12:30:953PM	S	N
0000005805	0000001011	RECIBI TU MENSAJE Y TE LLAME PERO DEBES ESTAR OCUPADA. ¿SABES PARA QUE?	0000001009	C	Mar 30 2009 12:37:29:466PM	JUAN J. SAAVEDRA	S	Mar 30 2009 12:49:46:476PM	N	N
0000005806	0000001023		0000001018	C	Mar 30 2009  1:01:18:986PM	GLORIA DE LA ASESORÍA RIVERO 922.26.81.20	S	Mar 30 2009  2:21:30:203PM	S	N
0000005808	T000000003		T000000009	C	Mar 31 2009  9:54:40:170AM	COMUNICADO COAC 2008-03830 -  81224	S	Mar 31 2009 12:10:27:140PM	S	N
0000005809	0000001023		0000001018	C	Mar 31 2009 10:18:09:073AM	EFRÉN AGUIAR 670.58.42.60	S	Mar 31 2009 10:27:39:296AM	S	N
0000005811	T000000013		0000001018	C	Mar 31 2009 11:08:11:130AM	WILFREDO  670.68.91.97	S	Mar 31 2009 11:17:16:826AM	S	N
0000005812	T000000013		0000001018	C	Mar 31 2009 11:52:50:523AM	CARLOS DOMÍNGUEZ DEL TORO  922.73.15.04	S	Mar 31 2009 11:57:15:796AM	S	N
0000005813	0000001023		0000001018	C	Mar 31 2009 12:30:41:896PM	INÉS BARONI  COLEGIADA DE LA GOMERA  2860  660.286.123	S	Mar 31 2009 12:38:33:936PM	S	N
0000005815	T000000006	Llamar a Dº José María, (hijo de Dº Federico)
Coleg. 3288
Tlf: 650-52-34-98	0000001014	C	Apr  1 2009 10:58:42:340AM	CENTRALITA	S	Apr  6 2009  1:59:23:626PM	N	N
0000005816	0000001023	Tere coleg. 1598
Llamar al tlf. 605-965-385	0000001014	C	Apr  1 2009 11:56:43:446AM	CENTRALITA	S	Apr  1 2009 12:01:25:640PM	N	N
0000005817	T000000006	El hijo de Dº Walkirio que lo llames cuando puedas. 
Tlf: 618-25-50-68	0000001014	C	Apr  2 2009  8:48:21:766AM	CENTRALITA	S	Apr  6 2009  1:59:15:766PM	N	N
0000005818	0000001023		T000000009	C	Apr  2 2009  8:40:20:030AM	VISARED 2009-02159	S	Apr  2 2009  8:52:59:640AM	S	N
0000005819	T000000013		T000000009	C	Apr  2 2009  8:40:20:030AM	VISARED 2009-02159	S	Apr  2 2009  9:07:37:360AM	S	N
0000005820	0000001023		0000001018	C	Apr  2 2009  9:29:54:573AM	JAVIER MARRERO  COL. 2482  686.43.86.41	S	Apr  2 2009 10:04:24:780AM	S	N
0000005821	T000000013		0000001018	C	Apr  2 2009 10:17:09:066AM	MARTA GLEZ.  922.79.09.40	S	Apr  2 2009 10:21:09:703AM	S	N
0000005822	T000000006		0000001018	C	Apr  2 2009 10:19:07:146AM	TERESA FORNIER MUSAAT 91.384.11.12	S	Apr  6 2009  1:32:36:110PM	S	N
0000005823	0000001023		0000001018	C	Apr  2 2009 10:24:46:256AM	MARÍA JESUS DE PARTE PABLO LÓPEZ 1095  922.53.78.43	S	Apr  2 2009 10:34:13:170AM	S	N
0000005825	T000000006		0000001018	C	Apr  2 2009 11:37:37:280AM	PEDRO MARCIAL 669.84.85.76	S	Apr  6 2009  1:59:11:640PM	S	N
0000005826	0000001023		0000001018	C	Apr  2 2009 12:27:40:196PM	SERGIO ALVAREZ  606.43.70.01	S	Apr  2 2009 12:25:08:983PM	S	N
0000005827	T000000006	Dª Ana María Arrate (Abogada)
Tlf: 616-59-69-57	0000001014	C	Apr  3 2009  9:38:28:220AM	CENTRALITA	S	Apr  6 2009  1:56:03:890PM	N	N
0000005828	T000000003	Dº José Enrique, coleg. 868 no recibe el correo.	0000001014	C	Apr  3 2009 10:29:33:660AM	CENTRALITA	S	Apr  3 2009  1:02:07:110PM	N	N
0000005829	T000000006	Dº Bruno Pérez Gorrín
Coleg. 2674
Tlf: 615-136-357	0000001014	C	Apr  3 2009 10:44:31:350AM	CENTRALITA	S	Apr  6 2009  1:53:28:500PM	N	N
0000005830	0000001023	Dº Juan Francisco Luis González.
Coleg: 1991
Tlf: 679-981-345.
Información sobre nuevas tarifas.	0000001014	C	Apr  3 2009 10:50:36:866AM	CENTRALITA	S	Apr  3 2009 10:52:12:063AM	N	N
0000005831	0000001023		T000000009	C	Apr  3 2009 11:43:07:890AM	VISARED 2009-02223	S	Apr  3 2009 12:22:58:500PM	S	N
0000005832	T000000013		T000000009	C	Apr  3 2009 11:43:07:890AM	VISARED 2009-02223	S	Apr  3 2009 12:23:56:140PM	S	N
0000005833	0000001023		T000000009	C	Apr  3 2009 11:51:42:953AM	VISARED 2009-02225	S	Apr  3 2009 12:23:04:280PM	S	N
0000005834	T000000013		T000000009	C	Apr  3 2009 11:51:42:953AM	VISARED 2009-02225	S	Apr  3 2009 12:23:58:860PM	S	N
0000005835	0000001023		T000000009	C	Apr  3 2009 12:15:25:780PM	VISARED 2009-02226	S	Apr  3 2009 12:23:06:436PM	S	N
0000005836	T000000013		T000000009	C	Apr  3 2009 12:15:25:780PM	VISARED 2009-02226	S	Apr  3 2009 12:28:15:280PM	S	N
0000005837	0000001023		T000000009	C	Apr  3 2009 12:18:26:876PM	VISARED 2009-02228	S	Apr  3 2009 12:40:18:750PM	S	N
0000005838	T000000013		T000000009	C	Apr  3 2009 12:18:26:876PM	VISARED 2009-02228	S	Apr  3 2009 12:32:54:030PM	S	N
0000005839	0000001023		T000000009	C	Apr  3 2009 12:22:15:420PM	2009-02230	S	Apr  3 2009 12:40:21:546PM	S	N
0000005840	T000000013		T000000009	C	Apr  3 2009 12:22:15:420PM	2009-02230	S	Apr  3 2009 12:42:30:280PM	S	N
0000005841	0000001023		T000000009	C	Apr  3 2009 12:35:25:860PM	VISARED 2009-02234	S	Apr  3 2009 12:55:51:876PM	S	N
0000005842	T000000013		T000000009	C	Apr  3 2009 12:35:25:860PM	VISARED 2009-02234	S	Apr  3 2009  1:06:23:016PM	S	N
0000005844	0000001023		T000000009	C	Apr  6 2009  9:16:51:780AM	VISARED 2009-02246	S	Apr  6 2009  9:27:01:780AM	S	N
0000005845	0000001023		0000001018	C	Apr  6 2009  9:28:48:663AM	JOSE LUIS  627.03.79.86	S	Apr  6 2009  9:27:12:516AM	S	N
0000005847	0000001023		T000000009	C	Apr  6 2009  9:25:18:610AM	VISARED 2009-02248	S	Apr  6 2009  9:36:46:420AM	S	N
0000005848	0000001023		T000000009	C	Apr  6 2009  9:28:17:030AM	VISRED 2009-02251	S	Apr  6 2009  9:36:48:546AM	S	N
0000005846	0000001023		T000000009	C	Apr  6 2009  9:22:55:313AM	VISARED 2009-01110	S	Apr  6 2009  9:36:43:703AM	S	N
0000005849	0000001023		T000000009	C	Apr  6 2009  9:31:05:466AM	VISARED 2009-02252	S	Apr  6 2009 10:06:46:420AM	S	N
0000005850	0000001023		T000000009	C	Apr  6 2009  9:34:47:860AM	VISARED 2009-02253	S	Apr  6 2009 10:06:56:576AM	S	N
0000005851	0000001023		T000000009	C	Apr  6 2009  9:37:46:766AM	VISARED 2009-02254	S	Apr  6 2009 10:07:03:016AM	S	N
0000005853	0000001023		T000000009	C	Apr  6 2009  9:42:18:983AM	VISRED 2009-02256	S	Apr  6 2009 10:07:08:436AM	S	N
0000005855	0000001023		T000000009	C	Apr  6 2009  9:56:33:953AM	SUBSANADO 2009-02036 SIGUE ESDTANDO MAL	S	Apr  6 2009 10:07:15:453AM	S	N
0000005856	0000001023		T000000009	C	Apr  6 2009 10:31:06:670AM	EXP. 2007-0410, SUB D.O. 2009-02036 Y COORD 2009-02262	S	Apr  6 2009 11:08:34:516AM	S	N
0000005857	T000000006		0000001018	C	Apr  6 2009 11:01:26:673AM	ALFREDO MORENO  618.961.553   669.265.738	S	Apr  6 2009  1:55:41:703PM	S	N
0000005858	0000001023		0000001018	C	Apr  6 2009 11:42:30:146AM	RAFAEL HDEZ. 1424  TLF:647.957.851  922.56.19.16	S	Apr  6 2009 12:35:17:326PM	S	N
0000005859	T000000006		0000001018	C	Apr  6 2009 11:57:39:826AM	PEDRO CRESCENTE  649.047.831	S	Apr  6 2009  1:51:48:686PM	S	N
0000005860	T000000002		0000001018	C	Apr  6 2009 12:45:13:296PM	JUAN CARLOS DÍEZ RIVERA  922.22.21.44	S	Apr  6 2009  1:46:26:750PM	S	N
0000005861	0000001023		0000001018	C	Apr  6 2009 12:48:30:743PM	FATIMA RAVELO  02649  625.59.68.36	S	Apr  6 2009  2:06:39:530PM	S	N
0000005862	T000000006		0000001018	C	Apr  6 2009 12:50:09:013PM	JESUS ARRATE 670.55.63.41	S	Apr  6 2009  1:51:28:813PM	S	N
0000005863	0000001023		T000000009	C	Apr  6 2009 12:49:40:640PM	SUBSANACIO PLANO 2 REF. 2009-01912	S	Apr  6 2009 12:57:40:156PM	S	N
0000005864	T000000006		0000001018	C	Apr  6 2009  1:32:11:350PM	IVAN HIJO DE WALKIRIO  626.11.59.54	S	Apr  6 2009  1:32:15:420PM	S	N
0000005865	T000000006		0000001018	C	Apr  6 2009  1:32:42:073PM	JUAN ALBERTO 2395   639.14.42.14   922.54.88.25	S	Apr  6 2009  1:32:40:656PM	S	N
0000005814	T000000006	Llamar a Dº  Francisco Hernández.
Coleg. 1600
Tlf: 675-81-27-46	0000001014	C	Apr  1 2009 10:52:02:486AM	CENTRALITA	S	Apr  6 2009  1:59:45:110PM	N	N
0000005866	0000001023		T000000009	C	Apr  7 2009 10:07:17:530AM	VISARED 2009-02325	S	Apr  7 2009 10:21:42:436AM	S	N
0000005867	0000001023		0000001018	C	Apr  7 2009 11:36:00:900AM	SERGIO CATALAN 3305  652.01.89.68	S	Apr  7 2009 11:44:17:766AM	S	N
0000005868	0000001023		0000001018	C	Apr  7 2009 11:38:14:343AM	D. ELÍAS COL. 318  606.093.988	S	Apr  7 2009 11:40:53:280AM	S	N
0000005870	0000001023		0000001018	C	Apr  7 2009 12:43:29:253PM	FRANCISCO MORENO COL. 1763  TLF  626.98.53.98	S	Apr  7 2009  1:01:15:920PM	S	N
0000005871	T000000006		0000001018	C	Apr  7 2009  1:26:36:793PM	IVAN HIJO DE WALKIRIO  626.11.59.54	S	Apr  7 2009  1:30:24:186PM	S	N
0000005872	0000001023		0000001014	C	Apr  8 2009  9:00:38:756AM	2009-02362	S	Apr  8 2009  9:30:54:280AM	N	N
0000005873	0000001023		0000001014	C	Apr  8 2009  9:18:17:450AM	2009-02369	S	Apr  8 2009  9:51:02:576AM	N	N
0000005874	0000001023		0000001014	C	Apr  8 2009  9:36:47:626AM	2009-02372	S	Apr  8 2009 10:29:27:796AM	N	N
0000005875	0000001023		0000001014	C	Apr  8 2009  9:43:43:833AM	2009-02373	S	Apr  8 2009 10:29:30:640AM	N	N
0000005876	0000001023		0000001014	C	Apr  8 2009  9:48:05:640AM	2009-02374	S	Apr  8 2009 10:29:32:563AM	N	N
0000005877	0000001023		0000001014	C	Apr  8 2009  9:51:21:563AM	2009-02376	S	Apr  8 2009 10:29:34:343AM	N	N
0000005878	0000001023		0000001014	C	Apr  8 2009  9:57:57:503AM	2009-02377	S	Apr  8 2009 10:29:36:156AM	N	N
0000005879	0000001023		0000001014	C	Apr  8 2009 10:01:38:920AM	2009-02379	S	Apr  8 2009 10:29:37:876AM	N	N
0000005880	0000001023		0000001014	C	Apr  8 2009 10:07:33:690AM	2009-02380	S	Apr  8 2009 10:29:39:826AM	N	N
0000005881	0000001023		0000001014	C	Apr  8 2009 10:10:53:646AM	2009-02382	S	Apr  8 2009 10:40:52:406AM	N	N
0000005882	T000000006		0000001018	C	Apr  8 2009 10:48:33:806AM	MIRIAM TOLEDO COL. 03085  680.671.985	S	Apr  8 2009  2:21:21:453PM	S	N
0000005883	T000000001		0000001018	C	Apr  8 2009 10:55:39:546AM	JOSE MIGUEL  647.394.684	S	Apr  8 2009 11:56:38:126AM	S	N
0000005884	0000001023		0000001018	C	Apr  8 2009 12:07:16:296PM	FERNANDO SANTANA COL. 2138  646.550.697	S	Apr  8 2009 12:14:20:826PM	S	N
0000005885	0000001023		0000001018	C	Apr  8 2009 12:10:46:746PM	ALEXIS GARCIA BARROSO 2733  645.646.128 O 656.457.126	S	Apr  8 2009  1:34:43:376PM	S	N
0000005886	0000001023		0000001014	C	Apr  8 2009 11:57:17:286AM	PLANO SUBSANADO 2009-02225	S	Apr  8 2009 12:50:20:156PM	N	N
0000005887	0000001023		0000001014	C	Apr  8 2009 12:03:56:943PM	SUBSANAD 2009-02325	S	Apr  8 2009 12:49:50:716PM	N	N
0000005888	0000001023		0000001018	C	Apr  8 2009  1:13:25:583PM	RAFAEL GARCIA 2875  605.319.601	S	Apr  8 2009  1:34:46:186PM	S	N
0000005889	T000000006		0000001018	C	Apr  8 2009  1:34:37:020PM	ISIDRO COL. 2766  TFL: 652.433.755	S	Apr  8 2009  2:21:34:233PM	S	N
0000005891	0000001023	Si lo puedes llamar.

Dº Juan Carlos, Coleg. 2725 
Tlf: 628-019-024


	0000001014	C	Apr 13 2009  9:41:50:256AM	CENTRALITA	S	Apr 13 2009  9:47:47:953AM	N	N
0000005892	T000000006	Dº Rafael Alberto Fernández Domínguez, Colg. 1424
	0000001014	C	Apr 13 2009  9:53:08:580AM	CENTRALITA	S	Apr 20 2009  1:41:42:953PM	N	N
0000005893	0000001023		T000000009	C	Apr 13 2009 10:01:48:593AM	SUBSANADO REF. 2009-02372 Y 2009-02373	S	Apr 13 2009 10:19:18:796AM	S	N
0000005894	T000000006	Dº Carlos Carmelo Bencomo García.
Coleg: 02211
Tlf: 696-84-08-66	0000001014	C	Apr 13 2009 11:06:25:783AM	CENTRALITA	S	Apr 20 2009  1:42:28:030PM	N	N
0000005895	T000000006	Dº Javier Marrero Correa.
Coleg. 2482
Tlf. 686-43-86-41	0000001014	C	Apr 13 2009 12:58:01:620PM	CENTRALITA	S	Apr 20 2009  1:42:23:876PM	N	N
0000005896	0000001023	Dº Javier Marrero Correa.
Coleg. 2482
Tlf. 686-43-86-41	0000001014	C	Apr 13 2009 12:59:36:886PM	CENTRALITA	S	Apr 13 2009  1:54:52:110PM	N	N
0000005897	0000001023		T000000009	C	Apr 13 2009  1:17:24:780PM	EXP. 2009-01267, D.O., E.B.S. Y COORD	S	Apr 13 2009  1:55:13:813PM	S	N
0000005898	T000000013		T000000009	C	Apr 13 2009  1:17:24:780PM	EXP. 2009-01267, D.O., E.B.S. Y COORD	S	Apr 13 2009  1:56:03:016PM	S	N
0000005899	0000001023		T000000009	C	Apr 13 2009  1:47:20:563PM	SUBSANADO EXP. 2007-00410	S	Apr 13 2009  1:55:17:826PM	S	N
0000005900	0000001023		T000000009	C	Apr 14 2009  9:35:45:016AM	MODIFICADO REF. 2009-02382, CERTIFICADO Y CARTA	S	Apr 14 2009 10:05:43:750AM	S	N
0000005901	T000000013		T000000009	C	Apr 14 2009  9:35:45:016AM	MODIFICADO REF. 2009-02382, CERTIFICADO Y CARTA	S	Apr 14 2009 10:29:55:500AM	S	N
0000005902	T000000006	 	0000001018	C	Apr 14 2009 11:44:17:056AM	ALFREDO MORENO 618.961.553	S	Apr 20 2009  1:42:20:860PM	S	N
0000005903	0000001023		0000001018	C	Apr 14 2009 12:11:52:986PM	AURELIO ALONSO  922.75.18.38	S	Apr 14 2009 12:33:55:716PM	S	N
0000005905	T000000013		0000001014	C	Apr 14 2009 12:32:24:880PM	MARIO MESA 922.224.129  619.163.143	S	Apr 14 2009  1:07:38:983PM	N	N
0000005906	0000001023		0000001014	C	Apr 14 2009 12:36:32:406PM	TERE HDEZ 605.965.385	S	Apr 14 2009 12:33:59:360PM	N	N
0000005907	0000001023		0000001014	C	Apr 14 2009 12:38:37:406PM	AURELIO ALONSO 922.75.18.38	S	Apr 14 2009 12:42:25:563PM	N	N
0000005908	T000000006		0000001014	C	Apr 14 2009 12:59:00:283PM	IVÁN EL HIJO DE WALKIRIO  626.11.59.54	S	Apr 20 2009  1:42:17:453PM	N	N
0000005909	T000000006	Llamar a Mª Jesús de La Palma. 
Tlf:922-41-33-51	0000001014	C	Apr 15 2009 10:00:43:996AM	CENTRALITA	S	Apr 20 2009  1:42:12:030PM	N	N
0000005910	0000001023		T000000009	C	Apr 15 2009 10:36:44:640AM	SUBSANADO REF. 2009-02362, VER OBSERVACIONES	S	Apr 15 2009 12:29:53:953PM	S	N
0000005911	0000001023		T000000009	C	Apr 15 2009 10:51:51:593AM	SUBSANADO 2009-02376	S	Apr 15 2009 12:29:57:110PM	S	N
0000005912	T000000006	Dº David Yanes.
Coleg.: 3158
Tlf: 639-638-569	0000001014	C	Apr 15 2009 12:19:44:140PM	CENTRALITA	S	Apr 20 2009  1:42:07:796PM	N	N
0000005913	T000000006	Dº Joaquín Sánchez Cots
Colg: 585
Tlf: 677-44-84-54	0000001014	C	Apr 15 2009 12:49:23:346PM	CENTRALITA	S	Apr 20 2009  1:42:03:266PM	N	N
0000005914	0000001023	Dº Luis Alberto Arnay
Col: 661
Tlf: 922-25-08-65
Aclarar reparos en el Nº de Reg. 2009-02318	0000001014	C	Apr 15 2009 12:56:19:126PM	CENTRALITA	S	Apr 15 2009  1:03:43:110PM	N	N
0000005915	0000001023	Dº Francisco Pérez Hernández
Colg: 2610
Tlf: 650-229-389
Aclarar reparos en el Nº de reg. 2009-01917	0000001014	C	Apr 15 2009  1:00:48:873PM	CENTRALITA	S	Apr 15 2009  1:34:35:813PM	N	N
0000005916	T000000006	Dº Jesús Rodríguez.
No es colegiado.
Tlf: 669-44-55-00	0000001014	C	Apr 15 2009  1:10:03:870PM	CENTRALITA	S	Apr 20 2009  1:41:57:920PM	N	N
0000005917	T000000006		0000001018	C	Apr 16 2009  8:59:17:460AM	JOSE Mª LOPÉZ DEL AMO (EL HIJO DE FEDERICO) 650.52.34.98	S	Apr 20 2009  1:41:51:953PM	S	N
0000005918	T000000006		0000001018	C	Apr 16 2009 10:31:56:793AM	DAVID YANES  639.638.569	S	Apr 20 2009  1:42:31:466PM	S	N
0000005919	T000000006		0000001018	C	Apr 16 2009 10:33:55:003AM	MIRIAM TOLEDO 659.11.93.34	S	Apr 20 2009  1:42:34:593PM	S	N
0000005920	T000000013		0000001018	C	Apr 16 2009 12:00:49:183PM	IGNACIO COSTUMERO COL. 02833, TLF:  607.563948	S	Apr 16 2009 12:18:24:703PM	S	N
0000005921	T000000013		0000001018	C	Apr 16 2009 12:03:46:496PM	VICTOR HDEZ. COL.  1684  TLF:  615.44.03.53	S	Apr 16 2009  1:31:26:170PM	S	N
0000005922	T000000006		0000001018	C	Apr 16 2009  1:29:14:770PM	FERNANDO OVIES 663.883.283	S	Apr 20 2009  1:42:37:516PM	S	N
0000005923	T000000006		0000001018	C	Apr 17 2009  9:02:17:036AM	MIRIAM TOLEDO  659.11.93.34	S	Apr 20 2009  1:42:40:436PM	S	N
0000005924	T000000013		0000001014	C	Apr 17 2009 10:47:55:843AM	2009-02601	S	Apr 17 2009 11:24:33:876AM	N	N
0000005925	T000000013		0000001014	C	Apr 17 2009 11:04:55:106AM	2009-02602	S	Apr 17 2009 11:43:18:750AM	N	N
0000005926	T000000013		0000001014	C	Apr 17 2009 11:25:28:140AM	2009-02606	S	Apr 17 2009 11:59:07:626AM	N	N
0000005927	T000000013		0000001018	C	Apr 17 2009 12:51:26:710PM	CAROLINA COL.1872 TLF:  630.050.234	S	Apr 20 2009 11:09:33:656AM	S	N
0000005928	T000000006		0000001018	C	Apr 17 2009 12:56:40:210PM	PATRICIO PERERA  667.45.86.93  922.20.90.56	S	Apr 20 2009  1:43:03:186PM	S	N
0000005929	T000000013		0000001018	C	Apr 17 2009  1:20:08:366PM	EDUARDO SUAREZ LECUONA  626.197.192	S	Apr 20 2009 11:14:37:093AM	S	N
0000005930	T000000003		T000000009	C	Apr 20 2009  9:16:32:483AM	CDO.  COAC 2009-02273 = 81894	S	Apr 20 2009  9:52:12:890AM	S	N
0000005931	T000000013		T000000009	C	Apr 20 2009 10:17:19:466AM	SUBSANADO 2009-02466	S	Apr 20 2009 11:07:43:780AM	S	N
0000005932	0000001023		T000000009	C	Apr 23 2009  8:52:42:796AM	SUBSANADO 2009-02379	S	Apr 23 2009 10:19:14:093AM	S	N
0000005933	0000001023		T000000009	C	Apr 23 2009  8:57:42:890AM	SUBSANADO 2009-02380	S	Apr 23 2009 10:19:16:500AM	S	N
0000005934	T000000006		0000001010	C	Apr 23 2009 11:28:09:620AM	BEATRIZ JIMÉNEZ 609.42.98.98	S	Apr 30 2009  1:08:15:076PM	S	N
0000005935	T000000006		0000001018	C	Apr 23 2009 11:52:03:343AM	FCO. GARCÍA DEL CONSEJO GENERAL 91.570.55.88	S	Apr 30 2009  1:08:19:406PM	S	N
0000005936	0000001023		T000000009	C	Apr 23 2009 12:25:53:670PM	VISARED 2009-02765, AVISARME CUANDO ESTE VDO.	S	Apr 23 2009  1:26:29:156PM	S	N
0000005937	T000000013		T000000009	C	Apr 23 2009 12:25:53:670PM	VISARED 2009-02765, AVISARME CUANDO ESTE VDO.	S	Apr 23 2009 12:41:37:826PM	S	N
0000005938	T000000013		0000001018	C	Apr 27 2009  9:22:54:886AM	GUILLERMO PEREZ ALBALADEJO 844  629.83.10.04	S	Apr 27 2009  9:33:58:876AM	S	N
0000005939	T000000006	EN RELACIÓN CON EL TEMA DE CARLOS CARMELO BENCOMO.	0000001018	C	Apr 27 2009 11:20:41:490AM	LLAMADA DE ISABEL PÉREZ DE MUSAAT  91.384.11.31	S	Apr 30 2009  1:08:38:186PM	S	N
0000005940	T000000006	DICE QUE LE DEJASTE UN MENSAJE EN SU CASA SOBRE ALGO REFERENTE CON EL JUZGADO DE GÜIMAR	0000001018	C	Apr 27 2009 11:39:41:300AM	BEATRIZ JIMÉNEZ  609.42.98.98	S	Apr 30 2009  1:08:48:156PM	S	N
0000005941	T000000006	Es un particular, me dice que tu estás llevando una documentación en la cual el figura como parte implicada, por lo que quería concertar una cita contigo.
TLF: 609.64.87.60.	0000001018	C	Apr 27 2009 11:53:55:726AM	ALFREDO GIL	S	Apr 30 2009  1:09:28:576PM	S	N
0000005944	T000000013	COMENTAR UN REPARO QUE LE PUSISTE.	0000001018	C	Apr 27 2009 12:32:35:763PM	SERGIO REYES 629.51.67.23	S	Apr 28 2009 11:43:28:733AM	S	N
0000005945	T000000006	EN RELACIÓN A UN ESCRITO.	0000001018	C	Apr 27 2009  1:08:42:186PM	CARMELO BENCOMO 696.84.08.66	S	Apr 30 2009  1:09:01:203PM	S	N
0000005946	0000001023		T000000009	C	Apr 27 2009  1:04:01:170PM	SUBSANADO 2009-02377	S	Apr 27 2009  1:33:11:093PM	S	N
0000005947	0000001023		T000000009	C	Apr 27 2009  1:07:17:890PM	VISARED 2009-02846	S	Apr 27 2009  1:33:15:390PM	S	N
0000005948	T000000013		T000000009	C	Apr 27 2009  1:07:17:890PM	VISARED 2009-02846	S	Apr 28 2009 11:46:05:076AM	S	N
0000005950	T000000006	 	0000001018	C	Apr 28 2009  9:12:58:066AM	DAVID YANES 3158   639.638.569	S	Apr 30 2009  1:09:15:203PM	S	N
0000005951	T000000006	TIENE UN JUICIO EL DIA 7 DE MAYO Y NECESITA HABLAR URGENTE CONTIGO.	0000001018	C	Apr 28 2009  9:35:22:920AM	JOSE VÍCTOR 1852  607.92.72.76	S	Apr 30 2009  1:09:10:670PM	S	N
0000005952	0000001023		0000001018	C	Apr 28 2009 12:55:40:940PM	FERNANDO COL. 02050  637.81.91.62	S	Apr 28 2009  1:04:37:466PM	S	N
0000005953	T000000006		0000001018	C	Apr 28 2009  1:31:13:320PM	CARLOS CARMELO DE NUEVO	S	Apr 30 2009  1:09:05:876PM	S	N
0000005954	T000000003		T000000009	C	Apr 30 2009  9:25:03:076AM	2009-02814 = 80779, SOLO BORRAR DE LISTA YA ESTA PARA VISDOS	S	Apr 30 2009 10:07:06:063AM	S	N
0000005955	0000001023		T000000009	C	Apr 30 2009  1:16:45:780PM	VISRED 2009-02965	S	Apr 30 2009  1:29:15:576PM	S	N
0000005956	T000000013		T000000009	C	Apr 30 2009  1:16:45:780PM	VISRED 2009-02965	S	Apr 30 2009  1:28:49:093PM	S	N
0000005957	0000001023		T000000009	C	May  5 2009 10:52:36:170AM	VISARED 2009-02991	S	May  5 2009 11:09:40:046AM	S	N
0000005958	T000000013		T000000009	C	May  5 2009 10:52:36:170AM	VISARED 2009-02991	S	May  5 2009 11:20:21:406AM	S	N
0000005959	T000000013		T000000009	C	May  8 2009 12:34:43:626PM	VISARED 2009-03092	S	May  8 2009  1:41:30:936PM	S	N
0000005960	T000000013		T000000009	C	May  8 2009 12:45:22:983PM	VISARED 2009-03096	S	May  8 2009  1:50:53:953PM	S	N
0000005961	T000000011		T000000009	C	May 11 2009  9:48:58:390AM	COMUNCIACION RENUNCIA REF. 2002-01459	S	May 11 2009 10:35:38:313AM	S	N
0000005962	0000001023		T000000009	C	May 12 2009  7:38:31:296AM	VISARED 2009-03135	S	May 12 2009  8:23:49:626AM	S	N
0000005963	T000000013		T000000009	C	May 12 2009  7:38:31:296AM	VISARED 2009-03135	S	May 12 2009  7:51:06:516AM	S	N
0000005964	0000001023		T000000009	C	May 12 2009  7:43:08:563AM	VISARED 2009-03136	S	May 12 2009  8:23:56:953AM	S	N
0000005965	T000000013		T000000009	C	May 12 2009  7:43:08:563AM	VISARED 2009-03136	S	May 12 2009  8:01:31:920AM	S	N
0000005966	0000001023		T000000009	C	May 13 2009  8:59:55:716AM	VISARED 2009-03175	S	May 13 2009  9:31:37:016AM	S	N
0000005967	T000000013		T000000009	C	May 13 2009  8:59:55:716AM	VISARED 2009-03175	S	May 13 2009  9:23:59:343AM	S	N
0000005968	0000001023		T000000009	C	May 13 2009  9:06:49:860AM	VISARED 2009-03176	S	May 13 2009  9:31:32:326AM	S	N
0000005969	T000000013		T000000009	C	May 13 2009  9:06:49:860AM	VISARED 2009-03176	S	May 13 2009  9:24:02:250AM	S	N
0000005970	0000001023		T000000009	C	May 13 2009  9:22:48:140AM	VISARED 2009-03178	S	May 13 2009  9:31:25:280AM	S	N
0000005971	T000000013		T000000009	C	May 13 2009  9:22:48:140AM	VISARED 2009-03178	S	May 13 2009  9:39:50:326AM	S	N
0000005972	T000000003		T000000009	C	May 13 2009 10:05:03:280AM	COMUNICADO COAC 2009-03096 = 82157	S	May 13 2009 11:59:49:670AM	S	N
0000005973	T000000013		T000000009	C	May 13 2009 10:41:36:343AM	SUBSANADO 2009-03135	S	May 13 2009 12:41:07:326PM	S	N
0000005974	T000000013		T000000009	C	May 13 2009 10:48:49:686AM	VISARED 2009-03136	S	May 13 2009 12:41:16:640PM	S	N
0000005975	T000000013		T000000009	C	May 13 2009 10:49:32:500AM	SUBSANADO 2009-03136	S	May 13 2009 12:46:09:216PM	S	N
0000005976	T000000013		T000000009	C	May 13 2009 10:57:37:186AM	SUBSANADO PLANO 2009-02765	S	May 13 2009 12:46:33:030PM	S	N
0000005977	0000001023		T000000009	C	May 13 2009 11:43:59:186AM	SUBSANADO 2009-03178	S	May 13 2009 12:16:41:733PM	S	N
0000005978	0000001023		T000000009	C	May 14 2009  9:27:25:983AM	VISARED 2009-03234	S	May 14 2009  9:38:51:626AM	S	N
0000005979	T000000013		T000000009	C	May 14 2009  9:27:25:983AM	VISARED 2009-03234	S	May 14 2009  9:40:48:343AM	S	N
0000005980	T000000013		0000001018	C	May 14 2009 10:07:42:286AM	DAVID YANES 639.638.569	S	May 14 2009 10:10:58:826AM	S	N
0000005981	T000000013		0000001018	C	May 14 2009 11:53:32:626AM	JOSE MANUEL SOSA 947 617.55.04.70	S	May 14 2009 12:03:35:453PM	S	N
0000005982	T000000013		0000001018	C	May 14 2009 11:59:10:213AM	FERNANDO CORDERO  636.87.27.63	S	May 14 2009 12:03:39:670PM	S	N
0000005984	T000000003		T000000009	C	May 14 2009  1:06:35:046PM	VISDO COAC 2009-03070  = 82193	S	May 14 2009  1:43:53:233PM	S	N
0000005985	T000000013		0000001018	C	May 15 2009  8:56:04:880AM	DAVID YANES 639.638.569	S	May 15 2009  9:36:34:063AM	S	N
0000005986	0000001023		0000001018	C	May 15 2009 11:17:21:266AM	MARIA DEL PILAR VELÁZQUEZ  922.50.24.96	S	May 15 2009 11:44:40:686AM	N	N
0000005987	T000000013	DICE QUE TE MANDO POR E-MAIL EL PROYECTO VISADO.	0000001018	C	May 15 2009 11:57:08:200AM	FERNANDO ARROYO 2288 TLF: 669.44.61.19	S	May 15 2009 12:01:11:640PM	N	N
0000005989	T000000013		T000000009	C	May 15 2009  1:47:36:750PM	SUBSANADO 2009-03096	S	May 18 2009  8:16:01:906AM	S	N
0000005990	0000001023		T000000009	C	May 18 2009  9:45:56:140AM	SUBSANADO 2009-03178	S	May 18 2009  9:55:53:093AM	S	N
0000005991	T000000013		0000001018	C	May 18 2009 11:33:54:646AM	ALFREDO 1696  TLF: 667.756.198	S	May 18 2009 11:50:50:343AM	N	N
0000005992	T000000013		0000001018	C	May 18 2009 12:12:21:090PM	IRENE AFONSO 922.510.911	S	May 18 2009 12:14:52:000PM	N	N
0000005993	0000001023		0000001018	C	May 18 2009 12:16:25:073PM	JUAN MIGUEL BORGES HDEZ. 3277  922.37.18.59.	S	May 18 2009 12:36:26:546PM	N	N
0000005994	T000000013		0000001018	C	May 18 2009 12:17:02:226PM	IRENE DE NUEVO 626.28.07.29	S	May 18 2009 12:46:38:626PM	N	N
0000005995	T000000013		0000001018	C	May 20 2009  9:19:19:636AM	ANTONIO PEREZ MARTIN 1316 TLF:696.47.10.66	S	May 20 2009  9:27:28:156AM	N	N
0000005996	0000001023		0000001018	C	May 20 2009  9:37:14:983AM	ESTHER 2358  TLF: 639.22.18.74	S	May 20 2009  9:46:01:203AM	N	N
0000005997	T000000013		0000001018	C	May 20 2009 10:41:56:423AM	FERNANDO CORDERO 636.87.27.63	S	May 20 2009 10:45:54:876AM	N	N
0000005998	0000001023		0000001018	C	May 20 2009 11:06:11:156AM	LUCIANO 2187  TLF: 669.026.129	S	May 20 2009 11:26:58:640AM	N	N
0000005999	0000001023		0000001018	C	May 20 2009 11:17:42:830AM	VICTOR PROMOTORA PUNTA LARGA  922.50.04.12	S	May 20 2009 11:27:16:266AM	N	N
0000006000	0000001023		0000001018	C	May 21 2009  9:01:48:823AM	DAILOS DORTA 2876  TLF: 630.47.41.99	S	May 21 2009  9:44:23:953AM	N	N
0000006001	0000001023		T000000009	C	May 21 2009  9:23:19:796AM	VISARED 2009-03429	S	May 21 2009  9:44:52:313AM	S	N
0000006002	T000000013		T000000009	C	May 21 2009  9:23:19:796AM	VISARED 2009-03429	S	May 21 2009 10:46:10:576AM	S	N
0000006003	0000001023		0000001018	C	May 21 2009 10:42:56:236AM	JOSE PERERA COL. 375 TLF: 600.35.42.25	S	May 21 2009 11:43:01:076AM	N	N
0000006004	T000000013		0000001018	C	May 21 2009 11:01:40:443AM	KARIM  669.15.88.00	S	May 21 2009 11:06:30:936AM	N	N
0000006005	T000000013		0000001018	C	May 21 2009 11:08:24:083AM	JOSE LUIS MARTIN  922.54.61.60	S	May 21 2009 11:09:28:920AM	N	N
0000006007	0000001023		T000000009	C	May 22 2009 11:47:57:156AM	VISARED 2009-03491	S	May 22 2009  1:14:46:093PM	S	N
0000006008	T000000013		T000000009	C	May 22 2009 11:47:57:156AM	VISARED 2009-03491	S	May 22 2009 12:29:35:266PM	S	N
0000006009	0000001023		T000000009	C	May 22 2009 11:51:39:420AM	VISRED 2009-03492	S	May 22 2009  1:14:53:796PM	S	N
0000006010	T000000013		T000000009	C	May 22 2009 11:51:39:420AM	VISRED 2009-03492	S	May 22 2009 12:32:24:126PM	S	N
0000006011	0000001023		T000000009	C	May 22 2009 11:58:08:966AM	VISARED 2009-03493	S	May 22 2009  1:14:50:203PM	S	N
0000006012	T000000013		T000000009	C	May 22 2009 11:58:08:966AM	VISARED 2009-03493	S	May 22 2009 12:32:29:920PM	S	N
0000006013	0000001023		0000001018	C	May 22 2009 12:34:06:696PM	FRANCSICO SANTAELLA  678.42.30.11	S	May 22 2009  1:14:58:483PM	N	N
0000006014	T000000003	2009-03369 =  82269 SOLO BORRAR DE LISTA	T000000009	C	May 25 2009  9:49:59:266AM	COMUNICADO COAC	S	May 25 2009 10:58:58:186AM	S	N
0000006015	0000001023		T000000009	C	May 25 2009 10:53:07:000AM	SUBSANADO 2009-02379	S	May 25 2009 11:10:22:843AM	S	N
0000006016	T000000013		T000000009	C	May 25 2009 10:53:07:000AM	SUBSANADO 2009-02379	S	May 25 2009 12:17:56:453PM	S	N
0000006017	0000001023		T000000009	C	May 25 2009 12:56:45:063PM	VISARED 2009-03523	S	May 25 2009  2:08:51:530PM	S	N
0000006018	T000000013		T000000009	C	May 25 2009 12:56:45:063PM	VISARED 2009-03523	S	May 25 2009  1:17:20:126PM	S	N
0000006019	0000001023		T000000009	C	May 26 2009  8:30:32:126AM	ANXO FRAN 2009-03549 VISARED	S	May 26 2009  9:35:21:546AM	S	N
0000006021	T000000013		T000000009	C	May 26 2009  8:38:58:920AM	VISARED 2009-03550	S	May 26 2009  9:05:51:483AM	S	N
0000006022	T000000013		T000000009	C	May 26 2009  9:07:34:313AM	EXP. VISARED 2009-01795  CON 3 REGISTROS, UNO SUBSANADO	S	May 26 2009  9:27:51:593AM	S	N
0000006023	T000000004		T000000009	C	May 26 2009  9:21:09:610AM	VISARED 2009-03560	S	May 27 2009 12:32:27:420PM	S	N
0000006020	0000001023		T000000009	C	May 26 2009  8:38:58:920AM	VISARED 2009-03550	S	May 26 2009  9:35:24:186AM	S	N
0000006024	T000000013		T000000009	C	May 26 2009  9:33:56:890AM	VISARED 2009-03561	S	May 26 2009  9:53:05:140AM	S	N
0000006025	T000000013		T000000009	C	May 26 2009  1:21:15:656PM	VISARED EXP. 2009-01795, SON 3 REGISTROS	S	May 26 2009  1:49:29:216PM	S	N
0000006026	T000000013		T000000009	C	May 27 2009  2:11:23:500PM	ANEXO DE RAMON RIPADO 2009-03556	S	May 28 2009  8:02:00:406AM	S	N
0000006027	T000000013		T000000009	C	May 27 2009  2:15:14:670PM	ANEXO DE RAMON RIPADO PROYECTO 2009-03523	S	May 28 2009  8:02:03:156AM	S	N
0000006028	T000000013		T000000009	C	May 28 2009  8:55:38:453AM	FINAL VISARED 2009-03633 EXP. 2009-01795	S	May 28 2009  9:12:07:703AM	S	N
0000006029	T000000013		0000001022	C	May 28 2009  9:38:34:300AM	BEATRIZ ROPON 686.30.65.11	S	May 28 2009 11:28:16:016AM	S	N
0000006030	T000000013		0000001018	C	May 28 2009 12:47:05:996PM	RAMÓN RIPADO  687.928.616	S	May 28 2009  1:14:54:030PM	N	N
0000006033	0000001023		0000001018	C	May 29 2009 10:06:20:733AM	PABLO LOPEZ DE NUEVO 650.57.27.01	S	May 29 2009 10:10:43:906AM	N	N
0000006034	T000000013		0000001018	C	May 29 2009 10:34:12:596AM	RAMON RIPADO  687.928.616	S	May 29 2009 10:39:04:076AM	N	N
0000006035	T000000013		T000000009	C	May 29 2009 10:40:54:466AM	VISAARED 2009-03677, EXP. 2009-01795	S	May 29 2009 11:21:23:716AM	S	N
0000006036	T000000013		0000001018	C	May 29 2009 11:48:43:646AM	PACO MONTAÑES TLF: 657.80.30.46	S	May 29 2009 12:37:34:436PM	N	N
0000006037	T000000013	EDUARDO, HAY UN VISARED QUE VIENE DE UNA RESCICION.
YA SE VENCIO EL PLAZO PARA CONTESTAR A LA COMUNICACION DE RESCISION.
EL EXPDTE DE COSME LO ANULE, NO ESTABA FIRMADO POR LA PROPIEDAD Y EL TELEFONICAMENTE ME DIJO QUE LO ANULARA, QUE CUANDO EL VENGA POR AQUI LOI ANULA.
?QUE TE PARECE?

REGISTRO: 2009-03631	0000001022	C	Jun  1 2009  9:19:07:000AM	EXDTE. DE RESCISION EXPDTE. 1997-02845	S	Jun  1 2009 11:47:02:250AM	N	N
0000006038	0000001023		T000000009	C	Jun  2 2009 12:59:17:093PM	ANEXO PACO MONTAÑEZ E.S. REF. 2009-03550	S	Jun  2 2009  1:36:32:203PM	S	N
0000006039	0000001023		T000000009	C	Jun  3 2009  9:41:57:376AM	VISARED 2009-03780	S	Jun  3 2009 10:04:15:530AM	S	N
0000006040	0000001023		T000000009	C	Jun  3 2009  1:55:24:593PM	SUBSANADO 2009-03631	S	Jun  4 2009  8:29:40:420AM	S	N
0000006041	0000001023		T000000009	C	Jun  3 2009  2:12:38:030PM	VISARED 2009-03817	S	Jun  4 2009  8:30:13:796AM	S	N
0000006042	T000000013		T000000009	C	Jun  3 2009  2:12:38:030PM	VISARED 2009-03817	S	Jun  4 2009  7:46:25:563AM	S	N
0000006043	0000001023		T000000009	C	Jun  4 2009 10:52:52:376AM	VISARED 2009-03834	S	Jun  4 2009 11:21:52:030AM	S	N
0000006044	T000000013		T000000009	C	Jun  4 2009 10:52:52:376AM	VISARED 2009-03834	S	Jun  4 2009 11:23:20:983AM	S	N
0000006045	T000000003	2009-03694 = 82112	T000000009	C	Jun  4 2009 12:02:55:203PM	COMUNICADO COAC	S	Jun  5 2009  8:59:15:016AM	S	N
0000006046	0000001023		T000000009	C	Jun  4 2009  1:46:56:500PM	SUBSANADO VISARED 2009-03560, CARTA TECNICO ANULANDO COORD	S	Jun  5 2009  8:19:32:813AM	S	N
0000006047	0000001023		T000000009	C	Jun  5 2009  2:49:57:843PM	VISARED 2009-03912	S	Jun  8 2009  8:51:52:216AM	S	N
0000006048	T000000013		T000000009	C	Jun  5 2009  2:49:57:843PM	VISARED 2009-03912	S	Jun  8 2009  9:07:58:233AM	S	N
0000006049	0000001023		T000000009	C	Jun  5 2009  2:53:46:280PM	VISARED 2009-03913	S	Jun  8 2009  8:51:54:983AM	S	N
0000006050	T000000013		T000000009	C	Jun  5 2009  2:53:46:280PM	VISARED 2009-03913	S	Jun  8 2009  9:17:59:376AM	S	N
0000006052	T000000013		0000001018	C	Jun  8 2009 11:44:23:703AM	YURENA COL. 3191 606.57.53.90	S	Jun  8 2009 11:48:13:516AM	N	N
0000006053	T000000013		0000001018	C	Jun  8 2009 12:23:55:013PM	INMA 616.62.90.95 LA DEL VISARED	S	Jun  8 2009 12:25:55:140PM	N	N
0000006054	0000001023		0000001014	C	Jun  9 2009  9:40:24:946AM	2009-03964	S	Jun  9 2009 10:31:35:376AM	N	N
0000006055	T000000013		0000001014	C	Jun  9 2009  9:40:24:946AM	2009-03964	S	Jun  9 2009 10:23:15:530AM	N	N
0000006056	T000000013		0000001018	C	Jun  9 2009 10:20:35:063AM	IGNACIO  COL. 1346   679.18.06.89	S	Jun  9 2009 10:25:07:216AM	N	N
0000006057	T000000013		0000001018	C	Jun  9 2009 11:47:57:230AM	ELENA BELDA 922.21.30.98  620.89.00.70	S	Jun  9 2009 11:48:56:453AM	N	N
0000006058	T000000013		0000001018	C	Jun  9 2009 12:14:19:253PM	ERNESTO GALTOR  822.01.29.70	S	Jun 10 2009  9:08:49:453AM	N	N
0000006059	0000001023		0000001018	C	Jun  9 2009  1:34:25:646PM	JOSE DOMINGO 2794  629.511.224	S	Jun  9 2009  1:59:48:326PM	N	N
0000006060	T000000013		0000001018	C	Jun  9 2009  1:36:34:440PM	PABLO LOPEZ  650.57.27.01	S	Jun 10 2009  9:11:02:140AM	N	N
0000006061	T000000013		T000000009	C	Jun 10 2009  9:38:21:703AM	SUBSANADO 2009-03912	S	Jun 10 2009 10:10:17:626AM	S	N
0000006062	0000001023		T000000009	C	Jun 10 2009 10:17:09:826AM	VISARED 2009-04008	S	Jun 10 2009 10:38:46:453AM	S	N
0000006063	T000000013		T000000009	C	Jun 10 2009 10:17:09:826AM	VISARED 2009-04008	S	Jun 10 2009 10:41:49:326AM	S	N
0000006064	T000000013		T000000009	C	Jun 10 2009 10:43:11:936AM	SUBSANADO 2009-03817	S	Jun 10 2009 10:59:21:516AM	S	N
0000006065	T000000013		0000001018	C	Jun 10 2009 12:39:58:730PM	IGNACIO 1346  679.18.06.89	S	Jun 10 2009  1:36:17:170PM	N	N
0000006066	0000001023		0000001018	C	Jun 10 2009  1:22:28:926PM	ALFREDO RGUEZ. 1787   669.378.387	S	Jun 10 2009  1:28:00:576PM	N	N
0000006067	0000001023		T000000009	C	Jun 11 2009  9:38:57:966AM	SUBSANADO 2009-01546	S	Jun 11 2009  9:51:31:046AM	S	N
0000006068	0000001023		0000001018	C	Jun 11 2009 10:40:25:906AM	MIGUEL ANGEL PEREZ DEL ROCIO  922.57.71.20	S	Jun 11 2009 10:58:51:326AM	N	N
0000006069	0000001023		0000001018	C	Jun 11 2009 11:47:51:383AM	SAMUEL GARCIA 699.635.702	S	Jun 15 2009  8:29:40:670AM	N	N
0000006070	0000001023		0000001018	C	Jun 11 2009 12:54:41:590PM	VICTOR F. PADILLA  607.92.72.76	S	Jun 15 2009  8:29:44:093AM	N	N
0000006071	0000001023		0000001018	C	Jun 11 2009 12:57:42:340PM	FERMIN GUTIERREZ  619.046.973	S	Jun 15 2009  8:29:47:203AM	N	N
0000006072	T000000013		T000000009	C	Jun 15 2009 11:17:44:326AM	SUBSANADO 2009-00689, EXP. YA RETIRADO	S	Jun 15 2009 11:35:11:640AM	S	N
0000006073	0000001023		T000000009	C	Jun 16 2009  8:07:52:610AM	VISARED 2009-04152	S	Jun 16 2009  8:35:52:780AM	S	N
0000006074	T000000013		T000000009	C	Jun 16 2009  8:07:52:610AM	VISARED 2009-04152	S	Jun 16 2009  8:38:56:076AM	S	N
0000006075	0000001023		T000000009	C	Jun 16 2009  8:25:33:656AM	VISARED 2009-04153, EXP. 2009-00051	S	Jun 16 2009  8:35:55:796AM	S	N
0000006076	T000000013		T000000009	C	Jun 16 2009  8:25:33:656AM	VISARED 2009-04153, EXP. 2009-00051	S	Jun 16 2009  8:39:00:233AM	S	N
0000006077	0000001023		T000000009	C	Jun 16 2009  8:34:46:686AM	VISERED 2009-04155	S	Jun 16 2009  8:49:52:610AM	S	N
0000006078	T000000013		T000000009	C	Jun 16 2009  8:34:46:686AM	VISERED 2009-04155	S	Jun 16 2009  8:59:01:390AM	S	N
0000006079	0000001023		T000000009	C	Jun 16 2009  8:39:45:266AM	SUBSANADO 2009-01546, CARTA ANULANDO ANEXO DE 11/06/09	S	Jun 16 2009  8:50:05:750AM	S	N
0000006080	T000000013		T000000009	C	Jun 16 2009  9:18:32:563AM	SUB. 2008-10140, REENVIAR RENOMBRANDO TODOS LOS ARCHIVOS	S	Jun 16 2009  9:40:03:076AM	S	N
0000006081	T000000013		T000000009	C	Jun 16 2009 10:51:57:716AM	SUBSANADO 2009-04155	S	Jun 16 2009 12:09:44:343PM	S	N
0000006082	T000000013		T000000009	C	Jun 16 2009 10:57:21:390AM	ANEXO VISARED 2009-00120, ACTA RECEPCION	S	Jun 16 2009 12:12:31:766PM	S	N
0000006083	T000000013		0000001018	C	Jun 16 2009 11:35:04:113AM	JOSE MANUEL 617.55.04.70	S	Jun 16 2009 12:22:36:280PM	N	N
0000006084	T000000013		0000001018	C	Jun 16 2009 12:50:01:180PM	MERCHE DEL HIERRO DIICE QUE LA LLAMES	S	Jun 16 2009  1:05:34:170PM	N	N
0000006085	T000000013		0000001018	C	Jun 16 2009 12:51:44:816PM	PEDRO HDEZ  922.27.14.64 DICE QUE ES ALGO MUY IMPORTANTE	S	Jun 16 2009  1:00:40:716PM	N	N
0000006086	T000000013		0000001018	C	Jun 16 2009  1:07:15:866PM	CRISTO PALENZUELA 646.82.60.87	S	Jun 17 2009  8:28:11:203AM	N	N
0000006087	0000001023		0000001018	C	Jun 16 2009  1:10:07:283PM	CRISTO MANUEL 670.63.45.02	S	Jun 16 2009  1:28:46:280PM	N	N
0000006088	0000001023		T000000009	C	Jun 18 2009  9:01:28:546AM	VISARED 2009-04232	S	Jun 18 2009  9:33:40:360AM	S	N
0000006089	T000000013		T000000009	C	Jun 18 2009  9:01:28:546AM	VISARED 2009-04232	S	Jun 18 2009  9:20:59:313AM	S	N
0000006090	0000001023		T000000009	C	Jun 18 2009  9:16:10:516AM	VISARED 2009-04236	S	Jun 18 2009  9:33:43:436AM	S	N
0000006091	T000000013		T000000009	C	Jun 18 2009  9:16:10:516AM	VISARED 2009-04236	S	Jun 18 2009  9:43:39:936AM	S	N
0000006092	0000001023		T000000009	C	Jun 18 2009  9:27:40:266AM	VISARED 2009-04238	S	Jun 18 2009 10:05:38:906AM	S	N
0000006093	T000000013		T000000009	C	Jun 18 2009  9:27:40:266AM	VISARED 2009-04238	S	Jun 18 2009  9:43:43:376AM	S	N
0000006094	T000000013		T000000009	C	Jun 18 2009  1:20:39:266PM	SUBSANADO 2009-04232	S	Jun 19 2009  8:34:36:640AM	S	N
0000006095	T000000013		T000000009	C	Jun 18 2009  1:40:39:966PM	VISARED 2009-04236	S	Jun 19 2009  8:41:24:530AM	S	N
0000006096	0000001023		T000000009	C	Jun 22 2009  8:53:21:233AM	VISARED 2009-04306	S	Jun 22 2009  9:12:34:796AM	S	N
0000006097	T000000013		T000000009	C	Jun 22 2009  8:53:21:233AM	VISARED 2009-04306	S	Jun 22 2009  9:10:04:593AM	S	N
0000006098	T000000013		T000000009	C	Jun 22 2009  9:07:26:436AM	SUBSANADO 2009-02601	S	Jun 22 2009  9:29:03:076AM	S	N
0000006099	0000001023		T000000009	C	Jun 22 2009  9:15:22:296AM	VISARED 2009-04309	S	Jun 22 2009  9:33:47:343AM	S	N
0000006100	T000000013		T000000009	C	Jun 22 2009  9:15:22:296AM	VISARED 2009-04309	S	Jun 22 2009  9:27:55:436AM	S	N
0000006101	0000001023		T000000009	C	Jun 22 2009  9:22:18:420AM	VISARED 2009-04311	S	Jun 22 2009  9:33:50:516AM	S	N
0000006102	T000000013		T000000009	C	Jun 22 2009  9:22:18:420AM	VISARED 2009-04311	S	Jun 22 2009  9:37:59:670AM	S	N
0000006103	T000000013		T000000009	C	Jun 23 2009  9:14:51:326AM	PETICION VISADO ACTA RECEPCION 2009-00120, OK	S	Jun 23 2009  9:49:00:500AM	S	N
0000006104	T000000013		0000001018	C	Jun 23 2009 10:06:35:103AM	CLEMENTE VERA 687.85.18.44	S	Jun 23 2009 10:29:52:716AM	N	N
0000006105	0000001023		T000000009	C	Jun 23 2009  1:17:05:343PM	MODIFICADO VISARED 2009-04368	S	Jun 24 2009  8:38:17:500AM	S	N
0000006106	T000000013		T000000009	C	Jun 23 2009  1:17:05:343PM	MODIFICADO VISARED 2009-04368	S	Jun 24 2009  8:16:22:500AM	S	N
0000006107	T000000013		0000001018	C	Jun 24 2009  9:02:43:510AM	CANDELARIA  667.76.24.76	S	Jun 24 2009  9:29:48:826AM	N	N
0000006108	T000000013		0000001018	C	Jun 24 2009 11:27:40:353AM	CANDE COL. 2980  922.17.16.45	S	Jun 24 2009 12:52:55:626PM	N	N
0000006109	0000001023		T000000009	C	Jun 24 2009  1:42:00:516PM	VISARED  2009-04414	S	Jun 25 2009  8:02:53:766AM	S	N
0000006110	T000000013		T000000009	C	Jun 24 2009  1:42:00:516PM	VISARED  2009-04414	S	Jun 25 2009  8:15:54:436AM	S	N
0000006111	T000000013	
	T000000009	C	Jun 26 2009  9:28:57:483AM	VISARED 2009-04453	S	Jun 26 2009 10:06:30:593AM	S	N
0000006112	0000001023		0000001018	C	Jun 29 2009 11:01:03:606AM	IGNACIO ACOSTA 679.18.06.89	S	Jun 29 2009 11:29:04:966AM	N	N
0000006113	T000000013		0000001018	C	Jun 30 2009  9:12:52:996AM	EDUARDO LOPEZ 2307 600.480.132	S	Jun 30 2009  9:28:30:296AM	N	N
0000006114	T000000013		0000001018	C	Jun 30 2009  9:50:00:636AM	MARCOS HDEZ. 2962  650.945.333  651.078.016	S	Jun 30 2009 10:09:00:063AM	N	N
0000006115	0000001018		0000001018	C	Jun 30 2009 10:25:20:146AM	D. FRANCSICO RODRÍGUEZ 922.27.35.21	S	Jun 30 2009 11:32:25:776AM	N	N
0000006116	T000000013		0000001018	C	Jun 30 2009 11:48:41:516AM	MANOLO REDONDO  922.299.655	S	Jun 30 2009 11:54:53:076AM	N	N
0000006117	0000001018		0000001023	C	Jun 30 2009 12:08:33:436PM	PORFA MIRA SI ESTÁN ESTOS CDOS. COAC 82190 / 82192 , GRACIAS	S	Jun 30 2009 12:33:24:716PM	S	N
0000006118	0000001023		T000000009	C	Jun 30 2009 12:24:11:376PM	VISARED 2009-04531	S	Jul  1 2009  8:17:41:920AM	S	N
0000006119	T000000013		T000000009	C	Jun 30 2009 12:24:11:376PM	VISARED 2009-04531	S	Jul  1 2009  8:15:48:016AM	S	N
0000006120	0000001023		T000000009	C	Jun 30 2009 12:38:17:390PM	VISARED 2009-04535 EXP. 2008-02660	S	Jul  1 2009  8:17:44:483AM	S	N
0000006121	T000000013		T000000009	C	Jun 30 2009 12:38:17:390PM	VISARED 2009-04535 EXP. 2008-02660	S	Jul  1 2009  8:24:21:920AM	S	N
0000006122	0000001023		T000000009	C	Jun 30 2009 12:43:10:343PM	VISARED 2009-04538	S	Jul  1 2009  8:17:46:530AM	S	N
0000006123	T000000013		T000000009	C	Jun 30 2009 12:43:10:343PM	VISARED 2009-04538	S	Jul  1 2009  8:24:29:466AM	S	N
0000006124	T000000013		0000001018	C	Jun 30 2009  1:10:33:540PM	MANOLO REDONDO DICE QUE ESTÁ ESPERANDO TU LLAMADA 922.299.65	S	Jul  1 2009  8:24:37:750AM	N	N
0000006125	T000000013		0000001018	C	Jun 30 2009  1:10:55:173PM	ASESORÍA RIVERO 922.26.82.52	S	Jul  1 2009 10:20:42:453AM	N	N
0000006126	T000000002		T000000009	C	Jun 30 2009  2:00:43:576PM	COMUNICADO COAC 2009-04145 = 82595	S	Jul  1 2009  8:07:38:170AM	S	N
0000006127	T000000013		T000000009	C	Jul  1 2009  9:14:02:626AM	2009-04531 OK IMPORTADO	S	Jul  1 2009  9:26:26:313AM	S	N
0000006128	0000001023		T000000009	C	Jul  1 2009 10:06:52:343AM	VISARED 2009-04558	S	Jul  1 2009 10:57:31:420AM	S	N
0000006129	T000000013		T000000009	C	Jul  1 2009 10:06:52:343AM	VISARED 2009-04558	S	Jul  1 2009 10:20:50:326AM	S	N
0000006130	0000001023		T000000009	C	Jul  1 2009 10:10:54:030AM	SUBSANADO 2009-04414	S	Jul  1 2009 10:57:50:326AM	S	N
0000006131	T000000013		T000000009	C	Jul  1 2009 10:10:54:030AM	SUBSANADO 2009-04414	S	Jul  1 2009 10:38:47:610AM	S	N
0000006132	0000001023	Para verificar si te llegó un correo.	0000001014	C	Jul  1 2009 10:47:44:796AM	2395 JUAN ALBERTO RAMOS 639.14.42.14 922.54.88.25	S	Jul  1 2009 10:57:53:266AM	N	N
0000006133	T000000013		0000001014	C	Jul  1 2009 10:56:06:696AM	NATALIA PARA UN VISARED 922.03.29.20	S	Jul  1 2009 11:22:17:266AM	N	N
0000006134	0000001023		0000001018	C	Jul  1 2009 11:28:19:526AM	ANA SOCAS 695.23.77.18	S	Jul  1 2009 11:47:59:453AM	N	N
0000006135	T000000013		T000000009	C	Jul  1 2009 12:03:28:250PM	SUBSANADO 2009-04531	S	Jul  1 2009 12:23:34:126PM	S	N
0000006136	0000001023		0000001014	C	Jul  2 2009 12:22:02:463PM	GUILLERMO NOVARO 922.24.29.22	S	Jul  2 2009 12:46:42:780PM	N	N
0000006137	T000000013		0000001014	C	Jul  2 2009 12:23:02:430PM	NATALIA 922.25.99.94  607.21.27.78	S	Jul  2 2009  1:11:12:296PM	N	N
0000006138	T000000013		T000000009	C	Jul  3 2009 12:49:24:576PM	SUBSANADO 2009-02305	S	Jul  6 2009  9:00:46:843AM	S	N
0000006139	T000000013		T000000009	C	Jul  3 2009 12:54:35:703PM	SUBSANADO 2009-04453	S	Jul  6 2009  9:04:33:250AM	S	N
0000006140	0000001023	A DICE QUES ES UNA CONSULTA RAPIDA	0000001014	C	Jul  3 2009  1:08:09:430PM	RAFAEL GARCIA 605.319.601	S	Jul  3 2009  1:08:54:280PM	N	N
0000006141	0000001023		T000000009	C	Jul  3 2009 12:59:40:843PM	VISARED 2009-04649	S	Jul  3 2009  1:08:51:610PM	S	N
0000006142	T000000013		T000000009	C	Jul  3 2009 12:59:40:843PM	VISARED 2009-04649	S	Jul  6 2009  9:06:49:530AM	S	N
0000006143	0000001023		T000000009	C	Jul  3 2009  1:05:55:576PM	VISARED 2009-04651	S	Jul  6 2009  8:43:00:110AM	S	N
0000006144	T000000013		T000000009	C	Jul  3 2009  1:05:55:576PM	VISARED 2009-04651	S	Jul  6 2009  9:08:38:076AM	S	N
0000006146	T000000013		T000000009	C	Jul  6 2009 10:11:23:360AM	SUBSANADO 2009-04649	S	Jul  6 2009 10:35:44:483AM	S	N
0000006147	T000000013		0000001018	C	Jul  6 2009 11:53:23:470AM	CARMEN LUISA ESQUIVEL  666.83.45.03	S	Jul  6 2009 11:57:07:890AM	N	N
0000006148	0000001023		0000001018	C	Jul  6 2009 12:19:30:143PM	JAVIER MARRERO 2482  686.43.86.41	S	Jul  6 2009  1:04:17:516PM	N	N
0000006149	0000001023		0000001018	C	Jul  6 2009 12:20:49:686PM	CRISTO MANUEL 2867  670.63.45.02	S	Jul  6 2009  1:04:21:203PM	N	N
0000006150	0000001023		T000000009	C	Jul  6 2009  1:36:00:733PM	VISARED 2009-04669	S	Jul  7 2009  8:04:37:546AM	S	N
0000006151	T000000013		T000000009	C	Jul  6 2009  1:36:00:733PM	VISARED 2009-04669	S	Jul  7 2009  8:13:12:670AM	S	N
0000006152	0000001023		T000000009	C	Jul  6 2009  1:39:18:093PM	VISARED 2009-04670	S	Jul  7 2009  8:04:40:860AM	S	N
0000006153	T000000013		T000000009	C	Jul  6 2009  1:39:18:093PM	VISARED 2009-04670	S	Jul  7 2009  8:13:57:626AM	S	N
0000006154	T000000013		0000001018	C	Jul  8 2009  9:20:12:580AM	PEDRO SICRE NUCHE 620.83.98.03	S	Jul  8 2009 10:01:49:110AM	N	N
0000006155	T000000013		0000001018	C	Jul  8 2009 10:45:45:730AM	IRENE AFONSO 922.510.911	S	Jul  8 2009 11:03:17:156AM	N	N
0000006156	T000000013		0000001018	C	Jul  8 2009 10:46:34:813AM	IRENE NO ESPARA TI FUE UN ERROR!!!	S	Jul  8 2009 11:03:19:920AM	N	N
0000006157	0000001023		0000001018	C	Jul  8 2009 10:47:25:926AM	IRENE AFONSO 922.510.911	S	Jul  8 2009 11:09:47:826AM	N	N
0000006158	0000001023		0000001018	C	Jul  8 2009 11:05:11:126AM	VIRGINIA MANRIQUE DE LARA 639.79.09.10	S	Jul  8 2009 11:11:46:420AM	N	N
0000006159	T000000013		0000001018	C	Jul  8 2009 11:38:12:226AM	JOSE LUIS DORTA 652.91.34.35  2009-04663	S	Jul  9 2009  9:03:39:406AM	N	N
0000006161	T000000013	NO LO HE CALCULADO POR FALTAR LOS METROS CUADRADOS.	T000000009	C	Jul  9 2009 10:41:00:640AM	VISARED 2009-04769	S	Jul  9 2009 11:00:27:466AM	S	N
0000006162	0000001023	FALTAN METROS CUADRADOS	T000000009	C	Jul  9 2009 10:46:57:203AM	VISARED 2009-04771	S	Jul  9 2009  1:14:56:576PM	S	N
0000006163	T000000013	FALTAN METROS CUADRADOS	T000000009	C	Jul  9 2009 10:46:57:203AM	VISARED 2009-04771	S	Jul  9 2009 11:00:31:966AM	S	N
0000006164	0000001023		T000000009	C	Jul  9 2009 10:49:42:796AM	SUBSANADO 2009-04669	S	Jul  9 2009  1:14:59:233PM	S	N
0000006165	T000000013		T000000009	C	Jul  9 2009 10:53:42:953AM	SUBSANADO 2009-04651	S	Jul  9 2009 11:47:07:420AM	S	N
0000006166	0000001023	PROYECTO: 2009-04771	T000000009	C	Jul  9 2009 10:58:01:046AM	VISARED 2009-04773. EXPDTE. 2009-02428	S	Jul  9 2009  1:15:01:640PM	S	N
0000006167	T000000013	PROYECTO: 2009-04771	T000000009	C	Jul  9 2009 10:58:01:046AM	VISARED 2009-04773. EXPDTE. 2009-02428	S	Jul  9 2009 11:52:18:983AM	S	N
0000006168	T000000013		0000001018	C	Jul  9 2009 11:53:08:136AM	ROGELIO MARQUEZ 609.44.12.59	S	Jul  9 2009 12:31:12:233PM	N	N
0000006169	0000001023		0000001018	C	Jul  9 2009 11:58:30:793AM	PACO FERRER 677.53.95.22	S	Jul  9 2009  1:15:22:140PM	N	N
0000006170	0000001023		0000001018	C	Jul  9 2009 11:58:54:156AM	JAVIER MARRERO 686.43.86.41	S	Jul  9 2009  1:15:34:063PM	N	N
0000006171	T000000013		0000001018	C	Jul  9 2009 12:39:04:590PM	JUAN BOSCO 922.81.25.57	S	Jul  9 2009 12:41:25:000PM	S	N
0000006172	T000000013		0000001018	C	Jul  9 2009 12:39:52:070PM	JUAN BOSCO  922.81.25.57	S	Jul  9 2009 12:52:19:936PM	N	N
0000006173	0000001023		0000001018	C	Jul  9 2009 12:49:54:086PM	IDAIRA CONDE DÍAZ 610.027.247	S	Jul  9 2009  1:15:38:796PM	N	N
0000006160	0000001023	NO LO HE CALCULADO POR FALTAR LOS METROS CUADRADOS.	T000000009	C	Jul  9 2009 10:41:00:640AM	VISARED 2009-04769	S	Jul  9 2009  1:14:51:343PM	S	N
0000006174	0000001023		0000001018	C	Jul 10 2009 11:20:44:716AM	ALFEDRO PEREZ 609.32.77.71	S	Jul 10 2009 11:29:42:843AM	N	N
0000006175	T000000009	MARIA ISABEL DE PROMOCIONES EL PASO EN REALCIÓN A UNA PÓLIZA, TLF: 646 96.33.44
Y CARLOS DOMÍNGUEZ , TLF: 922 73.15.04  PARA VERIFICA SI TE LLEGÓ UN VISARED.	0000001018	C	Jul 10 2009 12:10:36:150PM	LLAMADA DE CENTRALITA	S	Jul 10 2009 12:02:07:703PM	N	S
0000006176	T000000013		0000001018	C	Jul 10 2009 12:11:05:420PM	CARLOS LORENZO  696.42.27.18	S	Jul 10 2009 12:48:29:670PM	N	N
0000006177	0000001023	TE MANDÓ POR FAX UNA MEMORIA.	0000001018	C	Jul 10 2009 12:11:50:776PM	YURENA AFONSO 922.510.911	S	Jul 10 2009 12:10:37:030PM	N	N
0000006178	0000001023		T000000009	C	Jul 10 2009 12:23:06:453PM	VISARED 2009-04816	S	Jul 10 2009 12:40:15:686PM	S	N
0000006179	T000000013		T000000009	C	Jul 10 2009 12:23:06:453PM	VISARED 2009-04816	S	Jul 10 2009 12:46:50:640PM	S	N
0000006180	0000001023		0000001018	C	Jul 10 2009  1:08:32:960PM	YURENA AFONSO 625.45,26,88	S	Jul 10 2009  1:22:17:500PM	N	N
0000006181	T000000013		T000000009	C	Jul 10 2009  1:01:18:563PM	SUBSANADO EXP. 2009-02428	S	Jul 13 2009  8:30:38:216AM	S	N
0000006182	T000000013		T000000009	C	Jul 13 2009 12:51:37:813PM	EXPEDIENTE VIARED 2009-02427	S	Jul 14 2009  8:52:42:453AM	S	N
0000006183	0000001023		T000000009	C	Jul 13 2009 12:59:17:750PM	VISARED 2009-04854	S	Jul 14 2009  8:14:55:530AM	S	N
0000006184	T000000013		T000000009	C	Jul 13 2009 12:59:17:750PM	VISARED 2009-04854	S	Jul 14 2009  9:01:31:686AM	S	N
0000006185	0000001023		T000000009	C	Jul 15 2009  9:00:59:466AM	VISARED EXP. 2009-02506	S	Jul 15 2009  9:15:48:500AM	S	N
0000006186	T000000013		T000000009	C	Jul 15 2009  9:00:59:466AM	VISARED EXP. 2009-02506	S	Jul 15 2009  9:32:43:140AM	S	N
0000006187	0000001023		T000000009	C	Jul 15 2009  9:17:13:046AM	VISARED 2009-04884, EXP. 2009-02428	S	Jul 15 2009  9:34:25:906AM	S	N
0000006188	T000000013		T000000009	C	Jul 15 2009  9:17:13:046AM	VISARED 2009-04884, EXP. 2009-02428	S	Jul 15 2009  9:35:47:906AM	S	N
0000006189	0000001023		T000000009	C	Jul 15 2009 10:11:35:716AM	SUBSANADO 2009-03631	S	Jul 15 2009 11:15:07:716AM	S	N
0000006190	0000001023		T000000009	C	Jul 15 2009 10:21:23:140AM	 EXP. 2007-04828 VISARED 2009-04894 MODIFICADO DE UNO EXISTE	S	Jul 15 2009 11:15:45:640AM	S	N
0000006191	T000000013		T000000009	C	Jul 15 2009 10:21:23:140AM	 EXP. 2007-04828 VISARED 2009-04894 MODIFICADO DE UNO EXISTE	S	Jul 15 2009 11:17:59:966AM	S	N
0000006192	T000000013		T000000009	C	Jul 17 2009  9:14:34:216AM	SUBSANADO 2009-04850, PACO MONTAÑEZ	S	Jul 17 2009  9:54:20:640AM	S	N
0000006193	T000000013		T000000009	C	Jul 17 2009  9:16:22:890AM	SUBSANADO 2009-04882, PACO MONTAÑES	S	Jul 17 2009  9:56:39:000AM	S	N
0000006194	T000000003	2009-04723 82565 SOLO BORRAR DE LISTA YA ESTA PARA VISADOS	T000000009	C	Jul 21 2009  7:49:47:750AM	COMUNICADO COAC	S	Jul 21 2009  9:27:31:890AM	S	N
0000006195	T000000003	OK. IMPORTES	T000000009	C	Jul 21 2009  9:52:07:626AM	REF. 209-04884	S	Jul 21 2009 10:31:31:406AM	S	N
0000006196	T000000003	2009-04543 82621 SOLO BORRAR DE LISTA	T000000009	C	Jul 21 2009 11:50:36:750AM	COMUNICADO COAC	S	Jul 21 2009  1:17:18:296PM	S	N
0000006197	0000001023		T000000009	C	Jul 21 2009  1:25:35:546PM	VISARED 2009-05041	S	Jul 22 2009  8:50:38:250AM	S	N
0000006198	T000000013		T000000009	C	Jul 21 2009  1:25:35:546PM	VISARED 2009-05041	S	Jul 22 2009  8:13:20:500AM	S	N
0000006199	0000001023		T000000009	C	Jul 21 2009  1:34:16:156PM	VISARED 2009-05043	S	Jul 22 2009  8:50:41:170AM	S	N
0000006200	T000000013		T000000009	C	Jul 21 2009  1:34:16:156PM	VISARED 2009-05043	S	Jul 22 2009  8:24:39:406AM	S	N
0000006201	0000001023		T000000009	C	Jul 22 2009 12:27:03:516PM	VISARED 2009-05076	S	Jul 22 2009 12:36:56:640PM	S	N
0000006202	T000000013		T000000009	C	Jul 22 2009 12:27:03:516PM	VISARED 2009-05076	S	Jul 23 2009  8:14:43:046AM	S	N
0000006203	0000001023		T000000009	C	Jul 22 2009 12:30:44:110PM	VISARED 2009-05080	S	Jul 23 2009  8:21:57:966AM	S	N
0000006204	T000000013		T000000009	C	Jul 22 2009 12:30:44:110PM	VISARED 2009-05080	S	Jul 23 2009  8:17:24:983AM	S	N
0000006205	0000001023		T000000009	C	Jul 22 2009 12:43:50:500PM	SUBSANADO 2009-04854	S	Jul 23 2009  8:22:01:156AM	S	N
0000006206	T000000013		T000000009	C	Jul 22 2009 12:43:50:500PM	SUBSANADO 2009-04854	S	Jul 23 2009  8:17:15:250AM	S	N
0000006207	0000001023		T000000009	C	Jul 24 2009  8:03:01:376AM	VISARED 2009-05113	S	Jul 24 2009  8:46:09:420AM	S	N
0000006208	T000000013		T000000009	C	Jul 24 2009  8:03:01:376AM	VISARED 2009-05113	S	Jul 28 2009  9:36:09:406AM	S	N
0000006209	0000001023		T000000009	C	Jul 24 2009  1:41:36:500PM	VISARED 2009-05136	S	Jul 27 2009  8:22:36:546AM	S	N
0000006210	T000000013		T000000009	C	Jul 24 2009  1:41:36:500PM	VISARED 2009-05136	S	Jul 28 2009  9:36:17:376AM	S	N
0000006211	0000001023		T000000009	C	Jul 27 2009  9:10:57:640AM	SUBSANADO 2009-05043	S	Jul 27 2009  9:32:10:656AM	S	N
0000006212	T000000013		T000000009	C	Jul 27 2009  9:10:57:640AM	SUBSANADO 2009-05043	S	Jul 31 2009  9:28:09:983AM	S	N
0000006213	0000001023		T000000009	C	Jul 27 2009  1:43:44:516PM	VISARED 2009-05174	S	Jul 28 2009  8:08:05:186AM	S	N
0000006214	T000000013		T000000009	C	Jul 27 2009  1:43:44:516PM	VISARED 2009-05174	S	Jul 28 2009  9:54:02:170AM	S	N
0000006215	0000001023		0000001018	C	Jul 28 2009 12:28:18:660PM	MIGUEL VARGAS 607.368.238	S	Jul 28 2009 12:27:59:343PM	N	N
0000006216	0000001023		0000001018	C	Jul 28 2009 12:36:20:523PM	ALEJANDRO VASCO 3225  679.45.26.06	S	Jul 28 2009 12:41:06:500PM	N	N
0000006217	T000000013		0000001018	C	Jul 28 2009  1:04:10:773PM	MARIA 3240  659.596.144	S	Jul 29 2009  9:27:41:920AM	N	N
0000006218	0000001023		T000000009	C	Jul 29 2009  8:40:41:343AM	SUBSANADO 2009-04854	S	Jul 29 2009  9:19:23:906AM	S	N
0000006219	T000000013		T000000009	C	Jul 29 2009  8:40:41:343AM	SUBSANADO 2009-04854	S	Jul 29 2009  9:04:37:000AM	S	N
0000006220	T000000013		0000001018	C	Jul 29 2009 10:49:40:966AM	JOSE DOMINGO BETHENCOURT 649.09.20.49	S	Jul 29 2009 11:33:18:876AM	N	N
0000006221	0000001023		0000001018	C	Jul 29 2009 10:56:07:923AM	JAVIER MARRERO 2482 TLF: 686.43.86.41	S	Jul 29 2009 12:47:07:563PM	N	N
0000006222	0000001023		0000001018	C	Jul 29 2009 11:04:25:276AM	FERMÍN SÁNCHEZ 922.31.97.96	S	Jul 29 2009 12:47:14:420PM	N	N
0000006223	T000000013		0000001018	C	Jul 29 2009 11:14:54:443AM	CARMEN LUISA 647.301.655	S	Jul 29 2009 11:33:21:826AM	N	N
0000006224	T000000013	eduardo, en el sellador deje lo que envio con anterioridad y lo nuevo.
revisalo y si sobra algo pues lo eliminamos	T000000009	C	Jul 29 2009  1:13:32:796PM	ANEXO 2009-05174	S	Jul 31 2009  9:26:48:966AM	S	N
0000006226	T000000013	EL EXPDTE DE ALEJANDRA ("RIPADO"), YA LO UNI TODO EN ESTE Nº DE EXPDTE
HAY 2 COORDINACIONES REGISTRADAS Y UNA D.O
NO COINCIDEN LOS M2.
ECHALE UN VISTAZO Y ME CUENTAS	T000000009	C	Jul 29 2009  1:20:04:360PM	EXPDTE. 2009-02587	S	Jul 31 2009  9:27:42:483AM	S	N
0000006227	T000000013	eduardo, en el sellador deje lo que envio con anterioridad y lo nuevo.
revisalo y si sobra algo pues lo eliminamos	T000000009	C	Jul 29 2009  1:25:38:813PM	ANEXO 2009-05174	S	Jul 31 2009  9:28:01:063AM	S	N
0000006230	0000001023	DICE QUE ESTÁ ESPERANDO TU LLAMADA DESDE AYER.	0000001018	C	Jul 30 2009 12:37:23:060PM	JAVIER MARRERO  686.438.641	S	Jul 30 2009  1:11:06:966PM	N	N
0000006231	0000001023		T000000009	C	Jul 31 2009 10:14:09:500AM	VISARED 2009-05312	S	Aug  3 2009  8:05:17:530AM	S	N
0000006232	T000000013		T000000009	C	Jul 31 2009 10:14:09:500AM	VISARED 2009-05312	S	Jul 31 2009 11:12:56:626AM	S	N
0000006233	T000000013		0000001018	C	Jul 31 2009 10:41:15:670AM	JUAN CARLOS DE LEON 628.019.024	S	Jul 31 2009 11:36:12:906AM	N	N
0000006234	T000000001		0000001018	C	Jul 31 2009 11:07:03:826AM	LLAMÓ YAYI DICE QUE ES URGENTE  670.84.18.77	S	Jul 31 2009 12:46:42:266PM	N	N
0000006236	T000000013		0000001018	C	Jul 31 2009 11:24:20:316AM	JULIÁN 609.259.221	S	Jul 31 2009 11:36:28:000AM	N	N
0000006237	T000000013	AL INTENTAR CALCULAR, ME PIDE METROS CUBICOS POR SER UNA DEMOLICION.
SOLO TIENE UN METRO CUBICO???

	T000000009	C	Jul 31 2009 11:12:36:610AM	VISARED 2009-04854	S	Jul 31 2009 11:54:00:280AM	S	N
0000006238	0000001011		0000001018	C	Jul 31 2009 11:25:20:183AM	ERNESTO DE GALTOR  822.012.970	S	Jul 31 2009 11:19:13:063AM	N	N
0000006239	T000000013		0000001018	C	Jul 31 2009 11:51:30:510AM	JUANJO RODRÍGUEZ COL. 1546  TLF: 625.165.275	S	Jul 31 2009 11:54:19:126AM	N	N
0000006240	0000001023		T000000009	C	Aug  3 2009  8:51:32:593AM	VISARED 2009-05341	S	Aug  3 2009  9:05:19:076AM	S	N
0000006241	T000000013		T000000009	C	Aug  3 2009  8:51:32:593AM	VISARED 2009-05341	S	Aug  3 2009 11:11:40:266AM	S	N
0000006242	0000001023		T000000009	C	Aug  3 2009 10:29:33:250AM	VISARED 2009-05346	S	Aug  3 2009  1:39:13:716PM	S	N
0000006243	T000000013		T000000009	C	Aug  3 2009 10:29:33:250AM	VISARED 2009-05346	S	Aug  3 2009 11:12:00:266AM	S	N
0000006244	T000000013	YA CALCULE LOS IMPORTES Y LE AÑADI EL INGENIERO	0000001022	C	Aug  3 2009 11:37:32:466AM	VISARED. 2009-05043	S	Aug  3 2009 11:55:41:516AM	N	N
0000006245	T000000001	ya carlos envio la minuta	T000000009	C	Aug  3 2009 12:33:10:030PM	VISARED 2009-05346	S	Aug  3 2009 12:49:04:686PM	S	N
0000006246	T000000013		T000000009	C	Aug  4 2009  8:56:31:170AM	COMUNICADO COAC EXP. 2009-02506	S	Aug  4 2009  9:11:59:280AM	S	N
0000006247	T000000003	2009-04850 82637 SOLO BORRAR DE LISTA

2009-04882 82729 SOLO BORRAR DE LISTA	T000000009	C	Aug  4 2009  8:59:25:046AM	COMUNICACO COAC	S	Aug  4 2009 11:03:00:920AM	S	N
0000006248	T000000013		T000000009	C	Aug  4 2009  9:05:14:466AM	COMUNICACO COAC EXP. 2009-02427	S	Aug  4 2009 10:04:50:093AM	S	N
0000006249	0000001023		T000000009	C	Aug  5 2009 12:23:03:530PM	2009-05454	S	Aug  5 2009 12:43:51:966PM	S	N
0000006250	T000000013		T000000009	C	Aug  5 2009 12:23:03:530PM	2009-05454	S	Aug  5 2009 12:40:11:483PM	S	N
0000006251	0000001023		T000000009	C	Aug  5 2009 12:54:50:516PM	2009-05462	S	Aug  5 2009  1:13:13:920PM	S	N
0000006252	T000000013		T000000009	C	Aug  5 2009 12:54:50:516PM	2009-05462	S	Aug  6 2009  8:43:39:203AM	S	N
0000006253	T000000009		0000001018	C	Aug  6 2009  9:43:19:446AM	CRISTOBAL 609.62.92.80	S	Aug  6 2009  9:51:50:703AM	N	S
0000006254	0000001023		T000000009	C	Aug  6 2009  9:41:22:920AM	MODIFICADO CERTIFICACO 2009-03176	S	Aug  6 2009 11:32:13:813AM	S	N
0000006255	T000000013		T000000009	C	Aug  6 2009  9:41:22:920AM	MODIFICADO CERTIFICACO 2009-03176	S	Aug  6 2009 10:15:27:593AM	S	N
0000006256	T000000013		0000001010	C	Aug  6 2009 11:27:53:910AM	NENA 922.34.00.06	S	Aug  6 2009 12:03:50:156PM	S	N
0000006257	0000001011	Dice que le urge hablar contigo.	0000001010	C	Aug  6 2009 11:33:53:016AM	ANTONIO RODRÍGUEZ TLF: 922.237.528	S	Aug  6 2009 11:36:26:240AM	S	N
0000006258	T000000013		T000000009	C	Aug  6 2009  1:17:38:266PM	VISARED 2009-01331	S	Aug  7 2009  8:02:59:500AM	S	N
0000006259	0000001023		T000000009	C	Aug  7 2009  9:01:18:093AM	ANEXO EXP.  2008-04631 REG. 2009-04368	S	Aug  7 2009 10:14:38:610AM	S	N
0000006260	T000000013		T000000009	C	Aug  7 2009  9:01:18:093AM	ANEXO EXP.  2008-04631 REG. 2009-04368	S	Aug  7 2009  9:27:47:030AM	S	N
0000006261	T000000013		T000000009	C	Aug  7 2009  9:03:02:063AM	SUBSANADO 2009-05462	S	Aug  7 2009  9:30:59:716AM	S	N
0000006262	0000001023		T000000009	C	Aug  7 2009  9:07:02:610AM	VISARED 2009-05504	S	Aug  7 2009 10:14:41:216AM	S	N
0000006263	T000000013		T000000009	C	Aug  7 2009  9:07:02:610AM	VISARED 2009-05504	S	Aug  7 2009  9:30:55:000AM	S	N
0000006264	T000000013		0000001018	C	Aug 10 2009  9:46:43:000AM	SONIA COL. 1946 TLF: 922.34.15.88.	S	Aug 10 2009 10:19:18:843AM	N	N
0000006265	0000001023		T000000009	C	Aug 10 2009  9:51:25:670AM	VISARED 2009-05535	S	Aug 10 2009 10:03:13:110AM	S	N
0000006266	T000000013		T000000009	C	Aug 10 2009  9:51:25:670AM	VISARED 2009-05535	S	Aug 10 2009 10:28:09:920AM	S	N
0000006267	0000001023		T000000009	C	Aug 10 2009 10:09:47:420AM	VISARED 2009-05537	S	Aug 10 2009 10:25:24:530AM	S	N
0000006268	T000000013		T000000009	C	Aug 10 2009 10:09:47:420AM	VISARED 2009-05537	S	Aug 10 2009 10:28:16:750AM	S	N
0000006269	T000000013		0000001018	C	Aug 10 2009 10:32:36:190AM	FELIX HERNÁNDEZ 922.26.69.57	S	Aug 10 2009 10:42:57:156AM	N	N
0000006270	T000000013		0000001018	C	Aug 10 2009 10:33:42:273AM	DE NUEVO SONIA: 922.34.15.88	S	Aug 10 2009 10:40:01:280AM	N	N
0000006271	0000001023		T000000009	C	Aug 11 2009  7:48:32:016AM	SUBSANADO 2009-05537	S	Aug 11 2009  9:36:54:936AM	S	N
0000006272	T000000013		T000000009	C	Aug 11 2009  7:48:32:016AM	SUBSANADO 2009-05537	S	Aug 11 2009  8:02:48:016AM	S	N
0000006273	T000000013		T000000009	C	Aug 11 2009  7:51:12:546AM	SUBSANADO 2009-03176	S	Aug 11 2009  8:12:52:546AM	S	N
0000006274	T000000013		0000001018	C	Aug 11 2009 12:04:40:510PM	FERMIN SANCHEZ 610.70.12.32	S	Aug 12 2009  9:48:56:966AM	N	N
0000006275	0000001023		T000000009	C	Aug 12 2009  9:50:22:890AM	VISARED 2009-05582	S	Aug 12 2009 11:09:43:046AM	S	N
0000006276	T000000013		T000000009	C	Aug 12 2009  9:50:22:890AM	VISARED 2009-05582	S	Aug 12 2009 10:25:20:716AM	S	N
0000006277	0000001023		T000000009	C	Aug 12 2009  9:55:45:890AM	VISARED 2009-05583	S	Aug 12 2009 11:09:45:296AM	S	N
0000006278	T000000013		T000000009	C	Aug 12 2009  9:55:45:890AM	VISARED 2009-05583	S	Aug 12 2009 10:25:24:750AM	S	N
0000006279	T000000013		0000001018	C	Aug 12 2009 11:04:07:733AM	ALFREDO MORA 667.756.198	S	Aug 12 2009 12:03:20:313PM	N	N
0000006280	0000001023		T000000009	C	Aug 13 2009  8:04:51:703AM	VISARED 2009-02874	S	Aug 13 2009  8:27:12:420AM	S	N
0000006281	T000000013		T000000009	C	Aug 13 2009  8:04:51:703AM	VISARED 2009-02874	S	Aug 13 2009  9:35:06:453AM	S	N
0000006282	T000000013		0000001018	C	Aug 13 2009 11:25:29:820AM	MIGUEL ANGEL PEREZ DEL ROCIO 922.57.71.20 EXT.209	S	Aug 13 2009 11:31:48:843AM	N	N
0000006283	T000000013		0000001018	C	Aug 13 2009 11:30:40:116AM	ALEXIS 656.457.126	S	Aug 13 2009 11:33:29:500AM	N	N
0000006284	T000000013		0000001018	C	Aug 13 2009 11:41:26:346AM	FRANCISCO DARIAS 625.414.401	S	Aug 13 2009 12:23:20:376PM	N	N
0000006285	T000000013		0000001018	C	Aug 13 2009 11:43:57:123AM	FRANCISCO MONTAÑES 670.633.254	S	Aug 13 2009 11:53:07:656AM	N	N
0000006286	T000000013	QUE LE CORRE PRISA PQ NADIE LE COGE EL TLF DE LAS EXT DEL COLEGIO	0000001018	C	Aug 13 2009 11:46:13:856AM	922.61.41.03 CON TANTO RECADO SE ME FUE EL NOMBRE PERO DICE	S	Aug 13 2009 12:24:04:733PM	N	N
0000006287	0000001023		T000000009	C	Aug 13 2009 11:40:56:670AM	VISARED 2009-05621	S	Aug 13 2009 11:56:08:626AM	S	N
0000006288	T000000013		T000000009	C	Aug 13 2009 11:40:56:670AM	VISARED 2009-05621	S	Aug 13 2009 11:57:31:063AM	S	N
0000006289	T000000013		T000000009	C	Aug 13 2009 11:46:12:703AM	SUBSANADO 2009-05582	S	Aug 13 2009 12:12:16:016PM	S	N
0000006290	W01943	contesta coño que es urgente....	0000001023	C	Aug 13 2009 12:31:03:140PM	PRUEBA	N		S	N
0000006291	0000001023		0000001018	C	Aug 14 2009 10:39:16:456AM	ENRIQUE ASCANIO 650.456.745	S	Aug 14 2009 10:45:43:703AM	N	N
0000006292	0000001023		0000001018	C	Aug 14 2009 10:49:50:600AM	ESTHER COL. 2358 TLF: 639.22.18.74	S	Aug 14 2009 10:51:19:593AM	N	N
0000006293	0000001023		0000001018	C	Aug 14 2009 10:51:32:736AM	LUCIANO DICE QUE ES URGENTE!!  669.026.129	S	Aug 14 2009 10:51:37:250AM	N	N
0000006294	T000000001		0000001018	C	Aug 14 2009 10:58:12:280AM	SIMONCHELI DICE QUE LO LLAMES 607.14.86.62	S	Aug 14 2009 10:51:54:826AM	N	N
0000006295	0000001023		T000000009	C	Aug 14 2009 11:15:12:420AM	VISARED 2009-05651	S	Aug 14 2009 11:33:25:216AM	S	N
0000006296	T000000013		T000000009	C	Aug 14 2009 11:15:12:420AM	VISARED 2009-05651	S	Aug 14 2009 11:28:55:876AM	S	N
0000006297	0000001023		T000000009	C	Aug 14 2009 11:20:41:000AM	VISAERD 2009-05652	S	Aug 14 2009 11:33:27:733AM	S	N
0000006298	T000000013		T000000009	C	Aug 14 2009 11:20:41:000AM	VISAERD 2009-05652	S	Aug 14 2009 12:21:28:360PM	S	N
0000006299	T000000013		T000000009	C	Aug 17 2009 12:58:48:876PM	SUBSANADO 2009-05603	S	Aug 18 2009  8:17:29:576AM	S	N
0000006300	T000000013		T000000009	C	Aug 17 2009  1:05:28:296PM	SUBSANADO 2009-05651	S	Aug 18 2009  8:19:11:030AM	S	N
0000006301	T000000013		T000000009	C	Aug 17 2009  1:15:12:076PM	MODICACIO YA VISASO Y RETIRADO 2008-10279	S	Aug 18 2009  8:21:22:640AM	S	N
0000006302	0000001023		T000000009	C	Aug 18 2009 11:38:09:126AM	PLAN SUPERFICIES MODIFICADO 2009-05535	S	Aug 18 2009 12:42:09:750PM	S	N
0000006303	T000000013		T000000009	C	Aug 18 2009 12:58:34:156PM	NUEVO PLANO DISTRIBUCION 2009-05621	S	Aug 19 2009  8:59:53:296AM	S	N
0000006304	T000000013		T000000009	C	Aug 19 2009 12:17:44:436PM	SUBSANADO 2009-05621	S	Aug 19 2009 12:40:09:563PM	S	N
0000006305	T000000013		T000000009	C	Aug 20 2009  8:13:44:203AM	SUBSANADO 2009-05603	S	Aug 20 2009  9:36:35:826AM	S	N
0000006306	0000001023		T000000009	C	Aug 21 2009 12:35:44:216PM	SUBSANADO 2009-05535	S	Aug 21 2009  1:00:23:046PM	S	N
0000006307	0000001023		T000000009	C	Aug 21 2009 12:43:20:406PM	VISARED 2009-05756	S	Aug 21 2009  1:00:25:610PM	S	N
0000006308	T000000013		T000000009	C	Aug 21 2009 12:43:20:406PM	VISARED 2009-05756	S	Aug 21 2009  1:10:05:906PM	S	N
0000006309	T000000013		T000000009	C	Aug 24 2009  9:30:39:076AM	VISARED 2009-05773	S	Aug 24 2009 10:13:36:860AM	S	N
0000006310	T000000013		T000000009	C	Aug 24 2009 10:39:39:640AM	SUBSANADO 2009-05462	S	Aug 24 2009 11:00:04:640AM	S	N
0000006311	T000000013		0000001010	C	Aug 25 2009  9:56:18:150AM	INMA GLEZ. TLF: 679.46.90.02	S	Aug 25 2009 10:22:39:420AM	S	N
0000006312	T000000013	630.01.83.43	0000001010	C	Aug 25 2009  9:59:25:156AM	JAVIER RGUEZ. AYUNT. SANTIAGO DEL TEIDE	S	Aug 25 2009 10:24:20:343AM	S	N
0000006313	T000000013		0000001018	C	Aug 25 2009 10:05:26:156AM	CARLOS DGUEZ. 922.73.15.04	S	Aug 25 2009 10:30:05:110AM	N	N
0000006314	T000000013		0000001018	C	Aug 25 2009 10:10:27:760AM	NATALIA 03238  666.52.23.30	S	Aug 25 2009 10:39:45:733AM	N	N
0000006315	T000000013		T000000009	C	Aug 25 2009 12:34:14:500PM	SUBSANADO 2009-05535	S	Aug 25 2009  1:09:39:530PM	S	N
0000006316	T000000013		T000000009	C	Aug 26 2009  9:53:06:610AM	MODIFICCAR SELLO EN PLANO CABIDA ESTA AL REVES REF. 2009-055	S	Aug 26 2009 10:13:54:610AM	S	N
0000006317	T000000013		T000000009	C	Aug 26 2009 10:14:00:546AM	VISARED 2009-05811, AHORA REGISTRO EL PROYECTO	S	Aug 26 2009 12:03:29:156PM	S	N
0000006318	T000000013		T000000009	C	Aug 26 2009 10:17:06:406AM	VISARED PROYECTO 2009-05812	S	Aug 26 2009 12:07:42:046PM	S	N
0000006319	0000001003		T000000013	C	Aug 26 2009 11:28:56:156AM	DESPECHAR REGISTRO 2009-05535	N		N	N
0000006320	T000000001		T000000013	C	Aug 26 2009 11:28:56:156AM	DESPECHAR REGISTRO 2009-05535	S	Aug 26 2009 11:40:50:453AM	N	N
0000006321	T000000001		T000000013	C	Aug 26 2009 12:08:24:216PM	PRIMER VISADO REGISTROS 2009-05811 Y 2009-05812	S	Aug 26 2009 12:03:43:876PM	N	N
0000006322	T000000013		T000000009	C	Aug 27 2009 11:04:49:703AM	VISAERD 2009-05841	S	Aug 27 2009 11:29:45:563AM	S	N
0000006323	T000000013		T000000009	C	Aug 27 2009 11:35:38:656AM	VISARED 2009-05841	S	Aug 27 2009 12:02:54:626PM	S	N
0000006324	0000001023		T000000009	C	Sep  2 2009  8:06:36:000AM	VISARED 2009-05898	S	Sep  2 2009  8:47:29:343AM	S	N
0000006325	T000000013		T000000009	C	Sep  2 2009  8:06:36:000AM	VISARED 2009-05898	S	Sep  2 2009  8:21:40:453AM	S	N
0000006326	T000000013		T000000009	C	Sep  2 2009 11:42:15:233AM	SUBSANADO 2009-05898	S	Sep  2 2009 12:30:05:170PM	S	N
0000006327	0000001023		T000000009	C	Sep  3 2009 10:07:15:733AM	VISARED 2009-05925	S	Sep  3 2009 10:22:11:966AM	S	N
0000006328	T000000013		T000000009	C	Sep  3 2009 10:07:15:733AM	VISARED 2009-05925	S	Sep  3 2009 10:26:57:140AM	S	N
0000006329	0000001023		T000000009	C	Sep  4 2009  9:33:58:703AM	VISARED 2009-05951	S	Sep  4 2009 10:23:33:983AM	S	N
0000006330	0000001023		T000000009	C	Sep  4 2009  9:42:36:313AM	SUBSANADO 2009-05925	S	Sep  4 2009 10:23:29:576AM	S	N
0000006331	0000001023		T000000009	C	Sep  4 2009  9:47:10:703AM	VISARED 2009-05954	S	Sep  4 2009 10:23:36:170AM	S	N
0000006332	0000001023		T000000009	C	Sep  4 2009  1:38:54:640PM	VISARED 2009-05980	S	Sep  7 2009  8:00:30:593AM	S	N
0000006333	0000001023		T000000009	C	Sep  4 2009  1:42:59:110PM	VISARED 2009-05981	S	Sep  7 2009  8:00:33:983AM	S	N
0000006334	0000001023		T000000009	C	Sep  7 2009  1:46:18:516PM	VISARED 2009-06008	S	Sep  8 2009  8:49:43:716AM	S	N
0000006335	0000001023		T000000009	C	Sep  7 2009  1:57:13:936PM	VISARED 2009-06009	S	Sep  8 2009  8:49:41:376AM	S	N
0000006336	0000001023		0000001018	C	Sep  8 2009 11:26:53:760AM	JUAN RUIZ  TLF: 670.81.32.71	S	Sep  8 2009 12:09:34:483PM	N	N
0000006337	0000001023		0000001018	C	Sep  8 2009 12:20:58:726PM	ALEJANDRO MARFIL 670.412.394	S	Sep  8 2009 12:15:02:860PM	N	N
0000006338	0000001023		T000000009	C	Sep  9 2009  9:05:01:563AM	VISARED 2009-06035 Y 2009-06036 DEPOSITO AGUA EXP.2009-03096	S	Sep  9 2009  9:17:00:826AM	S	N
0000006339	0000001023		T000000009	C	Sep  9 2009  9:07:12:360AM	SUBSANADO 2009-05980	S	Sep  9 2009  9:17:03:376AM	S	N
0000006340	0000001023		0000001018	C	Sep  9 2009 11:25:31:500AM	FRANCISCO RODRIGUEZ 639.67.46.42	S	Sep  9 2009 11:34:11:546AM	N	N
0000006341	0000001023		0000001018	C	Sep  9 2009 11:42:36:366AM	JAVIER DE LEON 2044 657.675.880	S	Sep  9 2009 11:34:35:203AM	N	N
0000006342	0000001023		0000001018	C	Sep  9 2009 12:24:13:516PM	HECTOR 679.45.08.40	S	Sep  9 2009 12:15:23:360PM	N	N
0000006343	0000001023		0000001018	C	Sep  9 2009  1:07:37:850PM	JORGE  SANCHEZ PINTO 922.13.81.31	S	Sep 10 2009  8:00:18:466AM	N	N
0000006344	0000001023		T000000009	C	Sep  9 2009  2:41:45:966PM	VISARARED CAMBIO COLEGIADO EXP. 2008-01199	S	Sep 10 2009  8:00:22:670AM	S	N
0000006345	0000001020		T000000009	C	Sep  9 2009  2:41:45:966PM	VISARARED CAMBIO COLEGIADO EXP. 2008-01199	N		S	N
0000006346	0000001023		T000000009	C	Sep  9 2009  2:44:56:890PM	MODIFICACION VISARED 2009-04651	S	Sep 10 2009  8:00:32:983AM	S	N
0000006347	0000001023		T000000009	C	Sep 10 2009  8:33:50:126AM	SUBSANADO EXP. 2009-03096	S	Sep 10 2009  9:13:46:376AM	S	N
0000006348	0000001022		T000000009	C	Sep 10 2009  8:45:41:203AM	VISRED CAMBIO COLEGIADO 2008-01199	S	Sep 10 2009  9:09:54:063AM	S	N
0000006349	0000001023		T000000009	C	Sep 11 2009  9:48:45:406AM	VISARED 2009-06105	S	Sep 11 2009  1:22:01:766PM	S	N
0000006350	0000001023		T000000009	C	Sep 11 2009  9:54:17:296AM	VISRED 2009-06108	S	Sep 11 2009  1:22:24:483PM	S	N
0000006351	0000001023		T000000009	C	Sep 11 2009 10:09:49:156AM	VISARED EXP. 2008-01199, PROVIENE DE RENUNCIA	S	Sep 11 2009  1:22:22:233PM	S	N
0000006352	0000001023		T000000009	C	Sep 11 2009 10:19:25:093AM	VISARED 2009-06114	S	Sep 11 2009  1:22:19:843PM	S	N
0000006353	0000001023		0000001018	C	Sep 11 2009 11:38:08:966AM	SERGIO REYES 922.50.95.18 O 629.51.67.23	S	Sep 11 2009  1:22:17:466PM	N	N
0000006354	0000001023		0000001018	C	Sep 11 2009 12:01:14:470PM	JAVIER TEJERO COL. 2282 TLF: 651.901.809.	S	Sep 11 2009  1:22:15:313PM	N	N
0000006355	0000001023		0000001018	C	Sep 11 2009 12:43:51:906PM	OSCAR VIILA 687.47.87.72	S	Sep 11 2009  1:22:13:216PM	N	N
0000006356	0000001023		0000001018	C	Sep 11 2009 12:44:11:373PM	SERGIO REYES VOLVIO A LLAMAR	S	Sep 11 2009  1:22:08:466PM	N	N
0000006357	T000000003		T000000009	C	Sep 11 2009 12:42:36:610PM	VDO. COAC 80503 REF. 2009-02633	S	Sep 14 2009  9:01:54:563AM	S	N
0000006358	0000001023		T000000009	C	Sep 14 2009  8:29:57:860AM	SUBSA 2009-06008	S	Sep 14 2009  9:13:15:250AM	S	N
0000006359	0000001023		T000000009	C	Sep 14 2009  8:40:46:030AM	SUBSANADO 2009-06105	S	Sep 14 2009  9:13:18:313AM	S	N
0000006360	0000001023		T000000009	C	Sep 14 2009  8:45:52:186AM	SUBSANADO 2009-06108	S	Sep 14 2009  9:13:20:406AM	S	N
0000006362	0000001023		T000000009	C	Sep 14 2009  1:12:16:313PM	VISARED 2009-06157	S	Sep 15 2009  7:55:36:563AM	S	N
0000006363	0000001023		T000000009	C	Sep 15 2009  9:25:55:860AM	VISARED 2009-06163	S	Sep 15 2009  9:36:08:483AM	S	N
0000006364	0000001023		T000000009	C	Sep 15 2009  9:37:05:610AM	VISARED 2009-06164	S	Sep 15 2009  9:55:37:156AM	S	N
0000006365	0000001023		T000000009	C	Sep 16 2009  9:24:50:656AM	SUBSANACION EXP. 2008-01199 2009-06066 Y 2009-06067	S	Sep 16 2009  9:34:10:733AM	S	N
0000006366	0000001023		T000000009	C	Sep 16 2009  9:38:17:390AM	SUBSANADO EXP 2009-03163	S	Sep 16 2009 10:31:21:890AM	S	N
0000006367	0000001023		T000000009	C	Sep 16 2009  9:50:44:733AM	MODIFICADO PLANO SITUACION 2009-06108	S	Sep 16 2009 10:31:24:030AM	S	N
0000006368	0000001023		T000000009	C	Sep 16 2009 10:06:11:860AM	SUBSA 2009-06163	S	Sep 16 2009 10:31:26:313AM	S	N
0000006369	0000001023		T000000009	C	Sep 17 2009 12:02:34:076PM	VISARED 2009-06240	S	Sep 17 2009  1:28:40:376PM	S	N
0000006370	0000001023		T000000009	C	Sep 18 2009  9:17:36:703AM	VISRED 2009-06261	S	Sep 18 2009 10:32:26:360AM	S	N
0000006371	0000001023		T000000009	C	Sep 21 2009 10:59:40:703AM	SUBSANADO 2009-06261	S	Sep 21 2009 12:55:28:030PM	S	N
0000006372	0000001023		T000000009	C	Sep 21 2009 11:06:17:016AM	VISARED 2009-06307	S	Sep 21 2009 12:55:47:626PM	S	N
0000006373	T000000013		T000000009	C	Sep 21 2009 11:06:17:016AM	VISARED 2009-06307	S	Sep 21 2009 11:57:16:156AM	S	N
0000006374	0000001023		T000000009	C	Sep 23 2009 12:45:51:686PM	VISARED 2009-06371	S	Sep 23 2009 12:54:42:466PM	S	N
0000006375	T000000013		T000000009	C	Sep 23 2009 12:45:51:686PM	VISARED 2009-06371	S	Sep 24 2009  9:09:09:640AM	S	N
0000006376	0000001023		T000000009	C	Sep 24 2009  2:00:22:016PM	VISRED 2009-06009 CARTA ANULANDO EXP.	S	Sep 25 2009  8:29:14:280AM	S	N
0000006377	T000000013		T000000009	C	Sep 24 2009  2:00:22:016PM	VISRED 2009-06009 CARTA ANULANDO EXP.	S	Sep 25 2009  9:17:26:826AM	S	N
0000006378	0000001023		T000000009	C	Sep 24 2009  2:14:50:233PM	SUBSANADO 2009-04531	S	Sep 25 2009  8:29:16:530AM	S	N
0000006379	T000000013		T000000009	C	Sep 24 2009  2:14:50:233PM	SUBSANADO 2009-04531	S	Sep 25 2009  9:18:55:466AM	S	N
0000006380	0000001023		T000000009	C	Sep 29 2009  7:50:23:030AM	VISARED 2009-06455	S	Sep 29 2009  8:19:45:576AM	S	N
0000006381	T000000013		T000000009	C	Sep 29 2009  7:50:23:030AM	VISARED 2009-06455	S	Sep 29 2009  9:00:49:016AM	S	N
0000006382	T000000013		0000001018	C	Sep 29 2009  9:41:51:596AM	ANTONIO COL. 2170  922.32.53.87	S	Sep 29 2009 10:04:39:640AM	N	N
0000006383	0000001023		0000001018	C	Sep 29 2009  9:49:22:446AM	REMI COL. 3030  667.94.53.32	S	Sep 29 2009  9:41:00:546AM	N	N
0000006384	0000001023		0000001018	C	Sep 29 2009 11:07:56:716AM	ANA GARCIA COL. 2628  636.17.37.00  922.32.11.36	S	Sep 29 2009 11:05:46:813AM	N	N
0000006385	0000001023		T000000009	C	Sep 29 2009  2:46:26:046PM	SUBSANADO EXP. 2008-01199, REF. 2009-06066 Y 2009-06067	S	Sep 30 2009  8:24:13:076AM	S	N
0000006386	0000001023		T000000009	C	Sep 29 2009  2:50:48:030PM	SUBSANADO 2009-06455	S	Sep 30 2009  8:24:38:780AM	S	N
0000006388	0000001003		0000001023	C	Sep 30 2009  8:59:06:920AM	VISARED 2009-6066/7, JAVIER AMIGÓ Y DAVID RODRÍGUEZ YA VSDO.	N		S	N
0000006390	0000001023		0000001018	C	Oct  1 2009  9:44:43:926AM	YAPCI 922.326.481	S	Oct  1 2009  9:47:02:826AM	N	N
0000006391	0000001023		0000001018	C	Oct  1 2009 10:58:25:493AM	BORGES  922.32.61.37	S	Oct  1 2009 12:01:58:266PM	N	N
0000006392	0000001023	Dice que por favor le llames que le corre prisa arreglar reparos del final de obra y según él, que no debe presentar la ficha del CTE.	0000001018	C	Oct  1 2009  1:03:10:686PM	FERMIN GUTIERREZ 699.046.973	S	Oct  1 2009  1:12:51:156PM	N	N
0000006393	0000001011		0000001018	C	Oct  1 2009  1:04:50:890PM	DOMINGO YANES COL 669 TLF: 646.15.27.87	S	Oct  1 2009  1:24:45:996PM	N	N
0000006394	T000000009		0000001018	C	Oct  1 2009  1:11:47:550PM	VICTOR DE MUSAAT  91.384.11.65.	S	Oct  1 2009  1:26:39:483PM	N	S
0000006395	0000001023	922.47.61.18.	0000001018	C	Oct  2 2009 10:54:52:003AM	EVA HDEZ. (AGENCIA PROTECCIÓN PLAN GENERAL DE S/C)	S	Oct  2 2009 11:23:36:186AM	N	N
0000006396	0000001023		0000001018	C	Oct  2 2009 10:56:32:226AM	JUAN CARLOS COL.2553 TLF 660.295.953.	S	Oct  2 2009 11:23:57:436AM	N	N
0000006397	0000001023		0000001018	C	Oct  2 2009 10:56:53:846AM	YAPCI 922.326.481 660.100.125	S	Oct  2 2009 11:24:16:453AM	N	N
0000006398	0000001023		0000001018	C	Oct  2 2009 11:03:41:876AM	CARLOS LORENZO (LAMMO EL 1º) 626.257.337	S	Oct  2 2009 11:24:45:203AM	N	N
0000006399	0000001023		0000001018	C	Oct  2 2009 11:05:35:226AM	JUAN BOSCO 636.95.22.55	S	Oct  2 2009 11:25:11:656AM	N	N
0000006400	0000001023		0000001018	C	Oct  2 2009 11:39:38:546AM	JESUS MANUEL MENDEZ 670.82.67.34	S	Oct  2 2009  2:32:24:093PM	N	N
0000006401	0000001023		0000001018	C	Oct  2 2009 11:48:43:260AM	DEPARTE DE J.C QUE LLAMES A TU ASESORIA!!!!	S	Oct  2 2009  2:32:26:593PM	N	N
0000006404	T000000013		T000000009	C	Oct  5 2009  8:09:41:126AM	VISARED 2009-06593	S	Oct  5 2009  8:34:18:640AM	S	N
0000006405	T000000013		T000000009	C	Oct  5 2009  8:24:29:780AM	VISARED 2009-06596	S	Oct  5 2009  8:44:16:703AM	S	N
0000006406	T000000013		0000001018	C	Oct  5 2009  9:34:18:850AM	JOSE EULOGIO BORGES TLF: 922.32.61.37	S	Oct  5 2009 12:36:41:703PM	N	N
0000006407	T000000013		T000000009	C	Oct  5 2009  9:35:56:436AM	VISARED 2009-06598	S	Oct  5 2009 10:14:20:076AM	S	N
0000006408	T000000013		0000001018	C	Oct  5 2009  1:00:23:766PM	EMILIO FALCON 677.80.81.75	S	Oct  5 2009  1:18:16:593PM	N	N
0000006409	T000000013		T000000009	C	Oct  6 2009  1:16:39:953PM	VISARED EXP. 2009-03413 D.O. Y COORD. SEGUIRDAD	S	Oct  6 2009  1:36:21:750PM	S	N
0000006410	T000000013		T000000009	C	Oct  7 2009  8:39:53:906AM	SUBSANADO EXP. 2009-03413 D.O.Y COORD.	S	Oct  7 2009  9:23:45:203AM	S	N
0000006411	T000000013		T000000009	C	Oct  7 2009 10:17:42:656AM	SUBSANADO EXP. 2009-03413, D.O FICHA CTE, COORD. SEGURIDAD	S	Oct  7 2009 10:50:56:436AM	S	N
0000006412	T000000013		0000001018	C	Oct  7 2009 11:38:58:893AM	IDAIRA CONDE 3245, TLF: 610.027.247	S	Oct  8 2009  9:03:36:890AM	N	N
0000006413	T000000013		0000001018	C	Oct  7 2009 12:50:01:663PM	VOLVIO A LLAMAR IDAIRA CONDE, QUE POR FAVOR LA LLAMES.	S	Oct  8 2009  9:03:40:156AM	N	N
0000006403	0000001023		T000000009	C	Oct  5 2009  8:09:41:126AM	VISARED 2009-06593	S	Oct  8 2009  8:02:12:313AM	S	N
0000006414	0000001023		0000001018	C	Oct  8 2009 10:05:16:436AM	JUAN MANUEL IZQUIERDO TLF: 665.015.378	S	Oct  8 2009 10:50:26:670AM	N	N
0000006416	0000001023		T000000009	C	Oct  9 2009  9:29:16:686AM	VISARED EXP. 2009-02357 REF. 2009-06718	S	Oct  9 2009  9:52:45:156AM	S	N
0000006417	T000000013		0000001018	C	Oct 13 2009 11:10:01:286AM	YOLANDA SANCHEZ COL. 3058 635.54.26.49	S	Oct 13 2009 11:15:53:610AM	N	N
0000006418	0000001023		0000001018	C	Oct 13 2009 11:10:25:583AM	JUAN JESUS COL. 2485   649.233.348	S	Oct 13 2009 12:20:15:436PM	N	N
0000006419	0000001023		0000001018	C	Oct 13 2009 11:47:13:616AM	ELISA GARCIA 629.54.73.99	S	Oct 13 2009 12:39:37:983PM	N	N
0000006421	T000000013		0000001018	C	Oct 13 2009 12:08:10:386PM	LEDY MONASTERIOS 3229	S	Oct 13 2009 12:21:42:966PM	N	N
0000006423	0000001023		0000001018	C	Oct 13 2009 12:25:33:626PM	LELMI MONASTERIOS COL.3229   619.918.789	S	Oct 13 2009 12:41:24:766PM	N	N
0000006424	T000000013		0000001018	C	Oct 13 2009 12:39:50:236PM	CARLOS MARTIN COL 1778   685.702.874DICE QUE ES MUY URGENTE	S	Oct 13 2009 12:50:59:716PM	N	N
0000006425	0000001023		T000000009	C	Oct 13 2009  1:46:16:796PM	MODIFICADO REF. 2009-06782 EXP. 2009-02358	S	Oct 13 2009  2:00:53:876PM	S	N
0000006426	T000000013		T000000009	C	Oct 13 2009  1:46:16:796PM	MODIFICADO REF. 2009-06782 EXP. 2009-02358	S	Oct 14 2009  8:25:23:813AM	S	N
0000006427	0000001023		T000000009	C	Oct 13 2009  1:56:25:656PM	VISARED 2009-06783	S	Oct 13 2009  2:03:52:016PM	S	N
0000006428	T000000013		T000000009	C	Oct 13 2009  1:56:25:656PM	VISARED 2009-06783	S	Oct 14 2009  8:23:24:233AM	S	N
0000006429	0000001023		T000000009	C	Oct 13 2009  2:15:15:640PM	VISARED 2009-06786	S	Oct 14 2009  8:36:17:670AM	S	N
0000006430	T000000013		T000000009	C	Oct 13 2009  2:15:15:640PM	VISARED 2009-06786	S	Oct 14 2009  8:25:14:343AM	S	N
0000006431	T000000013		T000000009	C	Oct 14 2009  8:39:07:280AM	VISARED 2009-06789 MENDEZ ZAPATA	S	Oct 14 2009  9:00:47:890AM	S	N
0000006433	0000001023		0000001018	C	Oct 14 2009 11:58:25:310AM	LELMY 619.918.789	S	Oct 15 2009  8:13:22:466AM	N	N
0000006434	0000001023		0000001018	C	Oct 15 2009 10:05:53:180AM	JOSE MANUEL TABOADA 607.84.22.20	S	Oct 15 2009 10:06:22:936AM	N	N
0000006435	0000001023		0000001018	C	Oct 15 2009 10:22:33:306AM	ELISA GARCIA 629.54.73.99	S	Oct 15 2009 10:13:49:216AM	N	N
0000006436	0000001023		T000000009	C	Oct 15 2009 10:51:51:516AM	VISARED 2009-06837	S	Oct 15 2009 11:38:31:453AM	S	N
0000006437	T000000013		T000000009	C	Oct 15 2009 10:51:51:516AM	VISARED 2009-06837	S	Oct 15 2009 11:23:40:813AM	S	N
0000006438	T000000013		T000000009	C	Oct 16 2009  8:26:16:016AM	VISARED 2009-06854, MODIFICADO	S	Oct 16 2009  8:54:51:216AM	S	N
0000006439	T000000013		0000001018	C	Oct 16 2009  9:34:52:203AM	NURIA 1782 615.94.21.30	S	Oct 16 2009  9:37:05:813AM	N	N
0000006440	T000000013		0000001018	C	Oct 16 2009 12:56:10:820PM	JUAN A. 608.604.648 EL DE LA LLAMADA Q SE CORTO	S	Oct 19 2009  8:27:47:313AM	N	N
0000006441	T000000013		0000001018	C	Oct 16 2009  1:25:37:350PM	JOSE LUIS DORTA 652.91.34.35	S	Oct 19 2009  8:27:51:716AM	N	N
0000006442	0000001023		T000000009	C	Oct 19 2009  9:05:27:030AM	VISARED 2009-06897	S	Oct 19 2009 11:16:38:750AM	S	N
0000006443	T000000013		T000000009	C	Oct 19 2009  9:05:27:030AM	VISARED 2009-06897	S	Oct 19 2009  9:33:06:530AM	S	N
0000006444	0000001023		T000000009	C	Oct 19 2009  9:10:34:266AM	VISARED 2009-06900	S	Oct 19 2009 11:16:41:266AM	S	N
0000006445	T000000013		T000000009	C	Oct 19 2009  9:10:34:266AM	VISARED 2009-06900	S	Oct 19 2009  9:35:05:030AM	S	N
0000006446	T000000013		T000000009	C	Oct 19 2009  9:59:57:483AM	SUBSANADO 2009-06900	S	Oct 19 2009 10:27:12:093AM	S	N
0000006447	0000001023		T000000009	C	Oct 19 2009 10:49:15:670AM	VISARED 2009-06916	S	Oct 19 2009 11:16:43:483AM	S	N
0000006448	T000000013		T000000009	C	Oct 19 2009 10:49:15:670AM	VISARED 2009-06916	S	Oct 19 2009 11:11:03:093AM	S	N
0000006449	T000000013		0000001018	C	Oct 19 2009 11:47:00:186AM	ANTONIO GARCIA 679.141.753	S	Oct 19 2009 12:14:06:186PM	N	N
0000006450	T000000013		0000001018	C	Oct 20 2009 10:14:21:683AM	JOSE EULOGIO BORGES 922.32.61.37	S	Oct 21 2009  9:41:20:796AM	N	N
0000006452	0000001023		T000000009	C	Oct 21 2009  7:33:54:546AM	VISARED 2009-06968	S	Oct 21 2009  8:01:54:156AM	S	N
0000006453	T000000013		T000000009	C	Oct 21 2009  7:33:54:546AM	VISARED 2009-06968	S	Oct 21 2009  8:57:08:326AM	S	N
0000006454	0000001023		T000000009	C	Oct 21 2009  7:44:06:280AM	SUBSANADO 2009-06837, SIGUE ESTANDO MAL	S	Oct 21 2009  8:01:58:483AM	S	N
0000006451	T000000013		0000001018	C	Oct 20 2009 10:27:20:800AM	VICTOR MELIAN 2227  677.91.33.34	S	Oct 21 2009  9:41:24:860AM	N	N
0000006455	0000001023		0000001018	C	Oct 21 2009 12:45:53:150PM	ORLANDO GUTIERREZ 922.26.23.23	S	Oct 22 2009  8:03:03:280AM	N	N
0000006456	0000001022		T000000009	C	Oct 22 2009  9:35:10:936AM	CAMBIO COLEGIADO VISARED 2009-07007	S	Oct 22 2009 10:36:28:813AM	S	N
0000006458	0000001023	 	0000001022	C	Oct 22 2009 10:37:28:420AM	CAMBIO COLEGIADO VISARED 2009-07007	S	Oct 22 2009 11:56:39:376AM	N	N
0000006459	0000001023		0000001018	C	Oct 22 2009 10:48:51:963AM	JUAN DE DIOS 649.675.103	S	Oct 22 2009  1:41:01:420PM	N	N
0000006460	0000001023		T000000009	C	Oct 22 2009 11:17:44:016AM	VISARED 2009-07016	S	Oct 22 2009  1:41:04:843PM	S	N
0000006461	T000000013		T000000009	C	Oct 22 2009 11:17:44:016AM	VISARED 2009-07016	S	Oct 22 2009  2:07:30:733PM	S	N
0000006462	0000001023		T000000009	C	Oct 23 2009  9:21:32:266AM	VISARED 2009-07060	S	Oct 26 2009  8:53:48:593AM	S	N
0000006463	T000000013		T000000009	C	Oct 23 2009  9:21:32:266AM	VISARED 2009-07060	S	Oct 23 2009 10:43:46:390AM	S	N
0000006464	0000001023		T000000009	C	Oct 23 2009  9:27:51:280AM	VISARED 2009-07061	S	Oct 26 2009  8:53:50:983AM	S	N
0000006465	T000000013		T000000009	C	Oct 23 2009  9:27:51:280AM	VISARED 2009-07061	S	Oct 23 2009 10:43:49:780AM	S	N
0000006466	T000000013		T000000009	C	Oct 23 2009  9:33:52:000AM	SUBSANADO 2009-06968	S	Oct 23 2009 10:43:52:796AM	S	N
0000006468	T000000013		0000001018	C	Oct 23 2009 11:55:35:783AM	ERNESTO RODRIGUEZ 2200 822.012.970	S	Oct 23 2009 12:47:43:046PM	N	N
0000006469	0000001023		0000001018	C	Oct 26 2009  9:43:41:856AM	CARLOS DELGADO COL. 570  922.23.06.44	S	Oct 26 2009 11:51:05:170AM	N	N
0000006470	0000001023		0000001018	C	Oct 26 2009  1:03:48:570PM	JUAN CARLOS DE LEON  628.019.024  2009-03508	S	Oct 26 2009  1:22:16:000PM	N	N
0000006471	0000001011	hola, nuestro comun amigo 797 puede visar? porfa es urgente porque esta aqui delante. gracias y saludos.	0000001009	C	Oct 26 2009  1:49:47:610PM	797	S	Oct 26 2009  1:57:34:536PM	N	N
0000006472	0000001023		T000000009	C	Oct 27 2009  8:38:29:280AM	VISARED 2009-07154	S	Oct 27 2009  8:43:07:750AM	S	N
0000006473	T000000013		T000000009	C	Oct 27 2009  8:38:29:280AM	VISARED 2009-07154	S	Oct 27 2009  9:17:14:326AM	S	N
0000006474	0000001023		T000000009	C	Oct 27 2009  8:45:31:453AM	VISARED MODIFICADO 2009-07157	S	Oct 27 2009  9:07:50:546AM	S	N
0000006475	T000000013		T000000009	C	Oct 27 2009  8:45:31:453AM	VISARED MODIFICADO 2009-07157	S	Oct 27 2009  9:20:10:813AM	S	N
0000006476	0000001023		T000000009	C	Oct 27 2009  8:50:28:530AM	VISARED 2009-07158	S	Oct 27 2009  9:07:56:920AM	S	N
0000006477	T000000013		T000000009	C	Oct 27 2009  8:50:28:530AM	VISARED 2009-07158	S	Oct 27 2009  9:20:32:376AM	S	N
0000006478	0000001023		T000000009	C	Oct 27 2009  8:53:21:000AM	VISARED 2009-07159	S	Oct 27 2009  9:07:59:233AM	S	N
0000006479	T000000013		T000000009	C	Oct 27 2009  8:53:21:000AM	VISARED 2009-07159	S	Oct 27 2009  9:20:35:860AM	S	N
0000006481	0000001023		T000000009	C	Oct 28 2009 10:46:03:920AM	SUBSANADO 2009-07154	S	Oct 28 2009 11:12:38:030AM	S	N
0000006482	0000001023		T000000009	C	Oct 28 2009 10:51:12:860AM	VISARED 2009-07211	S	Oct 28 2009 11:25:43:326AM	S	N
0000006483	T000000013		T000000009	C	Oct 28 2009 10:51:12:860AM	VISARED 2009-07211	S	Oct 28 2009 11:11:41:016AM	S	N
0000006484	0000001023		T000000009	C	Oct 28 2009 11:03:20:360AM	VISARED 2009-07212	S	Oct 28 2009 11:25:46:420AM	S	N
0000006485	T000000013		T000000009	C	Oct 28 2009 11:03:20:360AM	VISARED 2009-07212	S	Oct 28 2009 12:15:44:530PM	S	N
0000006486	0000001023		T000000009	C	Oct 29 2009  9:26:38:093AM	VISVARED 2009-07245	S	Oct 29 2009  9:33:41:343AM	S	N
0000006487	T000000013		T000000009	C	Oct 29 2009  9:26:38:093AM	VISVARED 2009-07245	S	Oct 29 2009  9:45:54:640AM	S	N
0000006488	0000001023		T000000009	C	Oct 29 2009  9:33:38:593AM	MODIFICDO NUEVA REF. 2009-07247	S	Oct 29 2009  9:59:14:063AM	S	N
0000006489	T000000013		T000000009	C	Oct 29 2009  9:33:38:593AM	MODIFICDO NUEVA REF. 2009-07247	S	Oct 29 2009  9:51:32:936AM	S	N
0000006491	T000000013		T000000009	C	Oct 29 2009  9:39:06:420AM	MODIFICADO, NUEVA REF. 2009-07248	S	Oct 29 2009  9:53:31:640AM	S	N
0000006492	0000001023		T000000009	C	Oct 29 2009  2:04:30:376PM	VISARED 2009-07267 E.S. REF. 2009-07268	S	Oct 30 2009  8:13:24:266AM	S	N
0000006493	T000000013		T000000009	C	Oct 29 2009  2:04:30:376PM	VISARED 2009-07267 E.S. REF. 2009-07268	S	Oct 30 2009  8:49:55:906AM	S	N
0000006495	0000001023		T000000009	C	Oct 29 2009  2:11:28:313PM	VISAREZ EXP. 2009-03700 REF. 2009-07267 Y 2009-07269	S	Oct 30 2009  8:13:57:110AM	S	N
0000006496	T000000013		T000000009	C	Oct 29 2009  2:11:28:313PM	VISAREZ EXP. 2009-03700 REF. 2009-07267 Y 2009-07269	S	Oct 30 2009  8:56:42:110AM	S	N
0000006497	0000001023		T000000009	C	Oct 30 2009 10:28:25:860AM	VISARED 2009-07278	S	Oct 30 2009 11:17:50:766AM	S	N
0000006498	T000000013		T000000009	C	Oct 30 2009 10:28:25:860AM	VISARED 2009-07278	S	Oct 30 2009 10:50:06:216AM	S	N
0000006499	0000001023		T000000009	C	Oct 30 2009 10:42:35:000AM	VISARED 2009-07279	S	Oct 30 2009 11:17:54:313AM	S	N
0000006500	T000000013		T000000009	C	Oct 30 2009 10:42:35:000AM	VISARED 2009-07279	S	Oct 30 2009 11:00:51:360AM	S	N
0000006501	T000000013		T000000009	C	Oct 30 2009 10:55:14:436AM	VISARED 2009-07285	S	Oct 30 2009 11:11:09:093AM	S	N
0000006502	T000000013		0000001018	C	Oct 30 2009 12:25:37:410PM	JOSE LUIS DORTA 2091 TLF: 652.91.34.35	S	Nov  2 2009 10:11:16:530AM	N	N
0000006503	T000000013		T000000009	C	Oct 30 2009  2:57:19:670PM	SUBSANADO 2009-07285	S	Nov  2 2009  8:35:44:453AM	S	N
0000006504	T000000013		0000001018	C	Nov  2 2009 10:26:06:736AM	JESUS FERRERO 1884	S	Nov  2 2009 10:25:52:703AM	N	N
0000006505	0000001023		0000001018	C	Nov  2 2009 11:19:52:506AM	JOSE EULOGIO BORGES 922.32.61.37	S	Nov  2 2009 11:41:18:626AM	N	N
0000006506	T000000013		0000001018	C	Nov  2 2009 11:22:43:390AM	CARMEN LUISA 922.25.02.77	S	Nov  2 2009 11:21:22:686AM	N	N
0000006507	0000001023		0000001018	C	Nov  2 2009 11:51:42:743AM	ALBERTO PINEDA COL. 1293, 670.84.18.12	S	Nov  2 2009 11:41:21:360AM	N	N
0000006508	T000000013		0000001018	C	Nov  2 2009 12:28:11:980PM	FRANCISCO RGUEZ. 2308  639.67.46.42	S	Nov  2 2009 12:50:45:280PM	S	N
0000006509	0000001023		T000000009	C	Nov  2 2009 12:32:53:733PM	CAMBIO PLANOS REF. 2009-07321	S	Nov  2 2009  1:36:44:686PM	S	N
0000006510	T000000013		T000000009	C	Nov  2 2009 12:32:53:733PM	CAMBIO PLANOS REF. 2009-07321	S	Nov  2 2009 12:54:08:860PM	S	N
0000006511	0000001023		T000000009	C	Nov  2 2009 12:39:06:826PM	MODIFICADO 2009-07322	S	Nov  2 2009  1:36:47:140PM	S	N
0000006512	T000000013		T000000009	C	Nov  2 2009 12:39:06:826PM	MODIFICADO 2009-07322	S	Nov  2 2009 12:54:13:953PM	S	N
0000006513	0000001023		T000000009	C	Nov  2 2009 12:58:16:750PM	VISARED 2009-07325	S	Nov  2 2009  1:37:03:953PM	S	N
0000006514	T000000013		T000000009	C	Nov  2 2009 12:58:16:750PM	VISARED 2009-07325	S	Nov  2 2009  1:44:33:530PM	S	N
0000006515	0000001023		T000000009	C	Nov  2 2009  1:10:47:466PM	CAMBIO PROMTOR EXPEDIENTE 2009-03413	S	Nov  2 2009  1:37:10:593PM	S	N
0000006516	T000000013		T000000009	C	Nov  2 2009  1:10:47:466PM	CAMBIO PROMTOR EXPEDIENTE 2009-03413	S	Nov  2 2009  1:45:51:626PM	S	N
0000006517	T000000013		T000000009	C	Nov  2 2009  1:19:52:936PM	SIGUE ESTANDO MAL EPIGRAFE 01 2009-07285	S	Nov  2 2009  1:46:52:016PM	S	N
0000006518	T000000013		0000001018	C	Nov  2 2009  1:44:53:166PM	JUAN A. MENDEZ ZAPATA 1934  608.67.46.42	S	Nov  2 2009  1:46:57:563PM	N	N
0000006519	0000001023		T000000009	C	Nov  2 2009  1:37:16:563PM	SUBSANADO 2009-06837	S	Nov  2 2009  1:46:10:920PM	S	N
0000006520	0000001023		T000000009	C	Nov  2 2009  1:46:50:670PM	VISARED 2009-07339	S	Nov  2 2009  2:01:28:140PM	S	N
0000006521	T000000013		T000000009	C	Nov  2 2009  1:46:50:670PM	VISARED 2009-07339	S	Nov  3 2009  7:45:06:216AM	S	N
0000006523	T000000013		T000000009	C	Nov  2 2009  1:57:53:063PM	VISARED 2009-07269	S	Nov  3 2009  7:46:18:640AM	S	N
0000006524	T000000013		T000000009	C	Nov  3 2009  9:47:21:733AM	SUBSANADO 2009-07016	S	Nov  3 2009 10:12:02:110AM	S	N
0000006525	0000001023		T000000009	C	Nov  3 2009 10:02:49:750AM	VISAED 2009-07359	S	Nov  3 2009 10:25:03:000AM	S	N
0000006526	T000000013		T000000009	C	Nov  3 2009 10:02:49:750AM	VISAED 2009-07359	S	Nov  3 2009 10:21:21:063AM	S	N
0000006527	0000001023		T000000009	C	Nov  3 2009 10:10:32:983AM	VISARED 2009-07360	S	Nov  3 2009 10:25:16:843AM	S	N
0000006528	T000000013		T000000009	C	Nov  3 2009 10:10:32:983AM	VISARED 2009-07360	S	Nov  3 2009 10:29:59:876AM	S	N
0000006529	0000001023		T000000009	C	Nov  3 2009 10:15:51:140AM	SUB. 2009-07007, EPIGRAFE PANTALLA 31 OK PERO EN H.S.V. 33	S	Nov  3 2009 10:25:25:593AM	S	N
0000006530	0000001023		T000000009	C	Nov  4 2009  9:30:29:296AM	VISARED 2009-07388	S	Nov  4 2009 10:30:30:563AM	S	N
0000006531	T000000013		T000000009	C	Nov  4 2009  9:30:29:296AM	VISARED 2009-07388	S	Nov  4 2009 10:05:19:516AM	S	N
0000006532	0000001023		T000000009	C	Nov  5 2009  8:21:26:686AM	SUBA. 2009-07423 ORIENTACION PLANOS	S	Nov  5 2009  9:10:53:140AM	S	N
0000006533	T000000013		T000000009	C	Nov  5 2009  8:21:26:686AM	SUBA. 2009-07423 ORIENTACION PLANOS	S	Nov  6 2009  8:58:25:983AM	S	N
0000006534	0000001023		T000000009	C	Nov  9 2009  7:36:05:453AM	VISARED 2009-07484	S	Nov  9 2009  8:14:38:516AM	S	N
0000006535	T000000013		T000000009	C	Nov  9 2009  7:36:05:453AM	VISARED 2009-07484	S	Nov  9 2009  8:14:16:576AM	S	N
0000006536	0000001023		0000001018	C	Nov  9 2009 12:46:36:766PM	VIRGINIA  COL.2279, TLF: 639.79.09.10	S	Nov  9 2009  1:04:40:563PM	N	N
0000006537	0000001023		0000001018	C	Nov 11 2009 12:29:37:376PM	ARTURO LORENZO VEGA TLF.622.288.704	S	Nov 11 2009 12:37:07:186PM	N	N
0000006538	T000000013		0000001018	C	Nov 12 2009  9:40:45:393AM	EDUARDO SANGIL 689.878.966	S	Nov 12 2009 10:10:15:703AM	N	N
0000006539	0000001023		T000000009	C	Nov 13 2009  7:56:54:826AM	VISARD EXP. 2009-02780, MODIFICADO DE PROYECTO Y D.O.	S	Nov 13 2009  8:19:52:563AM	S	N
0000006540	T000000013		T000000009	C	Nov 13 2009  7:56:54:826AM	VISARD EXP. 2009-02780, MODIFICADO DE PROYECTO Y D.O.	S	Nov 13 2009 10:28:49:876AM	S	N
0000006541	T000000013		0000001018	C	Nov 13 2009  8:42:34:070AM	JUAN A. MENDEZ ZAP. 1934  608.604.648	S	Nov 13 2009 10:28:52:953AM	N	N
0000006542	T000000013		0000001018	C	Nov 16 2009  9:10:05:196AM	JUAN CARLOS ALAYON 2804 TLF: 922.33.02.85	S	Nov 16 2009  9:15:50:610AM	N	N
0000006543	T000000013		0000001018	C	Nov 16 2009 12:02:43:090PM	SONIA MESA 2296 TLF: 922.50.37.98.	S	Nov 16 2009 12:53:59:656PM	N	N
0000006544	T000000013		0000001018	C	Nov 17 2009 10:54:12:476AM	LAURA 3321 TLF: 685.88.50.16	S	Nov 18 2009  9:27:28:156AM	N	N
0000006545	0000001023		T000000009	C	Nov 18 2009  9:02:30:233AM	VISARED 2009-07736	S	Nov 18 2009 10:04:42:110AM	S	N
0000006546	T000000013		T000000009	C	Nov 18 2009  9:02:30:233AM	VISARED 2009-07736	S	Nov 18 2009  9:28:50:046AM	S	N
0000006547	0000001023	QUE LO VUELVAS A LLAMAR CUANDO PUEDAS.	0000001018	C	Nov 18 2009 11:26:45:976AM	LLAMÓ CRISTO DICE QUE NO TE PUDO COGER LA LLAMADA...	S	Nov 18 2009 11:27:23:140AM	N	N
0000006548	T000000013		0000001018	C	Nov 18 2009 12:56:40:993PM	JUAN ANTONIO 1934 608.604.648	S	Nov 19 2009  9:17:42:890AM	N	N
0000006550	0000001023	COMENTAR LOS REPAROS CONTIGO.	0000001018	C	Nov 19 2009  8:59:18:030AM	JUAN CARLOS ALAYON COL. 2804 TLF: 922.33.02.85	S	Nov 19 2009  8:53:22:326AM	N	N
0000006551	T000000013		T000000009	C	Nov 19 2009  9:23:16:813AM	SUBSANADO 2009-07736	S	Nov 19 2009 10:03:32:170AM	S	N
0000006553	T000000013		0000001018	C	Nov 19 2009 10:06:38:760AM	MARIANO COL. 1009 TLF: 922.013.703	S	Nov 19 2009 10:08:05:640AM	N	N
0000006554	0000001023		0000001018	C	Nov 19 2009 11:25:38:436AM	JORGE GARCIA 1849 TLF: 610.71.24.02	S	Nov 19 2009 12:54:16:546PM	N	N
0000006555	0000001023		0000001018	C	Nov 19 2009 12:50:40:763PM	SANTIAGO RODRIGUEZ 2111 TLF: 922.625.205	S	Nov 19 2009 12:55:41:876PM	N	N
0000006556	0000001023		T000000009	C	Nov 20 2009  8:29:28:920AM	VISARED 2009-07814	S	Nov 20 2009  8:39:52:030AM	S	N
0000006557	T000000013		T000000009	C	Nov 20 2009  8:29:28:920AM	VISARED 2009-07814	S	Nov 20 2009  9:05:36:656AM	S	N
0000006558	T000000013		0000001018	C	Nov 20 2009  9:31:41:693AM	JESUS DEL CASTILLO TLF: 629.502.228	S	Nov 20 2009 12:16:32:563PM	N	N
0000006559	T000000013		0000001018	C	Nov 20 2009 10:20:19:740AM	ERNESTO DE GALTOR 822.012.970	S	Nov 20 2009 12:16:36:936PM	N	N
0000006562	T000000013		0000001018	C	Nov 20 2009  1:15:29:003PM	MARIO MESA 962 619.163.143	S	Nov 23 2009  9:04:55:966AM	N	N
0000006563	0000001023		0000001018	C	Nov 23 2009 11:15:40:316AM	ASIER ELEJABEITIA TLF: 639.66.48.45	S	Nov 23 2009 11:37:40:640AM	N	N
0000006565	T000000013		0000001018	C	Nov 23 2009 11:42:49:706AM	NORBERTO DIAZ 2711 TLF: 669.44.63.23	S	Nov 23 2009 11:43:03:030AM	N	N
0000006566	0000001023		T000000009	C	Nov 23 2009 11:53:20:626AM	VISARED 2009-07873	S	Nov 23 2009 12:07:53:530PM	S	N
0000006567	T000000013		T000000009	C	Nov 23 2009 11:53:20:626AM	VISARED 2009-07873	S	Nov 23 2009 12:16:34:406PM	S	N
0000006568	0000001023		T000000009	C	Nov 23 2009 12:31:29:670PM	SUBSANADO EXP. 2009-02780 TOÑO	S	Nov 23 2009 12:38:18:313PM	S	N
0000006569	0000001023		0000001018	C	Nov 23 2009  1:27:10:890PM	FRANCISCO GOMEZ COL. 1906, LTF: 922.35.91.97	S	Nov 23 2009  1:25:02:703PM	N	N
0000006571	0000001023		0000001018	C	Nov 24 2009 11:41:47:243AM	JUAN A. MENDEZ ZAPATA  608.604.648	S	Nov 24 2009 12:02:30:126PM	N	N
0000006572	0000001023		0000001018	C	Nov 24 2009  1:17:59:373PM	IDAIRA CONDE 3245, TLF: 610.027.247	S	Nov 24 2009  1:30:52:640PM	N	N
0000006573	0000001023		T000000009	C	Nov 25 2009  8:53:26:063AM	ANEXO 2009-07928 EXP. 2009-03096	S	Nov 25 2009  9:00:17:233AM	S	N
0000006574	T000000013		T000000009	C	Nov 25 2009  8:53:26:063AM	ANEXO 2009-07928 EXP. 2009-03096	S	Nov 25 2009 11:10:11:483AM	S	N
0000006575	T000000013		0000001018	C	Nov 25 2009 10:22:26:513AM	LUIS ARROYO 564 922.27.08.14	S	Nov 25 2009 11:51:05:516AM	N	N
0000006576	0000001023		T000000009	C	Nov 25 2009 11:39:51:593AM	VISARED EXP. 2009-04025, PROYECTO Y ESTUDIO BASICO SEGURIDAD	S	Nov 25 2009 12:05:15:266PM	S	N
0000006577	T000000013		T000000009	C	Nov 25 2009 11:39:51:593AM	VISARED EXP. 2009-04025, PROYECTO Y ESTUDIO BASICO SEGURIDAD	S	Nov 25 2009 11:58:56:983AM	S	N
0000006579	0000001023		T000000009	C	Nov 26 2009  9:13:53:906AM	VISARED 2009-07977	S	Nov 26 2009  9:36:48:266AM	S	N
0000006580	T000000013		T000000009	C	Nov 26 2009  9:13:53:906AM	VISARED 2009-07977	S	Nov 26 2009 10:21:45:420AM	S	N
0000006581	0000001023		T000000009	C	Nov 26 2009  9:22:17:780AM	VISARED 2009-07978	S	Nov 26 2009  9:36:50:610AM	S	N
0000006582	T000000013		T000000009	C	Nov 26 2009  9:22:17:780AM	VISARED 2009-07978	S	Nov 26 2009 10:25:15:203AM	S	N
0000006583	T000000013		0000001018	C	Nov 26 2009 11:25:01:186AM	IVAN 626.11.59.54	S	Nov 27 2009 10:45:01:813AM	N	N
0000006584	T000000013		0000001018	C	Nov 26 2009  1:17:43:510PM	GERMAN LOPEZ 607.79.64.19	S	Nov 27 2009 10:45:06:343AM	N	N
0000006585	T000000013		T000000009	C	Nov 27 2009  8:44:52:766AM	SUBSANADO 2009-07977	S	Nov 27 2009 10:45:13:093AM	S	N
0000006586	T000000013		T000000009	C	Nov 27 2009  8:49:51:436AM	SUBSANADO 2009-07978	S	Nov 27 2009 10:45:15:750AM	S	N
0000006587	T000000013		0000001018	C	Nov 27 2009 11:06:04:516AM	MARCOS CRUZ 1624 TLF: 922.56.25.68  649.45.12.07	S	Nov 27 2009 11:09:56:500AM	N	N
0000006588	T000000013		0000001018	C	Nov 27 2009 11:30:34:470AM	PEDRO MANUEL PINO 3069 616.50.92.84	S	Nov 27 2009 12:08:07:876PM	N	N
0000006589	T000000013		0000001018	C	Nov 27 2009  1:46:15:086PM	2777 GUILLERMO MARTIN 600.50.56.67	S	Nov 30 2009  8:59:49:593AM	N	N
0000006590	0000001023		T000000009	C	Nov 30 2009  8:46:14:313AM	SUBSA EXP. 2009-04025, PROYECTO Y SEGURIDAD	S	Nov 30 2009  8:59:41:766AM	S	N
0000006591	0000001023		T000000009	C	Nov 30 2009  8:59:44:110AM	VISARED 2009-08048	S	Nov 30 2009  9:16:24:546AM	S	N
0000006592	T000000013		T000000009	C	Nov 30 2009  8:59:44:110AM	VISARED 2009-08048	S	Nov 30 2009  9:21:25:563AM	S	N
0000006593	T000000013		0000001018	C	Nov 30 2009 10:11:30:363AM	SERGIO REYES 629.51.67.23	S	Nov 30 2009 10:20:02:296AM	N	N
0000006594	T000000013		0000001018	C	Nov 30 2009 11:19:48:296AM	ANTONIO 679.141.753	S	Dec  2 2009  9:12:12:186AM	N	N
0000006595	0000001023		0000001018	C	Nov 30 2009 11:38:23:366AM	ANA GARCÍA 636.17.37.00	S	Nov 30 2009 11:39:13:483AM	N	N
0000006596	0000001023		0000001018	C	Dec  1 2009 10:09:05:096AM	JUAN CARLOS ALAYON 2804 686.478.666	S	Dec  1 2009 10:10:16:140AM	N	N
0000006597	0000001023		0000001018	C	Dec  1 2009 10:14:55:883AM	JUAN A. MENDEZ 1934 608.604.648	S	Dec  1 2009 10:10:19:516AM	N	N
0000006598	0000001023	ES ARQUITECTO QUIRE HABLAR CONTIGO SOBRE UNOS PROBLEMAS DE ACUERDOS ENTRE EL COLEGIO DE ARQU. Y EL DE APAREJADORES POR UN FINAL DE OBRA.	0000001018	C	Dec  1 2009 12:20:55:130PM	ALEJNDRO SIVERIO 922.35.91.97	S	Dec  1 2009  1:23:41:030PM	N	N
0000006600	0000001023	PARA COMENTAR REPAROS CONTIGO.	0000001018	C	Dec  1 2009 12:50:03:886PM	PEDRO GUANCHE 922.812.105	S	Dec  1 2009  1:24:05:733PM	N	N
0000006601	T000000013		0000001018	C	Dec  1 2009 12:56:39:063PM	CARLOS DOMINGUEZ 976  619.18.03.26	S	Dec  2 2009  9:15:51:063AM	N	N
0000006602	0000001023		0000001018	C	Dec  2 2009  9:04:19:423AM	MIGUEL MELO 2819  626.37.17.10	S	Dec  2 2009  9:10:17:436AM	N	N
0000006603	T000000013		T000000009	C	Dec  2 2009  8:58:07:876AM	SUBSANADO 2009-08048	S	Dec  2 2009  9:15:56:326AM	S	N
0000006599	T000000013		0000001018	C	Dec  1 2009 12:22:07:586PM	JONATHAN CANINO 2882  615.483.290	S	Dec  2 2009  9:12:45:703AM	N	N
0000006604	0000001023		0000001018	C	Dec  2 2009  9:55:48:573AM	JOSE ALVAREZ 2698  922.37.02.44	S	Dec  2 2009  9:48:27:576AM	N	N
0000006605	0000001023		T000000009	C	Dec  2 2009 10:12:53:110AM	SUBSANADO EXP. 2009-04025, PROYECTO Y SEGURIDAD	S	Dec  2 2009 10:28:33:766AM	S	N
0000006606	T000000013		0000001018	C	Dec  2 2009 10:35:54:013AM	JUAN ANTONIO MENDEZ 1934  608.604.648	S	Dec  2 2009 12:41:32:920PM	N	N
0000006607	T000000013		0000001018	C	Dec  2 2009 12:22:05:113PM	JONATHAN CANINO 615.483.290 / 928.76.99.58	S	Dec  2 2009 12:44:16:906PM	N	N
0000006608	0000001023		T000000009	C	Dec  2 2009 12:56:20:733PM	VISARED 2009-08157	S	Dec  2 2009  1:08:41:170PM	S	N
0000006609	T000000013		T000000009	C	Dec  2 2009 12:56:20:733PM	VISARED 2009-08157	S	Dec  3 2009 10:53:51:656AM	S	N
0000006610	0000001023		0000001018	C	Dec  3 2009 10:23:08:056AM	ELDIO MIOSES 615.679.880	S	Dec  3 2009 10:22:33:876AM	N	N
0000006611	T000000013		0000001018	C	Dec  3 2009 10:28:32:776AM	TOMAS PEREZ HDEZ. 670.67.54.15	S	Dec  3 2009  1:26:12:500PM	N	N
0000006612	0000001023		0000001018	C	Dec  3 2009 10:40:41:663AM	MIGUEL ACOSTA 2819  626.37.17.10	S	Dec  3 2009 10:35:53:530AM	N	N
0000006613	0000001023		0000001018	C	Dec  3 2009  1:02:32:060PM	PABLO LOPEZ 650.57.27.01	S	Dec  3 2009  1:29:14:766PM	N	N
0000006614	T000000013		0000001018	C	Dec  3 2009  1:04:26:826PM	MANUEL NAVARRO 1149  607.38.64.21	S	Dec  4 2009  9:02:39:296AM	N	N
0000006615	T000000013		0000001018	C	Dec  4 2009  9:04:16:193AM	JUAN PEDRO GALINDO 2579  619.84.70.99	S	Dec  4 2009  9:05:03:516AM	N	N
0000006616	0000001023		T000000009	C	Dec  4 2009  8:54:22:390AM	VISARED 2009-08198	S	Dec  4 2009 10:12:22:313AM	S	N
0000006617	T000000013		T000000009	C	Dec  4 2009  8:54:22:390AM	VISARED 2009-08198	S	Dec  4 2009  9:08:20:716AM	S	N
0000006618	0000001023		T000000009	C	Dec  4 2009  9:13:33:110AM	VISARED EXP. 2008-04475	S	Dec  4 2009 10:12:24:656AM	S	N
0000006619	T000000013		T000000009	C	Dec  4 2009  9:13:33:110AM	VISARED EXP. 2008-04475	S	Dec  4 2009  9:58:14:983AM	S	N
0000006620	T000000013		0000001018	C	Dec  4 2009  9:55:34:220AM	CARLOS DOMINGUEZ DEL TORO  619.18.03.26	S	Dec  4 2009 10:03:07:436AM	N	N
0000006621	0000001023		T000000009	C	Dec  4 2009  9:43:57:640AM	VISAED 2009-08202	S	Dec  4 2009 10:12:31:936AM	S	N
0000006622	T000000013		T000000009	C	Dec  4 2009  9:43:57:640AM	VISAED 2009-08202	S	Dec  4 2009 10:03:03:766AM	S	N
0000006623	0000001023		0000001018	C	Dec  4 2009 11:19:36:860AM	FRANCISCO MONTAÑES COL.2437 TLF: 670.63.32.54	S	Dec  4 2009  2:05:13:593PM	N	N
0000006624	0000001023		0000001018	C	Dec  4 2009 12:13:18:693PM	MIGUEL COL. 2819, TLF: 626.37.17.10	S	Dec  4 2009  2:05:54:390PM	N	N
0000006625	T000000013		0000001018	C	Dec  4 2009 12:13:43:236PM	TOMAS PEREZ 1426  922.66.11.99	S	Dec  4 2009  1:25:25:126PM	N	N
0000006627	0000001023		0000001018	C	Dec  4 2009 12:51:10:370PM	YAPCI 660.100.125  922.326.481	S	Dec  4 2009  2:06:56:076PM	N	N
0000006628	0000001023	ESTUVO ANTES AQUI CONTIGO, DICE Q ES UNA PREGUNTA RAPIDA.	0000001018	C	Dec  4 2009  1:01:53:363PM	JOSE ANGEL MARTINEZ 626.07.22.68	S	Dec  4 2009  2:06:58:983PM	N	N
0000006629	T000000013	DICE QUE AUN ESTÁ ESPERANDO TU LLAMADA	0000001018	C	Dec  4 2009  1:02:48:103PM	JONATHAN CANINO 615.483.290	S	Dec  9 2009 10:13:13:186AM	N	N
0000006630	0000001023		T000000009	C	Dec  9 2009  8:57:52:233AM	VISAARED 2009-08244	S	Dec  9 2009  9:26:31:686AM	S	N
0000006631	T000000013		T000000009	C	Dec  9 2009  8:57:52:233AM	VISAARED 2009-08244	S	Dec  9 2009  9:12:03:216AM	S	N
0000006632	T000000013		T000000009	C	Dec  9 2009  9:11:57:920AM	SUBSANADO EXPEDIENTE 2008-04475	S	Dec  9 2009 10:14:45:076AM	S	N
0000006633	0000001023	 	T000000009	C	Dec  9 2009  9:54:37:876AM	VISARED 2009-08254	S	Dec  9 2009 10:27:36:530AM	S	N
0000006634	T000000013	 	T000000009	C	Dec  9 2009  9:54:37:876AM	VISARED 2009-08254	S	Dec  9 2009 10:13:18:076AM	S	N
0000006635	0000001023		0000001018	C	Dec  9 2009 10:19:29:210AM	JUAN MANUEL BORDON  609.249.408	S	Dec  9 2009 10:28:06:656AM	N	N
0000006636	T000000013		0000001018	C	Dec 10 2009 10:05:43:786AM	RAFAEL PILO 607.43.20.56	S	Dec 10 2009 10:56:36:170AM	N	N
0000006637	0000001023		T000000014	C	Dec 10 2009 11:03:47:710AM	JOSE VICTOR GLE.Z PADILLA 607.92.72.76	S	Dec 10 2009 11:37:29:406AM	N	N
0000006638	0000001023		T000000014	C	Dec 10 2009 11:07:03:400AM	SAMUEL BEZARES COL.3068  656.77.64.30.	S	Dec 10 2009 11:37:32:046AM	N	N
0000006639	T000000013		T000000014	C	Dec 10 2009  1:10:02:603PM	GENARO 922.51.16.99	S	Dec 10 2009  1:29:01:233PM	N	N
0000006640	0000001023		T000000009	C	Dec 11 2009  8:42:53:436AM	VISARED 2009-08333	S	Dec 11 2009 10:34:12:716AM	S	N
0000006641	T000000013		T000000009	C	Dec 11 2009  8:42:53:436AM	VISARED 2009-08333	S	Dec 11 2009 11:51:14:640AM	S	N
0000006642	T000000013		T000000009	C	Dec 11 2009  8:57:48:703AM	SUBSANADO EXPDTE. 2008-04475	S	Dec 11 2009 11:54:41:626AM	S	N
0000006643	T000000013		0000001018	C	Dec 11 2009  9:36:14:333AM	JULIAN 609.25.92.21	S	Dec 11 2009 11:57:29:843AM	N	N
0000006644	T000000013		0000001018	C	Dec 11 2009  9:45:17:856AM	JAVIER MARRERO 2482  686.438.641	S	Dec 11 2009 11:58:28:983AM	N	N
0000006645	T000000013		0000001018	C	Dec 11 2009  9:52:32:050AM	CARLOS LOPEZ 2133  629.51.62.60	S	Dec 11 2009 12:02:48:920PM	N	N
0000006646	0000001023		T000000009	C	Dec 11 2009 10:25:19:640AM	VISARED 2009-08346	S	Dec 11 2009 10:34:16:063AM	S	N
0000006647	0000001023		T000000009	C	Dec 11 2009 11:51:40:046AM	EXPEDIENTE SUBSANADO 2009-04025	S	Dec 11 2009 12:39:52:250PM	S	N
0000006648	T000000013		T000000009	C	Dec 11 2009 11:51:40:046AM	EXPEDIENTE SUBSANADO 2009-04025	S	Dec 11 2009 12:15:42:626PM	S	N
0000006649	0000001023		T000000009	C	Dec 11 2009 11:55:26:186AM	SUBSANADO 2009-08346	S	Dec 11 2009 12:39:54:953PM	S	N
0000006650	T000000013		0000001018	C	Dec 11 2009 12:50:33:330PM	SANTIAGO RIVERO 666.81.40.52	S	Dec 11 2009 12:54:54:593PM	N	N
0000006652	0000001023	CUANDO PUEDAS QUE LA LLAMES	0000001010	C	Dec 14 2009  9:14:25:893AM	LLAMADA LELMI COLEGIADA 3229, 619,91,87,89	S	Dec 14 2009  9:39:48:126AM	S	N
0000006653	T000000013		0000001010	C	Dec 14 2009  9:15:02:720AM	LLAMADA DE GENARO 922.51.16.99	S	Dec 14 2009  9:34:46:906AM	S	N
0000006654	0000001023		0000001018	C	Dec 14 2009  9:57:31:383AM	JORGE CASTRO 2354  922.78.07.79  677.02.17.15	S	Dec 14 2009 10:04:03:406AM	N	N
0000006655	T000000013		0000001018	C	Dec 14 2009  9:59:14:120AM	GENARO 922.51.16.99	S	Dec 14 2009 10:08:56:826AM	N	N
0000006656	T000000013		0000001018	C	Dec 14 2009 11:39:19:926AM	ASCANIO 610.70.88.99	S	Dec 14 2009 12:36:38:860PM	N	N
0000006658	T000000013		0000001018	C	Dec 14 2009  1:23:17:036PM	GENARO OTRA VEZ 605.677.201	S	Dec 15 2009  9:07:20:826AM	N	N
0000006659	0000001023		0000001018	C	Dec 15 2009  9:20:21:096AM	CRISTO CL. 2867 TLF: 670.63.45.02	S	Dec 15 2009  9:59:59:516AM	N	N
0000006660	0000001023		0000001018	C	Dec 15 2009 11:04:51:936AM	JULIÁN DE TAHERPE 609.259.221	S	Dec 15 2009 10:58:57:656AM	N	N
0000006661	T000000013		0000001018	C	Dec 15 2009 11:09:27:413AM	JOSE MIGUEL SANTOS  1878 TLF. 657.89.73.17	S	Dec 15 2009 12:09:36:296PM	N	N
0000006662	0000001023		0000001018	C	Dec 15 2009 11:49:35:203AM	SAMUEL BEZARES 3068, TLF: 656.77.64.31	S	Dec 15 2009 12:19:06:266PM	N	N
0000006663	0000001023		0000001018	C	Dec 15 2009 11:53:50:993AM	MIGUEL ANGEL GORDILLO 607.752.037	S	Dec 15 2009 12:19:08:296PM	N	N
0000006664	0000001023		0000001018	C	Dec 15 2009 12:37:30:116PM	AURELIO CASTRO 671 LA PALMA  922.41.10.25	S	Dec 15 2009  1:53:21:876PM	N	N
0000006665	T000000013		0000001018	C	Dec 15 2009  1:15:26:000PM	ALEJANDRO CORDOBA COL. LANZAROTE, 660.39.41.51	S	Dec 15 2009  1:39:49:766PM	N	N
0000006666	0000001023		T000000009	C	Dec 15 2009  2:52:38:093PM	VISARD 2009-08469	S	Dec 16 2009  8:24:33:016AM	S	N
0000006668	T000000013		0000001018	C	Dec 16 2009  9:51:53:866AM	PEDRO DE TAHERPE 922.32.69.10	S	Dec 28 2009  8:16:31:326AM	N	N
0000006670	T000000003		T000000009	C	Dec 16 2009 12:28:57:670PM	VISADO COAC 2009-07833 75523 PENDIENTE DE VISAR EN COAC	S	Dec 16 2009  1:45:11:826PM	S	N
0000006671	T000000013	DICE QUE NECESITA EL VISADO URGENTE DE ESE EXPEDIENTE, QUE A EL NO LE IMPORTA QUIÉN HEREDE Y QUE VA A MANDAR UN FAX CON LOS NIF.
DICE QUE LO LLAMES QUE EL SI COGE EL TLF. DESPUÉS DE LAS 13:00.	0000001018	C	Dec 16 2009  1:20:50:860PM	JULIAN DE TAHERPE (VER NOTA)	S	Dec 28 2009  8:16:35:140AM	N	N
0000006672	0000001023		0000001018	C	Dec 17 2009  9:39:53:480AM	ARGIMIRO GARCIA 677, 639.21.65.70	S	Dec 17 2009  9:37:20:546AM	N	N
0000006673	0000001023		T000000009	C	Dec 17 2009 11:13:08:983AM	VISARED 2009-08528	S	Dec 17 2009 12:16:40:360PM	S	N
0000006674	0000001023	TLF: 922.701.129.	0000001018	C	Dec 17 2009 12:42:33:640PM	MANUEL HERNANDEZ 02457 DICE Q ES URGENTE	S	Dec 17 2009 12:46:50:686PM	N	N
0000006675	0000001023		0000001018	C	Dec 17 2009 12:43:39:256PM	CRISTO MANUEL 2867  TLF: 670.63.45.02.	S	Dec 17 2009 12:46:53:313PM	N	N
0000006676	0000001023		0000001018	C	Dec 17 2009  1:14:05:633PM	JOSE LUIS REGALADO 574 TLF: 600.54.55.50	S	Dec 17 2009  1:07:35:343PM	N	N
0000006677	0000001023	VA A VISAR AQUI Y EN EL HIERRO Y TIENE ALGUNOS PROBLEMAS CON ARONA...
TLF:660.39.41.51.	0000001018	C	Dec 17 2009  1:38:34:123PM	ALEJANDRO CORDOBA COL .LANZAROTE	S	Dec 18 2009  8:46:57:530AM	N	N
0000006678	0000001023		T000000009	C	Dec 18 2009  9:20:47:216AM	VISARED 2009-08563	S	Dec 18 2009  9:33:02:250AM	S	N
0000006679	0000001023		0000001018	C	Dec 18 2009 11:27:11:976AM	JESUS G. LORENZO BORGES  658.847.299	S	Dec 18 2009  1:21:43:250PM	N	N
0000006680	0000001023		0000001018	C	Dec 18 2009 12:03:05:473PM	FELIX HDEZ. TLF: 922.26.69.57	S	Dec 18 2009  1:21:48:843PM	N	N
0000006681	0000001023		T000000009	C	Dec 18 2009  1:16:12:263PM	JORGE CASTRO 922.78.07.79	S	Dec 18 2009  1:21:51:563PM	S	N
0000006682	0000001023		T000000009	C	Dec 18 2009  1:23:29:470PM	PEDRO DÉNIZ 922.20.22.96	S	Dec 18 2009  1:21:53:953PM	S	N
0000006683	0000001023		0000001018	C	Dec 18 2009  2:19:15:140PM	ALEJANDRO COEDOBA DICE QUE ESTA ESPERANDO LA LLAMADA	S	Dec 21 2009  8:13:20:936AM	N	N
0000006684	0000001023		0000001018	C	Dec 22 2009 11:48:22:070AM	PACO FERRER COL.899: 677.53.95.22	S	Dec 22 2009 12:50:13:656PM	N	N
0000006685	0000001023	LO ANTES POSIBLE AL 687.583.871	0000001018	C	Dec 22 2009 12:17:10:163PM	LUIS NOBREGA DICE QUE LO LLAMES...	S	Dec 22 2009 12:50:05:406PM	N	N
0000006686	0000001023		T000000009	C	Dec 22 2009  1:39:59:140PM	VISARED 2009-08680	S	Dec 23 2009  8:17:46:406AM	S	N
0000006687	0000001023		T000000009	C	Dec 22 2009  1:44:33:420PM	VISARED 2009-08681	S	Dec 23 2009  8:17:50:483AM	S	N
0000006688	0000001023	FALTABA COMUNICADO COAC, YA LLEGO, ESTA EN DATOS ADJUNTOS.
FIJARSE EN EL PROMOTOR,
ESTUDIO DE SEGURIDAD????	T000000009	C	Dec 23 2009 12:04:59:140PM	VISARED 2009-08563	S	Dec 23 2009 12:26:36:656PM	S	N
0000006667	T000000013		T000000009	C	Dec 15 2009  2:52:38:093PM	VISARD 2009-08469	S	Dec 28 2009  8:15:49:233AM	S	N
0000006689	0000001023		0000001018	C	Dec 28 2009 12:55:12:766PM	DAVID CASTAÑEDO 2826  649.42.73.35	S	Dec 28 2009 12:56:10:420PM	N	N
0000006690	T000000013		T000000009	C	Dec 29 2009  9:10:29:280AM	VISARED 2009-08563	S	Dec 29 2009 10:36:36:983AM	S	N
0000006691	0000001023		0000001018	C	Dec 29 2009  9:39:40:556AM	FERMÍN GUTIÉRREZ 619.046.973	S	Dec 29 2009  9:57:08:750AM	N	N
0000006692	0000001023		T000000009	C	Dec 29 2009 11:58:29:280AM	SUBSANADO. 2009-08528	S	Dec 29 2009 12:07:25:670PM	S	N
0000006693	0000001023		T000000009	C	Dec 30 2009 10:54:00:796AM	VISARED 2009-08782	S	Dec 30 2009 11:42:18:843AM	S	N
0000006694	T000000013		T000000009	C	Dec 30 2009 10:54:00:796AM	VISARED 2009-08782	S	Dec 30 2009  1:12:24:140PM	S	N
0000006695	0000001023		T000000009	C	Dec 30 2009 12:00:47:780PM	VISARED 2009-08790	S	Dec 30 2009 12:58:32:766PM	S	N
0000006696	T000000013		T000000009	C	Dec 30 2009 12:00:47:780PM	VISARED 2009-08790	S	Dec 30 2009 12:16:39:216PM	S	N
0000006697	0000001023		T000000009	C	Jan  4 2010  9:53:03:563AM	VISARED 2010-00005	S	Jan  4 2010 10:00:40:593AM	S	N
0000006698	0000001023		T000000009	C	Jan  4 2010 10:20:23:843AM	VISARED EXPDTE. 2009-04396	S	Jan  4 2010 10:27:42:046AM	S	N
0000006699	0000001023		T000000009	C	Jan  4 2010  1:32:19:656PM	VISARED 2010-00026	S	Jan  5 2010  8:19:29:376AM	S	N
0000006700	0000001023		0000001018	C	Jan 11 2010  8:31:25:083AM	ALEJANDRO MARFIL 699.626.019	S	Jan 11 2010  8:37:45:716AM	N	N
0000006703	0000001023		0000001018	C	Jan 11 2010 11:10:23:500AM	VIRGINIA 2279 639.79.09.10	S	Jan 11 2010 11:17:33:860AM	N	N
0000006704	0000001023		0000001018	C	Jan 11 2010  1:16:07:036PM	MARCOS PÉREZ 2010  619.08.17.53	S	Jan 11 2010  1:11:42:890PM	N	N
0000006705	0000001023		0000001018	C	Jan 11 2010  1:27:03:780PM	JESUS GUILLERMO 2220 TLF: 658.847.299	S	Jan 11 2010  1:54:22:890PM	N	N
0000006707	T000000013		0000001018	C	Jan 12 2010 10:27:36:346AM	JUAN A. MÉNDEZ 1934 TLF: 608.604.648	S	Jan 12 2010 10:30:11:703AM	N	N
0000006709	T000000013		0000001018	C	Jan 12 2010 11:23:48:626AM	2698 JOSEÉ ÁLVAREZ 616.105.408	S	Jan 12 2010 11:25:37:126AM	N	N
0000006711	T000000013		T000000009	C	Jan 14 2010  9:51:47:266AM	VISARED 2010-00153	S	Jan 14 2010 10:06:09:766AM	S	N
0000006710	0000001023		T000000009	C	Jan 14 2010  9:51:47:266AM	VISARED 2010-00153	S	Jan 14 2010 10:03:45:906AM	S	N
0000006712	0000001023		0000001018	C	Jan 14 2010 11:58:09:220AM	1559 CARLOS ALONSO 670.82.59.44	S	Jan 14 2010 12:33:28:076PM	N	N
0000006713	T000000013		0000001018	C	Jan 15 2010 11:36:47:853AM	JESUS M. DORTA COL.3293, 617.87.93.47	S	Jan 15 2010 12:04:53:390PM	N	N
0000006715	T000000013		0000001018	C	Jan 15 2010 11:57:12:486AM	JAVIER MARRERO 2482, TLF: 686.43.86.41	S	Jan 15 2010 12:24:03:250PM	N	N
0000006716	T000000013		0000001018	C	Jan 15 2010  1:20:19:356PM	EUGENIO LEON 2430 620.25.64.61	S	Jan 15 2010  1:42:39:076PM	N	N
0000006717	T000000013		0000001018	C	Jan 18 2010 11:08:33:126AM	FRANCISCO RGUEZ  1548 615.84.37.08	S	Jan 18 2010 11:42:56:466AM	N	N
0000006718	T000000013		T000000009	C	Jan 18 2010  1:14:53:376PM	VISARED 2010-00239	S	Jan 18 2010  1:43:47:670PM	S	N
0000006719	T000000013		0000001014	C	Jan 19 2010 11:12:25:856AM	FERNANDO ARROYO 2288  669.44.61.19	S	Jan 19 2010 11:14:50:906AM	N	N
0000006720	T000000013		0000001014	C	Jan 19 2010 11:13:37:056AM	JESUS CASTRO 3278  679.71.84.28	S	Jan 19 2010 11:19:46:766AM	N	N
0000006721	T000000013		0000001014	C	Jan 19 2010 12:25:43:970PM	DIEGO ALVAREZ  194  659.924.312	S	Jan 19 2010 12:24:21:610PM	N	N
0000006723	T000000003	2010-00127 = 83474	T000000009	C	Jan 19 2010  2:22:10:920PM	VISADO COAC	S	Jan 19 2010  3:01:55:483PM	S	N
0000006724	T000000013		T000000009	C	Jan 20 2010 10:34:05:733AM	VISARED 2010-00280	S	Jan 20 2010 11:08:56:953AM	S	N
0000006725	T000000013		T000000009	C	Jan 21 2010 12:00:36:953PM	SUBSANADO 2010-00239	S	Jan 21 2010 12:52:09:453PM	S	N
0000006726	T000000013		0000001018	C	Jan 21 2010 12:22:44:116PM	JOSEFA CLEMENTE 922.78.07.79	S	Jan 21 2010  1:12:03:593PM	N	N
0000006727	T000000013		T000000009	C	Jan 21 2010  1:01:31:156PM	VISARED 2010-00322	S	Jan 21 2010  1:41:36:640PM	S	N
0000006728	T000000013		0000001018	C	Jan 21 2010  1:21:42:966PM	EMILIA 2729  922.31.24.37	S	Jan 21 2010  1:46:35:186PM	N	N
0000006729	T000000013		T000000009	C	Jan 21 2010  1:28:18:576PM	SUBSANADO 2010-00280	S	Jan 21 2010  1:45:05:390PM	S	N
0000006730	T000000013		T000000009	C	Jan 21 2010  1:39:28:420PM	VISARED 2010-00336	S	Jan 22 2010  8:57:40:110AM	S	N
0000006731	T000000013		0000001018	C	Jan 22 2010 10:55:05:336AM	CARMEN LUISA ESQUIVEL 922.56.42.00	S	Jan 22 2010 12:04:26:953PM	N	N
0000006733	T000000013		T000000009	C	Jan 22 2010 11:14:28:360AM	VISARED 2010-00350	S	Jan 22 2010 11:53:33:593AM	S	N
0000006734	T000000013		0000001018	C	Jan 22 2010 11:50:37:090AM	PEDRO CASANOVA  630.90.75.85	S	Jan 22 2010 12:08:18:953PM	N	N
0000006735	T000000013		0000001018	C	Jan 22 2010 11:58:49:756AM	ANTONIO PEREZ 1976  660.419.776	S	Jan 26 2010 11:04:15:406AM	N	N
0000006736	0000001023		T000000009	C	Jan 26 2010  7:49:09:376AM	SUBSANDO 2010-00350	S	Jan 27 2010  8:25:40:733AM	S	N
0000006737	T000000013		T000000009	C	Jan 26 2010  7:49:09:376AM	SUBSANDO 2010-00350	S	Jan 26 2010  8:37:40:390AM	S	N
0000006738	0000001023		T000000009	C	Jan 26 2010  7:55:06:953AM	SUBSANADO VISARED	S	Jan 27 2010  8:25:43:170AM	S	N
0000006739	T000000013		T000000009	C	Jan 26 2010  7:55:06:953AM	SUBSANADO VISARED	S	Jan 26 2010  8:40:19:170AM	S	N
0000006740	0000001023		T000000009	C	Jan 26 2010  8:02:29:876AM	SUBSANADO 2010-00322	S	Jan 27 2010  8:25:48:766AM	S	N
0000006741	T000000013		T000000009	C	Jan 26 2010  8:02:29:876AM	SUBSANADO 2010-00322	S	Jan 26 2010  8:40:27:626AM	S	N
0000006742	0000001023		T000000009	C	Jan 26 2010  8:10:32:063AM	VISARED 2010-00391	S	Jan 27 2010  8:58:01:313AM	S	N
0000006743	T000000013		T000000009	C	Jan 26 2010  8:10:32:063AM	VISARED 2010-00391	S	Jan 26 2010  8:43:44:466AM	S	N
0000006744	0000001023		T000000009	C	Jan 26 2010  8:52:20:093AM	VISARED 2010-00392-3 MODIFICADO Y 2010-00394 EXP. 2009-02783	S	Jan 27 2010  8:58:06:376AM	S	N
0000006745	T000000013		T000000009	C	Jan 26 2010  8:52:20:093AM	VISARED 2010-00392-3 MODIFICADO Y 2010-00394 EXP. 2009-02783	S	Jan 26 2010 10:40:54:453AM	S	N
0000006746	0000001023		T000000009	C	Jan 26 2010  2:36:36:686PM	REF. 2009-08469, SALION SIN CORREGIRSE LAS INCIDENCIAS	S	Jan 27 2010  8:58:25:860AM	S	N
0000006747	0000001023		T000000009	C	Jan 27 2010  8:54:33:780AM	VISARED 2010-00406	S	Jan 27 2010  9:09:41:530AM	S	N
0000006748	T000000013		T000000009	C	Jan 27 2010  8:54:33:780AM	VISARED 2010-00406	S	Jan 27 2010  9:48:43:966AM	S	N
0000006749	0000001023		0000001018	C	Jan 27 2010 11:24:44:660AM	JUAN VAZQUEZ 99962  922.86.81.26  628.11.82.65	S	Jan 27 2010 11:48:05:296AM	N	N
0000006750	0000001023		T000000009	C	Jan 28 2010  8:18:07:530AM	SUBSANADO EXP. 2010-00204, REF. 2010-00406 Y 2010-00447	S	Jan 28 2010  8:56:20:546AM	S	N
0000006751	0000001023		T000000009	C	Jan 28 2010  8:34:30:280AM	VISARED 2010-00448	S	Jan 28 2010  9:22:46:843AM	S	N
0000006752	T000000013		T000000009	C	Jan 29 2010 10:03:27:563AM	VISAED 2010-00490	S	Jan 29 2010 10:43:32:826AM	S	N
0000006753	T000000013		0000001018	C	Jan 29 2010 12:18:28:343PM	CARLOS DGUEZ. DEL TORO 922.73.15.04	S	Jan 29 2010 12:35:45:750PM	N	N
0000006755	0000001023		T000000009	C	Feb  1 2010  9:46:10:813AM	VISARED 2010-00535	S	Feb  1 2010 10:20:19:826AM	S	N
0000006756	T000000013		T000000009	C	Feb  1 2010  9:46:10:813AM	VISARED 2010-00535	S	Feb  1 2010 10:09:52:466AM	S	N
0000006757	0000001023		T000000009	C	Feb  1 2010 10:00:46:686AM	VISARED EXP.2010-00250	S	Feb  1 2010 10:20:23:030AM	S	N
0000006758	T000000013		T000000009	C	Feb  1 2010 10:00:46:686AM	VISARED EXP.2010-00250	S	Feb  1 2010 10:27:18:936AM	S	N
0000006754	T000000013		T000000009	C	Feb  1 2010  9:41:17:610AM	SUBSANADO EXP. 2010-00230	S	Feb  1 2010 10:22:14:126AM	S	N
0000006759	0000001023		T000000009	C	Feb  1 2010 10:10:00:250AM	VISARED 2010-00542	S	Feb  1 2010 10:20:26:030AM	S	N
0000006760	T000000013		T000000009	C	Feb  1 2010 10:10:00:250AM	VISARED 2010-00542	S	Feb  1 2010 11:18:01:716AM	S	N
0000006761	0000001023		T000000009	C	Feb  1 2010 10:18:23:610AM	VISARED 2010-00545	S	Feb  1 2010 10:54:34:046AM	S	N
0000006762	T000000013		T000000009	C	Feb  1 2010 10:18:23:610AM	VISARED 2010-00545	S	Feb  1 2010 11:18:05:626AM	S	N
0000006763	0000001023		T000000009	C	Feb  3 2010  8:51:40:796AM	VISARED 2010-00567	S	Feb  3 2010  9:03:02:156AM	S	N
0000006764	T000000013		T000000009	C	Feb  3 2010  8:51:40:796AM	VISARED 2010-00567	S	Feb  3 2010  9:21:24:780AM	S	N
0000006765	0000001023		T000000009	C	Feb  3 2010  8:57:28:733AM	VISARED 2010-00568	S	Feb  3 2010  9:13:07:453AM	S	N
0000006766	T000000013		T000000009	C	Feb  3 2010  8:57:28:733AM	VISARED 2010-00568	S	Feb  3 2010  9:21:28:703AM	S	N
0000006767	T000000013		T000000009	C	Feb  3 2010  9:02:16:216AM	SUBSANADO 2010-00535	S	Feb  3 2010  9:26:42:063AM	S	N
0000006768	0000001023		T000000009	C	Feb  3 2010  9:10:55:186AM	REF. 2010-00545 SIGUE ENVIANDO SOLAMENTE FICHA CTE	S	Feb  3 2010 11:15:52:126AM	S	N
0000006769	T000000001		0000001018	C	Feb  3 2010 11:24:38:273AM	JUAN PEDRO FUENTES COL 2301 TLF 630.122.334	S	Feb  3 2010 12:05:28:750PM	N	N
0000006770	T000000001		0000001018	C	Feb  3 2010 11:53:20:480AM	NAVINDAR HARJANI COL. 2963 TLF:  691.474.319	S	Feb  3 2010 12:20:50:640PM	N	N
0000006771	0000001023		0000001018	C	Feb  3 2010 12:23:58:423PM	JOSE FELIPE ALAMAO 922.36.06.27	S	Feb  3 2010 12:47:41:453PM	N	N
0000006772	0000001023		T000000009	C	Feb  4 2010  8:58:40:703AM	SUBSANADO 2010-00567	S	Feb  4 2010  9:14:23:140AM	S	N
0000006773	0000001023		T000000009	C	Feb  5 2010  9:52:49:360AM	VISARED 2010-00630	S	Feb  5 2010 11:50:09:296AM	S	N
0000006774	T000000013		T000000009	C	Feb  5 2010  9:52:49:360AM	VISARED 2010-00630	S	Feb  5 2010 10:09:02:406AM	S	N
0000006775	0000001023		T000000009	C	Feb  5 2010 10:00:27:640AM	SUBSANADO 2010-00545	S	Feb  5 2010 11:50:11:656AM	S	N
0000006776	T000000013		T000000009	C	Feb  5 2010 10:18:57:876AM	SUBSANADO EXP. 2010-00250	S	Feb  5 2010 11:00:47:766AM	S	N
0000006777	0000001023		T000000009	C	Feb  5 2010 10:29:41:453AM	VISARED 2010-00636	S	Feb  5 2010 11:50:14:110AM	S	N
0000006778	T000000013		T000000009	C	Feb  5 2010 10:29:41:453AM	VISARED 2010-00636	S	Feb  5 2010 10:59:01:750AM	S	N
0000006779	0000001023		T000000009	C	Feb  5 2010 10:36:51:296AM	VISARED 2010-00637	S	Feb  5 2010 11:50:16:436AM	S	N
0000006780	T000000013		T000000009	C	Feb  5 2010 10:36:51:296AM	VISARED 2010-00637	S	Feb  5 2010 10:59:05:936AM	S	N
0000006781	T000000013		T000000009	C	Feb  8 2010  9:08:22:390AM	VISARED 2010-00656 EXP. 2009-03376	S	Feb  8 2010  9:29:01:936AM	S	N
0000006782	T000000013		T000000009	C	Feb  8 2010  9:38:04:000AM	SUBSA 2010-00545	S	Feb  8 2010 11:24:05:266AM	S	N
0000006783	T000000013		0000001018	C	Feb  8 2010  1:05:09:053PM	JAVIER MARRERO 2482 TLF: 686.438.641	S	Feb  8 2010  1:05:12:016PM	N	N
0000006784	0000001023	922.47.31.23, Dice que no es colegiada pero que estaba pendiente de solucionar algo de un colegiado con el que tu ibas a intentar hablar.	0000001018	C	Feb  9 2010  9:48:29:696AM	ADELA DE LA CONSEJERÍA DE HACIENDA	S	Feb  9 2010 10:37:56:860AM	N	N
0000006785	0000001023		T000000009	C	Feb  9 2010  9:29:15:016AM	VISARED 2010-00707	S	Feb  9 2010 10:38:16:593AM	S	N
0000006786	0000001023		T000000009	C	Feb  9 2010 11:00:10:920AM	OK VISAERD 2010-00707	S	Feb  9 2010  1:59:00:193PM	S	N
0000006787	0000001023		0000001018	C	Feb  9 2010 11:59:05:003AM	WENDY MONTELONGO 2495 TLF: 922.26.17.69	S	Feb  9 2010  1:59:37:866PM	N	N
0000006788	T000000001		0000001018	C	Feb  9 2010 12:05:16:046PM	JESUS G. LORENZO BORGES  658.847.299	S	Feb  9 2010  1:26:27:613PM	N	N
0000006789	0000001023		0000001018	C	Feb  9 2010 12:39:02:780PM	PABLO LOPEZ 650.57.27.01	S	Feb  9 2010  1:59:42:380PM	N	N
0000006790	0000001023		0000001018	C	Feb 11 2010 10:07:47:616AM	IVAN 3035 TLF: 676.85.01.29	S	Feb 11 2010 10:06:53:380AM	N	N
0000006791	T000000003		0000001018	C	Feb 11 2010 10:21:22:896AM	2010-00679 VER IMPORTES CERTIFICADO	S	Feb 11 2010 10:11:01:913AM	N	N
0000006792	0000001023		T000000009	C	Feb 12 2010 10:32:33:360AM	VISARED EXP. 2008-03719, REF. 2008-08202	S	Feb 12 2010 11:26:16:910AM	S	N
0000006793	T000000013		T000000009	C	Feb 12 2010 10:32:33:360AM	VISARED EXP. 2008-03719, REF. 2008-08202	S	Feb 12 2010 11:28:11:326AM	S	N
0000006794	0000001023		T000000009	C	Feb 12 2010 10:34:57:216AM	SUBSANADO 2010-00799	S	Feb 12 2010 11:27:04:426AM	S	N
0000006795	T000000013		T000000009	C	Feb 12 2010 10:34:57:216AM	SUBSANADO 2010-00799	S	Feb 12 2010 11:31:14:216AM	S	N
0000006796	0000001023		0000001018	C	Feb 17 2010 10:14:10:826AM	1294-MIGUEL VARGAS TLF: 607.36.82.38	S	Feb 17 2010 10:26:27:116AM	N	N
0000006797	T000000013		T000000009	C	Feb 17 2010 12:33:20:093PM	SUBSANADO EXP. 2010-00310, E.S. 2010-00630, DO.NO, AVISAR	S	Feb 17 2010 12:51:41:686PM	S	N
0000006798	0000001023		T000000009	C	Feb 19 2010  2:33:05:983PM	SUBSA 2010-00825	S	Feb 22 2010  8:13:03:886AM	S	N
0000006799	0000001023		0000001010	C	Feb 22 2010 10:59:21:436AM	JOSE LUIS SUAREZ 608.907.703	S	Feb 22 2010 11:14:40:393AM	S	N
0000006800	T000000013		T000000009	C	Feb 23 2010 11:48:18:683AM	SUBSA 2010-00804	S	Feb 23 2010  1:12:00:030PM	S	N
0000006801	T000000013		T000000009	C	Feb 23 2010 12:01:17:313PM	2009-07016 NO HA SIDO SUBSANADO PERO ESTA VISADO	S	Feb 23 2010  1:25:49:640PM	S	N
0000006802	T000000013		T000000009	C	Feb 24 2010  1:03:00:426PM	SUBSA 2010-00804	S	Feb 24 2010  1:26:56:110PM	S	N
0000006803	0000001023		T000000009	C	Feb 24 2010  1:16:23:283PM	VISRED 2010-01001 Y 2010-01000	S	Feb 24 2010  1:41:59:420PM	S	N
0000006804	T000000013		T000000009	C	Feb 24 2010  1:16:23:283PM	VISRED 2010-01001 Y 2010-01000	S	Feb 24 2010  1:37:02:360PM	S	N
0000006805	T000000013		T000000009	C	Feb 25 2010  9:04:51:533AM	SUBAS 2010-00804 FERNANDO ARROYO	S	Feb 25 2010 10:01:47:733AM	S	N
0000006806	T000000013		0000001018	C	Mar  1 2010 11:17:30:796AM	JOSE A. MARTINEZ 2024 TLF: 626.07.22.68	S	Mar  1 2010 11:34:16:750AM	N	N
0000006807	T000000013		0000001018	C	Mar  1 2010 11:26:13:786AM	SAMUEL GARCIA 2800 699.635.702	S	Mar  1 2010 11:38:49:983AM	N	N
0000006808	T000000013		0000001018	C	Mar  1 2010 11:28:08:643AM	JAVIER 2282 TLF:650.974.633	S	Mar  1 2010 11:39:09:906AM	N	N
0000006809	T000000013		0000001018	C	Mar  1 2010 12:16:08:563PM	JOSE MANUEL SANTOS 629.57.83.87	S	Mar  1 2010 12:33:25:716PM	N	N
0000006810	T000000013		T000000009	C	Mar  1 2010 12:41:15:813PM	MODIFICADO 2010-01093 EXP. 2010-00158	S	Mar  1 2010  1:05:30:890PM	S	N
0000006811	T000000013		T000000009	C	Mar  1 2010 12:48:11:953PM	ANEXO 2010-01094 EXP. 2010-00166	S	Mar  1 2010  1:07:40:920PM	S	N
0000006812	T000000013		0000001018	C	Mar  1 2010  1:11:39:353PM	MARIO RIAL 608.221.692	S	Mar  1 2010  1:25:04:593PM	N	N
0000006813	T000000013		0000001018	C	Mar  1 2010  1:20:47:330PM	DOMINGO YANES 646.15.27.87	S	Mar  1 2010  1:26:23:826PM	N	N
0000006814	T000000003	QUIERE QUE LE DES EL IMPORTE DE UN EST. DE SEGURIDAD DEL VIERNES: 2010-00971.	0000001018	C	Mar  1 2010  1:30:27:906PM	FCO. JAVIER COL. 2282 651.901.809	S	Mar  1 2010  1:45:11:066PM	N	N
0000006815	T000000013		0000001018	C	Mar  1 2010  1:32:42:600PM	JOSE FELIPE 610.53.13.45	S	Mar  1 2010  1:46:03:280PM	N	N
0000006817	T000000001		T000000009	C	Mar  2 2010  7:59:23:790AM	DESPACHAR VISARED 2010-01093	S	Mar  2 2010  8:35:29:116AM	S	N
0000006818	0000001023		0000001018	C	Mar  2 2010  9:05:29:996AM	SAMUEL GARCIA 699.635.702	S	Mar  2 2010  8:54:25:270AM	N	N
0000006820	T000000003		0000001018	C	Mar  2 2010  9:43:07:803AM	2010-01034 VERIFICAR IMPORTE CERTF.	S	Mar  2 2010 10:07:20:946AM	N	N
0000006821	0000001023		T000000009	C	Mar  2 2010  9:58:58:143AM	VISARED 2010-01108	S	Mar  2 2010  1:10:43:866PM	S	N
0000006822	0000001023		T000000009	C	Mar  2 2010 10:10:57:276AM	VISARED 2010-01110	S	Mar  2 2010  1:10:46:210PM	S	N
0000006823	0000001023		0000001018	C	Mar  2 2010 10:40:09:903AM	ANDRES PEREZ MORALES, TLF: 699.024.960	S	Mar  2 2010  1:10:48:256PM	N	N
0000006824	T000000003		0000001018	C	Mar  2 2010 10:52:12:223AM	VER IMPORTES 2009-08585/4. FINAL OBRA	S	Mar  2 2010 11:05:23:220AM	N	N
0000006825	0000001023		0000001018	C	Mar  2 2010 12:28:44:303PM	CARLOS DOMINGUEZ 922.73.15.04	S	Mar  2 2010  1:10:50:430PM	N	N
0000006826	0000001023		0000001018	C	Mar  2 2010 12:29:17:110PM	DIANA: MODULO COAC 553,35	S	Mar  2 2010  1:10:53:463PM	N	N
0000006827	T000000003		0000001018	C	Mar  2 2010 12:42:53:893PM	JUSTO MEDRANO 616.98.45.79 POR ALGO Q LE ENVIASTE	S	Mar  2 2010  1:26:13:986PM	N	N
0000006828	0000001023		T000000009	C	Mar  2 2010  2:42:52:820PM	VISARED 2010-01142	S	Mar  3 2010  8:42:47:943AM	S	N
0000006829	T000000013		T000000009	C	Mar  2 2010  2:42:52:820PM	VISARED 2010-01142	S	Mar  3 2010  8:51:16:716AM	S	N
0000006830	0000001023		T000000009	C	Mar  2 2010  2:49:31:490PM	VISARED 2010-01143	S	Mar  3 2010  8:42:51:013AM	S	N
0000006831	T000000013		T000000009	C	Mar  2 2010  2:49:31:490PM	VISARED 2010-01143	S	Mar  3 2010  8:51:20:250AM	S	N
0000006832	T000000003		0000001018	C	Mar  3 2010  9:25:42:960AM	2010-01097 CERTF. VER IMPORTES	S	Mar  3 2010  9:22:14:636AM	N	N
0000006833	T000000013		0000001018	C	Mar  3 2010  9:41:31:203AM	RAFAEL PILO 607.43.20.56	S	Mar  3 2010 10:57:39:390AM	N	N
0000006834	0000001023		0000001018	C	Mar  3 2010 12:10:18:610PM	FERNANDO DELGADO 637.81.91.62	S	Mar  3 2010 12:03:14:596PM	N	N
0000006835	0000001023		0000001018	C	Mar  3 2010 12:42:25:243PM	REMI COL.3030 TLF 667.94.53.32	S	Mar  3 2010 12:35:13:270PM	N	N
0000006836	0000001023		0000001018	C	Mar  3 2010  1:21:42:843PM	NAYRA IZQUIERDO COL. 2636 TLF 686.633.009	S	Mar  3 2010  1:29:16:106PM	N	N
0000006837	T000000003		0000001018	C	Mar  4 2010 10:46:13:783AM	2010-01112 VER IMPO. CERTIFICADO	S	Mar  4 2010 11:48:22:466AM	N	N
0000006838	T000000009	YA ENVIÓ EL CORREO, CUALQUIER COSA LLAMAR AL TLF: 669.378.387.	0000001018	C	Mar  4 2010 11:00:52:136AM	ALFREDO 1787...	S	Mar  4 2010 10:47:06:580AM	N	S
0000006839	T000000013		T000000009	C	Mar  4 2010 10:51:02:706AM	SUBSA 2010-01094	S	Mar  4 2010 11:57:55:780AM	S	N
0000006840	T000000001		T000000009	C	Mar  4 2010 10:51:38:066AM	DESPACHAR VISARED 2010-01094, IMPORTE A CERO	S	Mar  4 2010 11:25:11:990AM	S	N
0000006841	0000001023		0000001018	C	Mar  4 2010 12:38:33:303PM	CAROLINA DE LA ROSA 670.81.98.77	S	Mar  4 2010 12:37:32:480PM	N	N
0000006842	T000000013		0000001018	C	Mar  4 2010 12:54:55:356PM	ALFREDO QUEIPO 629.818.908	S	Mar  4 2010  1:18:35:156PM	N	N
0000006843	T000000013		0000001018	C	Mar  4 2010  1:11:22:796PM	JOSE ANGEL MARTINEZ TLF: 626.07.22.68	S	Mar  4 2010  1:23:00:076PM	N	N
0000006844	T000000013		0000001018	C	Mar  5 2010 12:58:56:366PM	JAVIER DE LEON 2044 TLF: 657.675.880	S	Mar  5 2010  1:57:12:140PM	N	N
0000006846	0000001023		T000000009	C	Mar 10 2010  2:24:12:410PM	VISARED 2010-01341	S	Mar 11 2010  8:56:17:380AM	S	N
0000006847	T000000003		T000000009	C	Mar 11 2010  9:33:54:906AM	VISADO COAC 2006-10359 REF. 78735	S	Mar 11 2010  9:52:10:086AM	S	N
0000006848	0000001023		T000000009	C	Mar 11 2010 10:47:05:100AM	VISARED 2010-01355	S	Mar 11 2010 10:59:00:416AM	S	N
0000006850	0000001023		T000000009	C	Mar 11 2010 11:07:59:806AM	VISARED 2010-01356	S	Mar 12 2010  8:16:47:146AM	S	N
0000006851	0000001023		T000000009	C	Mar 12 2010 11:07:32:923AM	VISAERD 2010-01399	S	Mar 12 2010 11:57:16:063AM	S	N
0000006852	0000001023		T000000009	C	Mar 12 2010 12:19:39:103PM	VISARED 2010-01410	S	Mar 12 2010 12:48:08:140PM	S	N
0000006853	0000001023		T000000009	C	Mar 12 2010  2:29:27:706PM	VISARED 2010-01418	S	Mar 15 2010  8:16:30:780AM	S	N
0000006854	0000001023		T000000009	C	Mar 12 2010  2:41:10:310PM	VISARED 2010-01419	S	Mar 15 2010  8:16:34:360AM	S	N
0000006855	0000001023		T000000009	C	Mar 15 2010  7:55:27:186AM	SUBSA 2010-01355	S	Mar 15 2010  8:16:36:576AM	S	N
0000006856	0000001023		T000000009	C	Mar 15 2010  7:59:14:253AM	VISARED 2010-01420	S	Mar 15 2010  8:16:38:656AM	S	N
0000006857	0000001023		0000001018	C	Mar 15 2010  9:24:30:513AM	FELIX GLEZ. COL.2999 TLF:635.14.10.75	S	Mar 15 2010  9:04:59:486AM	N	N
0000006858	0000001023	COMENTAR CONTIGO LOS REPAROS DE UN EXP.	0000001018	C	Mar 15 2010 10:49:11:480AM	REMI COL .3030 TLF: 667.94.53.32	S	Mar 15 2010 11:27:18:106AM	N	N
0000006859	0000001023		0000001018	C	Mar 15 2010 10:55:09:793AM	MIGUEL ÁNGEL COL.1784 TLF:922. 57.71.20  EXT. 209	S	Mar 15 2010 11:27:22:530AM	N	N
0000006860	0000001023		0000001018	C	Mar 15 2010 11:18:03:110AM	CARLOS COELLO COL. 2697 TLF: 620.51.35.42	S	Mar 15 2010 11:27:44:250AM	N	N
0000006861	0000001023	 	0000001018	C	Mar 15 2010 11:19:25:076AM	HECTOR COL. 3310 DEL AYUNT.VALVERDETLF: 922.55.00.25 EXT 133	S	Mar 15 2010 11:27:46:796AM	N	N
0000006863	T000000003		0000001018	C	Mar 15 2010 11:27:06:520AM	IMPORTES: 1399 Y 1410/2010	S	Mar 15 2010 11:31:49:950AM	N	N
0000006864	0000001023		T000000009	C	Mar 15 2010 12:02:49:393PM	2010-01410	S	Mar 15 2010  1:54:04:630PM	S	N
0000006865	T000000013		T000000009	C	Mar 16 2010  8:37:15:816AM	VISARED 2010-01456	S	Mar 16 2010  9:12:45:000AM	S	N
0000006866	T000000013		T000000009	C	Mar 16 2010  8:41:55:646AM	VISARED 2010-01457	S	Mar 16 2010  9:18:24:813AM	S	N
0000006867	T000000013		0000001018	C	Mar 16 2010  9:18:07:726AM	FELIX GLEZ COL. 2999 TLF: 635.14.10.75	S	Mar 16 2010  9:27:29:326AM	N	N
0000006868	T000000013		0000001018	C	Mar 16 2010 10:10:44:666AM	MIGUEL ANGEL DE LA MATANZA TLF: 922.57.71.20  EXT.209	S	Mar 16 2010 11:52:29:936AM	N	N
0000006870	0000001003	EL SELLO DE VISADO LE TAPA UNOS MARGENES DEL TRABAJO Y QUIERE VOLVER A VISARLOS Y PONER EL SELLO SI SE PUEDE EN OTRO ESPACIO, TE LO VUELVE A ENVIAR 	T000000003	C	Mar 16 2010 11:22:16:223AM	LLAMADA PERDIDA DE NATALIA	N		N	N
0000006871	T000000013	
   QUIERE SABER COMO SE CALCULAN UNOS HONORARIOS.	0000001018	C	Mar 16 2010 11:48:18:143AM	2042-GABRIEL HDEZ. TLF: 620.25.03.23	S	Mar 16 2010 12:04:26:343PM	N	N
0000006872	T000000013		0000001018	C	Mar 16 2010 11:55:24:006AM	ALBERTO SALAZAR 3170 TLF: 646.45.88.45	S	Mar 16 2010 12:25:17:546PM	N	N
0000006874	0000001023		T000000009	C	Mar 16 2010  2:26:55:656PM	VISARED EXP. 2010-00761	S	Mar 17 2010  8:03:28:546AM	S	N
0000006875	T000000013		T000000009	C	Mar 16 2010  2:26:55:656PM	VISARED EXP. 2010-00761	S	Mar 17 2010  7:51:33:610AM	S	N
0000006876	0000001023		T000000009	C	Mar 16 2010  2:32:23:783PM	VISARED 2010-01491	S	Mar 17 2010  8:03:36:203AM	S	N
0000006877	T000000013		T000000009	C	Mar 16 2010  2:32:23:783PM	VISARED 2010-01491	S	Mar 17 2010  8:21:53:983AM	S	N
0000006878	0000001023		T000000009	C	Mar 17 2010  8:16:37:880AM	SUBSANADO 2010-01355	S	Mar 17 2010  8:34:24:283AM	S	N
0000006879	0000001023		0000001018	C	Mar 17 2010 11:38:13:600AM	01795- VICTORIA 657.567.876	S	Mar 17 2010 12:14:02:486PM	N	N
0000006880	T000000003		T000000009	C	Mar 17 2010 11:41:08:753AM	VDO. COAC 84313 REF. 2010-01189	S	Mar 17 2010 11:44:22:056AM	S	N
0000006881	0000001023		0000001018	C	Mar 17 2010 12:08:23:243PM	RAMÓN VEGA DICE QUE LLEGA A LAS 12:30!!!!	S	Mar 17 2010 12:12:06:236PM	N	N
0000006882	0000001023		T000000009	C	Mar 17 2010 12:41:06:130PM	SUBSA 2010-01491	S	Mar 18 2010  9:25:47:806AM	S	N
0000006883	T000000003	REF. 2010-01176 = 84549	T000000009	C	Mar 17 2010  1:46:52:220PM	COMUNICADO COAC	S	Mar 18 2010  8:19:15:486AM	S	N
0000006884	0000001003		T000000003	C	Mar 18 2010  8:21:04:123AM	ES UNA PRUEBA A VER SI ESTE TE LLEGA	N		N	N
0000006885	T000000009		T000000003	C	Mar 18 2010  8:56:19:906AM	A VER SI ESTE LLEGA	S	Mar 18 2010  8:57:07:083AM	N	S
0000006886	0000001023		T000000009	C	Mar 18 2010  9:48:03:056AM	VISARED REF 2010-01545 Y EXP. 2010-00788 (REF. 1546-1547)	S	Mar 18 2010 10:05:28:470AM	S	N
0000006887	0000001023		T000000009	C	Mar 18 2010 10:35:27:026AM	SUBSANADO 2010-01545	S	Mar 19 2010  8:35:51:416AM	S	N
0000006888	0000001023		0000001018	C	Mar 18 2010 11:09:21:373AM	MANUEL FOSSAS 686.93.49.91	S	Mar 19 2010  8:36:15:033AM	N	N
0000006889	0000001023		T000000009	C	Mar 19 2010 11:21:09:056AM	SUBSANADO EXP. 2010-00788	S	Mar 19 2010  1:40:35:046PM	S	N
0000006890	0000001023		T000000009	C	Mar 19 2010 11:27:44:130AM	SUBSANDO EXP. 2010-00761	S	Mar 19 2010  1:40:47:013PM	S	N
0000006891	0000001023		T000000009	C	Mar 19 2010 11:35:23:050AM	VISARED 2010-01585	S	Mar 19 2010  1:40:49:060PM	S	N
0000006892	T000000013		T000000009	C	Mar 19 2010 11:35:23:050AM	VISARED 2010-01585	S	Mar 19 2010 12:44:15:376PM	S	N
0000006893	0000001023		T000000009	C	Mar 24 2010 10:34:05:456AM	2010-00704, MODIFICADO INFORME REF. 2010-01650	S	Mar 24 2010 10:52:56:086AM	S	N
0000006894	0000001023		T000000009	C	Mar 24 2010  2:45:27:120PM	EXP. 2010-00876, D.O. Y COORDINACION SEGURIDAD	S	Mar 25 2010  8:05:22:023AM	S	N
0000006895	T000000013		T000000009	C	Mar 24 2010  2:45:27:120PM	EXP. 2010-00876, D.O. Y COORDINACION SEGURIDAD	S	Mar 25 2010  8:09:19:876AM	S	N
0000006896	T000000001		T000000009	C	Mar 25 2010  8:22:20:246AM	VISARED 2010-01650, MODIFICADO IMPORTE 0€ DESPACHAR	S	Mar 25 2010  9:12:16:826AM	S	N
0000006897	0000001023		T000000009	C	Mar 26 2010  8:51:41:166AM	VISARED 2010-01721	S	Mar 26 2010  8:53:56:460AM	S	N
0000006898	T000000013		T000000009	C	Mar 26 2010  8:51:41:166AM	VISARED 2010-01721	S	Mar 26 2010  9:18:59:953AM	S	N
0000006899	0000001023		T000000009	C	Mar 26 2010  2:30:25:476PM	VISARED 2010-01756, VER CORREO ENVIADO A ALBERTO SOBRE E.S.	S	Mar 30 2010  7:59:32:533AM	S	N
0000006900	T000000013		T000000009	C	Mar 26 2010  2:30:25:476PM	VISARED 2010-01756, VER CORREO ENVIADO A ALBERTO SOBRE E.S.	S	Mar 29 2010  9:44:57:716AM	S	N
0000006901	T000000013		T000000009	C	Mar 29 2010  9:23:13:100AM	VISARED 2010-01759	S	Mar 29 2010  9:41:42:093AM	S	N
0000006903	T000000013		T000000009	C	Mar 29 2010  9:59:42:333AM	SUBAS EXP. 2010-00876, REF. 2010-01681 Y 2010-01683	S	Mar 29 2010  1:06:53:110PM	S	N
0000006904	T000000013		T000000009	C	Mar 29 2010 10:05:18:693AM	VISARED 2010-01764	S	Mar 29 2010  1:08:31:813PM	S	N
0000006905	T000000013		0000001018	C	Mar 29 2010 11:45:53:823AM	FATIMA DIEGO 630.387.164	S	Mar 29 2010  1:47:20:563PM	N	N
0000006906	T000000013		0000001018	C	Mar 29 2010 12:32:13:930PM	VIRGINIA COL.2279  639.79.09.10	S	Mar 29 2010  1:09:48:716PM	N	N
0000006907	0000001023		T000000009	C	Mar 29 2010  1:41:34:723PM	SUBASA EXP. 2010-00907, ALBERTO PINEDA	S	Mar 30 2010  8:00:47:583AM	S	N
0000006908	T000000013		T000000009	C	Mar 29 2010  1:41:34:723PM	SUBASA EXP. 2010-00907, ALBERTO PINEDA	S	Mar 29 2010  2:07:05:593PM	S	N
0000006909	0000001023		T000000018	C	Mar 30 2010  9:28:37:623AM	ARANZA DEL HIERRO QUE POR FAVOR LA LLAMES	S	Mar 30 2010 10:17:50:140AM	N	N
0000006910	0000001010	GRACIAS Y UN SALUDO, BESOS PARA TODOS QUE LO PASES MUY BIEN . HASTA PRONTO	T000000018	C	Mar 30 2010  9:39:13:983AM	AVISAME DE QUE TE HA LLEGADO EL MENSAJE	S	Mar 30 2010  9:51:48:390AM	N	S
0000006911	0000001023		T000000003	C	Mar 30 2010  9:56:35:293AM	A VER SI SALE MI NOMBRE	S	Mar 30 2010 10:17:55:920AM	N	N
0000006912	0000001010		T000000003	C	Mar 30 2010  9:56:35:293AM	A VER SI SALE MI NOMBRE	S	Mar 30 2010  9:57:30:516AM	N	S
0000006916	0000001023		0000001018	C	Mar 30 2010 11:24:18:910AM	COL. 3285 KATY TLF: 680.334.190	S	Mar 30 2010 11:30:09:216AM	N	N
0000006917	0000001023		0000001018	C	Mar 30 2010 11:29:17:486AM	MªCARMEN DIAZ  TLF: 922.257.472	S	Mar 30 2010 11:30:11:856AM	N	N
0000006918	0000001023		T000000009	C	Mar 30 2010 12:09:09:853PM	VISARED EXP. 2010-00940, REF. 2010-01815 2010-01816	S	Mar 30 2010 12:12:08:030PM	S	N
0000006919	0000001023		T000000009	C	Mar 30 2010 12:59:24:723PM	VISARED 2010-01817, EXP. 2010-00689	S	Mar 30 2010  1:15:23:756PM	S	N
0000006920	T000000013		0000001018	C	Mar 31 2010 10:42:29:053AM	JESUS M. FERRERO COL. 1884 TLF: 670.73.81.10	S	Mar 31 2010 10:55:57:656AM	N	N
0000006921	T000000013		0000001018	C	Mar 31 2010 11:39:49:573AM	ARANTZAZU COL. 02606 TLF: 922.31.09.08.	S	Mar 31 2010 12:58:36:860PM	N	N
0000006922	0000001023		0000001018	C	Mar 31 2010  1:41:58:700PM	IVAN (HIJO WALKIRIO) 626.11.59.54	S	Mar 31 2010  1:47:17:783PM	N	N
0000006923	T000000013		0000001018	C	Mar 31 2010  1:42:26:170PM	RAFAEL DIEZ 1846 TLF: 653.75.61.16.	S	Mar 31 2010  1:45:47:576PM	N	N
0000006924	0000001023		T000000009	C	Apr  5 2010  8:22:41:020AM	SUBSANADO 2010-01756	S	Apr  5 2010  9:04:04:773AM	S	N
0000006925	0000001023		T000000009	C	Apr  5 2010  8:33:24:883AM	VISARED 2010-01857	S	Apr  5 2010  9:04:07:040AM	S	N
0000006926	0000001023		T000000009	C	Apr  7 2010  8:59:11:746AM	EXP. 2009-03688 MODIFICADO 2010-01925	S	Apr  7 2010 10:50:25:256AM	S	N
0000006927	0000001023		T000000009	C	Apr  7 2010  9:05:05:416AM	SUBASA 2010-01927	S	Apr  7 2010 10:50:27:630AM	S	N
0000006928	0000001023		T000000009	C	Apr  7 2010  9:12:31:306AM	EXP. 2009-05469, ALEJANDRO CAÑAMERO	S	Apr  7 2010 10:50:29:850AM	S	N
0000006929	0000001023		T000000009	C	Apr  7 2010 12:28:20:036PM	VISARED 2010-01950	S	Apr  7 2010 12:36:53:793PM	S	N
0000006930	0000001023		T000000009	C	Apr  7 2010  1:05:53:493PM	VISARED EXP. 2010-01003	S	Apr  7 2010  1:19:25:500PM	S	N
0000006931	0000001023		T000000009	C	Apr  8 2010  9:22:16:300AM	VISARED EXP. 2010-01003	S	Apr  9 2010  8:06:05:673AM	S	N
0000006932	T000000013		T000000009	C	Apr  8 2010  9:22:16:300AM	VISARED EXP. 2010-01003	S	Apr  8 2010  9:43:57:046AM	S	N
0000006933	0000001023		T000000009	C	Apr  8 2010  9:23:18:270AM	VISARED EXP. 2010-00940	S	Apr  9 2010  8:06:08:530AM	S	N
0000006934	T000000013		T000000009	C	Apr  8 2010  9:23:18:270AM	VISARED EXP. 2010-00940	S	Apr  8 2010  9:49:39:530AM	S	N
0000006935	T000000013		T000000009	C	Apr  8 2010  9:25:27:456AM	VISARED EXP. 2009-03688	S	Apr  8 2010 10:09:17:343AM	S	N
0000006936	T000000013		T000000009	C	Apr  8 2010 12:44:28:033PM	SUBSA EXP. 2010-00940	S	Apr  8 2010  1:50:00:860PM	S	N
0000006937	0000001023		T000000009	C	Apr  9 2010 12:10:04:800PM	VISVARED 2010-02018	S	Apr  9 2010 12:17:58:876PM	S	N
0000006938	T000000013		T000000009	C	Apr  9 2010 12:10:04:800PM	VISVARED 2010-02018	S	Apr  9 2010  1:42:06:983PM	S	N
0000006939	0000001023		T000000009	C	Apr  9 2010  3:04:08:113PM	VISARED 2010-01048	S	Apr 13 2010  8:06:36:083AM	S	N
0000006940	T000000013		T000000009	C	Apr  9 2010  3:04:08:113PM	VISARED 2010-01048	S	Apr 12 2010  8:39:17:640AM	S	N
0000006941	T000000013		0000001018	C	Apr 12 2010 12:52:15:236PM	ARGIMIRO GARCÍA 639.21.65.70	S	Apr 12 2010  1:13:47:686PM	N	N
0000006942	T000000013		0000001018	C	Apr 12 2010  1:28:47:350PM	VOLVIÓ A LLAMAR ARGIMIRO	S	Apr 12 2010  1:44:34:530PM	N	N
0000006943	T000000013		0000001018	C	Apr 12 2010  1:41:59:980PM	KATISKA Q X FAVOR LA LLAMES 680.334.190	S	Apr 14 2010  8:03:26:733AM	N	N
0000006944	0000001023		0000001018	C	Apr 13 2010 10:16:17:193AM	IGNACIO ACOSTA COL. 1346 TLF: 679.18.06.89	S	Apr 13 2010 11:32:53:866AM	N	N
0000006945	T000000009	QUIERE HABLAR CONTIGO SOBRE VISARED 
922.54.88.25
639.14.42.14	T000000003	C	Apr 13 2010 10:57:30:540AM	LLAMADA PERDIDA DE JUAN ALBERTO	S	Apr 13 2010 11:25:27:160AM	N	S
0000006946	0000001023		T000000009	C	Apr 14 2010  8:40:23:090AM	VISARED 2010-02073	S	Apr 14 2010  9:11:08:163AM	S	N
0000006947	T000000013		T000000009	C	Apr 14 2010  8:40:23:090AM	VISARED 2010-02073	S	Apr 14 2010  9:03:56:983AM	S	N
0000006948	0000001023		T000000009	C	Apr 14 2010  8:51:55:603AM	VISARED EXPEDIENTE 2010-01080	S	Apr 14 2010  9:11:11:023AM	S	N
0000006949	T000000013		T000000009	C	Apr 14 2010  8:51:55:603AM	VISARED EXPEDIENTE 2010-01080	S	Apr 14 2010 10:30:00:576AM	S	N
0000006950	T000000013		0000001018	C	Apr 14 2010  9:56:45:296AM	FLEITAS TLF: 922.810.180	S	Apr 14 2010 10:29:44:780AM	N	N
0000006951	0000001023		T000000009	C	Apr 14 2010  9:47:32:006AM	VISARED EXPEDIENTE 2010-01082	S	Apr 14 2010 11:06:11:470AM	S	N
0000006952	T000000013		T000000009	C	Apr 14 2010  9:47:32:006AM	VISARED EXPEDIENTE 2010-01082	S	Apr 14 2010 10:30:04:703AM	S	N
0000006953	T000000013		0000001018	C	Apr 14 2010 11:04:01:570AM	ISABEL GARCÍA COL.2427 TLF: 616.26.95.72	S	Apr 14 2010 11:12:20:610AM	N	N
0000006954	0000001023		0000001018	C	Apr 14 2010 11:39:02:220AM	MARIA DEL MAR MARTIN 3136 TLD: 659.97.22.62	S	Apr 14 2010 11:49:41:463AM	N	N
0000006955	T000000013		0000001018	C	Apr 14 2010 11:41:05:286AM	JOSE FCO. DORTA 922.12.16.75	S	Apr 14 2010 12:45:36:343PM	N	N
0000006957	T000000013		T000000009	C	Apr 14 2010 11:42:54:286AM	SUBSANADO 2010-02030	S	Apr 14 2010 12:48:06:250PM	S	N
0000006958	0000001011		0000001018	C	Apr 15 2010 10:07:20:756AM	JULIAN DE TAHERPE 609.259.221	S	Apr 15 2010  9:55:22:563AM	N	N
0000006959	0000001023		0000001018	C	Apr 15 2010 10:08:10:216AM	ALBERTO TORRES DE PROM.AMOJO  639.38.39.10	S	Apr 15 2010  9:55:20:116AM	N	N
0000006960	0000001023		0000001018	C	Apr 15 2010 10:17:19:906AM	JAVIER AMIGO 922.81.56.62	S	Apr 15 2010 10:04:59:036AM	N	N
0000006961	0000001023		0000001018	C	Apr 15 2010 10:46:06:340AM	FERNANDO CORDERO  636.872.763	S	Apr 15 2010 11:07:59:783AM	N	N
0000006962	T000000013		0000001018	C	Apr 15 2010 11:56:40:760AM	MANUEL FOSSAS 600.44.31.27	S	Apr 15 2010  1:17:13:140PM	N	N
0000006963	0000001023		T000000009	C	Apr 15 2010  1:37:45:560PM	SUBSANADO 2010-02073	S	Apr 16 2010  9:21:15:746AM	S	N
0000006964	0000001023		T000000009	C	Apr 16 2010  9:22:02:543AM	VISARED 2010-02149	S	Apr 16 2010  9:53:30:090AM	S	N
0000006965	T000000013		T000000009	C	Apr 16 2010  9:22:02:543AM	VISARED 2010-02149	S	Apr 16 2010 10:50:16:516AM	S	N
0000006966	T000000013		T000000009	C	Apr 16 2010  9:40:39:363AM	SUBSANADO EXP. 2010-01048	S	Apr 16 2010 10:52:43:406AM	S	N
0000006967	T000000013		T000000009	C	Apr 16 2010 11:49:29:326AM	VISARED EXP. 2008-03701 ALBERTO PINEDA LISTA X NIF  PROP	S	Apr 16 2010  2:06:38:593PM	S	N
0000006968	T000000009		T000000003	C	Apr 20 2010 11:21:09:126AM	TELEFONO HACIENDA 901.22..33.44	S	Apr 20 2010 11:33:34:243AM	N	S
0000006969	0000001023		T000000009	C	Apr 20 2010 11:38:45:743AM	VISARED 2010-02215	S	Apr 21 2010  8:04:43:343AM	S	N
0000006971	0000001023		T000000009	C	Apr 20 2010 12:45:44:130PM	SUBSANADO 2010-02076	S	Apr 21 2010  8:04:45:790AM	S	N
0000006972	T000000013		T000000009	C	Apr 20 2010 12:45:44:130PM	SUBSANADO 2010-02076	S	Apr 20 2010  1:31:09:876PM	S	N
0000006970	T000000013		T000000009	C	Apr 20 2010 11:38:45:743AM	VISARED 2010-02215	S	Apr 20 2010  1:29:53:093PM	S	N
0000006973	T000000013		T000000009	C	Apr 21 2010  1:20:22:883PM	SUBSANADO 2008-03701, VER TODAS LA NOTAS DEL EXPEDIENTE	S	Apr 21 2010  1:55:49:453PM	S	N
0000006974	0000001023		T000000009	C	Apr 21 2010  1:24:07:990PM	VISARES EXP. 2010-01140	S	Apr 21 2010  2:01:41:076PM	S	N
0000006975	T000000013		T000000009	C	Apr 21 2010  1:24:07:990PM	VISARES EXP. 2010-01140	S	Apr 21 2010  1:49:44:233PM	S	N
0000006976	0000001023		T000000009	C	Apr 21 2010  1:29:57:473PM	VISARED 2010-02264	S	Apr 21 2010  2:01:43:903PM	S	N
0000006977	T000000013		T000000009	C	Apr 21 2010  1:29:57:473PM	VISARED 2010-02264	S	Apr 21 2010  1:51:06:326PM	S	N
0000006978	T000000013		T000000009	C	Apr 21 2010  1:33:16:676PM	CAMBIO ORIENTACION PLANOS 2010-02266	S	Apr 21 2010  1:54:26:890PM	S	N
0000006979	0000001023		T000000009	C	Apr 23 2010  9:05:40:006AM	MODIFICACION PLANOS EXP. 2010-00204	S	Apr 23 2010  9:22:06:303AM	S	N
0000006980	T000000013		T000000009	C	Apr 23 2010  9:05:40:006AM	MODIFICACION PLANOS EXP. 2010-00204	S	Apr 26 2010  9:39:40:626AM	S	N
0000006981	0000001023		T000000009	C	Apr 26 2010 10:21:46:063AM	VISARED EXP. 2010-01105	S	Apr 27 2010  8:02:36:766AM	S	N
0000006982	T000000013		T000000009	C	Apr 26 2010 10:21:46:063AM	VISARED EXP. 2010-01105	S	Apr 26 2010 11:10:41:780AM	S	N
0000006983	0000001023		T000000009	C	Apr 26 2010 10:34:16:433AM	VISARED EXP. 2010-01207	S	Apr 27 2010  8:02:39:546AM	S	N
0000006984	T000000013		T000000009	C	Apr 26 2010 10:34:16:433AM	VISARED EXP. 2010-01207	S	Apr 26 2010 11:11:59:500AM	S	N
0000006985	0000001023		T000000009	C	Apr 27 2010  8:40:54:943AM	VISARED 2010-02393	S	Apr 27 2010  8:44:16:626AM	S	N
0000006986	T000000013		T000000009	C	Apr 27 2010  8:40:54:943AM	VISARED 2010-02393	S	Apr 28 2010 10:20:49:813AM	S	N
0000006987	0000001023		T000000009	C	Apr 27 2010  8:51:17:186AM	VISARED 2010-02394	S	Apr 27 2010  8:55:43:543AM	S	N
0000006988	T000000013		T000000009	C	Apr 27 2010  8:51:17:186AM	VISARED 2010-02394	S	Apr 28 2010 10:20:55:420AM	S	N
0000006989	T000000013		0000001014	C	Apr 27 2010  2:06:55:633PM	ALVARO SOLER POR LO DE LOS 400 CERTF. 616.091.690	S	Apr 28 2010 10:20:59:453AM	N	N
0000006990	0000001023		T000000009	C	Apr 27 2010  2:40:54:096PM	SUBSANADO 2010-02329	S	Apr 28 2010  9:53:59:586AM	S	N
0000006991	0000001023		0000001018	C	Apr 28 2010 11:05:59:456AM	LELMI 619.91.87.89	S	Apr 28 2010 12:23:33:830PM	N	N
0000006992	T000000001		T000000009	C	Apr 28 2010 12:18:41:396PM	DESPACHAR VISARED, 2010-02377 MODIFICADO IMPORTE 0	S	Apr 28 2010 12:28:57:253PM	S	N
0000006993	0000001023		T000000009	C	Apr 29 2010  8:59:42:553AM	VISARED 2010-02458	S	Apr 29 2010  9:02:41:516AM	S	N
0000006994	T000000013		T000000009	C	Apr 29 2010  8:59:42:553AM	VISARED 2010-02458	S	Apr 29 2010 10:57:05:126AM	S	N
0000006995	0000001023		T000000009	C	Apr 29 2010  9:03:07:156AM	SUBSANADO 2010-02393	S	Apr 29 2010  9:52:15:363AM	S	N
0000006996	0000001023		T000000009	C	Apr 29 2010  9:14:04:880AM	MODIFICADO EXP. 2010-01079	S	Apr 29 2010  9:54:40:863AM	S	N
0000006997	T000000013		T000000009	C	Apr 29 2010  9:14:04:880AM	MODIFICADO EXP. 2010-01079	S	Apr 29 2010 10:57:12:843AM	S	N
0000006998	T000000013		T000000009	C	Apr 29 2010  9:18:45:063AM	SUBSA EXP. 2010-01207	S	Apr 29 2010 10:54:13:156AM	S	N
0000006999	T000000001		T000000009	C	Apr 29 2010  2:50:17:013PM	VISAREDE 2010-02461 MODIFICADO IMPORTE 0	S	Apr 30 2010  8:50:38:396AM	S	N
0000007000	0000001023		T000000009	C	Apr 30 2010 11:58:41:996AM	VISARED 2010-02513	S	Apr 30 2010 12:17:41:553PM	S	N
0000007001	T000000013		T000000009	C	Apr 30 2010 11:58:41:996AM	VISARED 2010-02513	S	Apr 30 2010 12:41:40:280PM	S	N
0000007002	0000001023		T000000009	C	Apr 30 2010 12:13:31:023PM	VISARED 2003-02057, CAMBIO TEC. XFALLECIMIENTO TEC. ANTERIOR	S	Apr 30 2010 12:19:23:446PM	S	N
0000007003	T000000013		T000000009	C	Apr 30 2010 12:13:31:023PM	VISARED 2003-02057, CAMBIO TEC. XFALLECIMIENTO TEC. ANTERIOR	S	Apr 30 2010 12:43:29:670PM	S	N
0000007004	0000001023		T000000009	C	May  4 2010  8:46:50:690AM	VISARED 2010-02528	S	May  4 2010  9:24:39:543AM	S	N
0000007005	T000000013		T000000009	C	May  4 2010  8:46:50:690AM	VISARED 2010-02528	S	May  5 2010  9:07:25:626AM	S	N
0000007006	0000001023	ESTUVO HABLANDO CON EDUARDO PARA VISAR UNOS TRABAJOS PERO ANTES VA A COLEGIARSE, DICE QUE SE QUEDO CON UNA DUDA A VER SI SE LA PUEDES RESOLVER	0000001018	C	May  4 2010  9:59:17:803AM	JESSICA ALMENARA 822.017.978	S	May  4 2010 11:12:46:956AM	N	N
0000007007	T000000003		0000001018	C	May  4 2010 10:56:12:753AM	BELEN DIAZ DICE Q LA LLAMES AL 607.27.58.91	S	May  4 2010 11:01:15:256AM	N	N
0000007008	0000001023		0000001018	C	May  4 2010 10:56:44:590AM	IRENE MARIA AFONSO 2517 922.510.911 O 626.28.07.29	S	May  4 2010 11:13:29:596AM	N	N
0000007010	T000000003	FAX.922.86.05.96	0000001018	C	May  4 2010 12:04:13:403PM	RESUMEN EC. 2009 AÑO COL.1294 ALONSO MIGUEL...	S	May  4 2010  1:30:09:726PM	N	N
0000007011	0000001023		0000001018	C	May  4 2010 12:31:57:133PM	JORGE GARCIA 1849 TLF: 610.71.24.02	S	May  4 2010  2:01:06:683PM	N	N
0000007012	0000001023		0000001018	C	May  4 2010 12:58:08:943PM	RAUL 1738  660.292.847	S	May  4 2010  2:01:09:010PM	N	N
0000007013	0000001023		0000001018	C	May  4 2010  1:38:47:983PM	RAFAEL GARCIA 2875  605.319.601	S	May  4 2010  2:01:11:026PM	N	N
0000007014	T000000013		T000000009	C	May  4 2010  1:36:25:203PM	VISARED 2010-02514, HABLAMOS.	S	May  5 2010 11:43:48:920AM	S	N
0000007009	0000001023	DICE QUE SI PUEDES LLAMARLO ANTES DE LAS 11:30, PQ ESTA EN UN CURSO.
EL 30 DE ABRIL MANDO UN CORREO A VISADOS CON SU CONSULTA PERO NO RECUERDA A QUE CORREO ELECTRÓNICO LO ENVIÓ.	0000001018	C	May  4 2010 11:35:18:816AM	NESTOR 3164 610.84.31.25	S	May  4 2010  2:01:02:823PM	N	N
0000007015	0000001023		0000001018	C	May  5 2010  8:58:51:570AM	JORGE GARCIA  COL.1849  610.71.24.02	S	May  5 2010  9:17:15:330AM	N	N
0000007016	0000001023		0000001018	C	May  5 2010  9:47:46:300AM	JAVIER GUTIERREZ DICE QUE LO VUELVAS A LLAMAR	S	May  5 2010  9:41:25:686AM	N	N
0000007017	T000000013		0000001018	C	May  5 2010 10:17:05:290AM	NAVINDAR  691.474.319	S	May  5 2010 11:44:01:030AM	N	N
0000007018	T000000013		0000001018	C	May  5 2010 12:40:54:480PM	COL.2875-RAFAEL GARCIA CASTILLA  686.724.627	S	May  5 2010  2:19:10:530PM	N	N
0000007019	0000001011		0000001018	C	May  5 2010 12:40:54:480PM	COL.2875-RAFAEL GARCIA CASTILLA  686.724.627	S	May  5 2010  1:03:43:556PM	N	N
0000007020	0000001023		0000001018	C	May  5 2010 12:50:32:970PM	RELLAMADA RAUL PEREZ IZQ. 1738 660.292.847	S	May  5 2010 12:39:29:356PM	N	N
0000007021	0000001023		T000000009	C	May  5 2010  1:21:06:606PM	VISARED 2010-02607	S	May  5 2010  1:37:49:283PM	S	N
0000007022	T000000013		T000000009	C	May  5 2010  1:21:06:606PM	VISARED 2010-02607	S	May  5 2010  2:13:54:716PM	S	N
0000007023	0000001023		T000000009	C	May  6 2010  8:21:51:873AM	VISARED 2010-02613	S	May  7 2010  8:09:17:936AM	S	N
0000007024	T000000013		T000000009	C	May  6 2010  8:21:51:873AM	VISARED 2010-02613	S	May  6 2010  9:23:58:046AM	S	N
0000007025	0000001023		T000000009	C	May  6 2010 10:07:41:663AM	SUBSANADO 2010-02528	S	May  7 2010  8:09:21:350AM	S	N
0000007026	T000000013		T000000009	C	May  6 2010 10:07:41:663AM	SUBSANADO 2010-02528	S	May  6 2010 11:51:58:326AM	S	N
0000007027	T000000013		0000001018	C	May  6 2010 11:58:39:213AM	CRISTO MANUEL 670.63.45.02	S	May  6 2010 12:28:47:436PM	N	N
0000007028	T000000013		0000001018	C	May  6 2010 11:59:10:696AM	NAVIN HARJANI 691.474.319 O 928.70.73.07	S	May  6 2010 12:30:29:030PM	N	N
0000007029	T000000013		0000001018	C	May  6 2010 12:13:55:480PM	1910- FRANCISCO ALMIRA 630.87.36.84	S	May  6 2010 12:31:03:796PM	N	N
0000007030	T000000013		0000001018	C	May  6 2010 12:39:31:620PM	DEMETRIO COL.423  659.16.62.18	S	May  6 2010  1:55:21:530PM	N	N
0000007032	T000000013		0000001018	C	May  6 2010  1:27:14:826PM	ROSENDA MARRERO 2214  626.15.73.24	S	May  6 2010  2:03:31:016PM	N	N
0000007033	0000001023		T000000009	C	May  7 2010  8:54:11:246AM	VISARED EXPEDIENTE  2010-01358	S	May  7 2010  9:01:38:916AM	S	N
0000007034	T000000013		T000000009	C	May  7 2010  8:54:11:246AM	VISARED EXPEDIENTE  2010-01358	S	May  7 2010  9:16:28:626AM	S	N
0000007035	T000000013		T000000009	C	May  7 2010 12:30:13:176PM	SUBSANADO EXP. 2010-01358	S	May  7 2010  1:03:17:500PM	S	N
0000007036	T000000013		T000000009	C	May  7 2010 12:36:25:190PM	SUBSANADO 2010-02607	S	May  7 2010  1:07:01:453PM	S	N
0000007037	0000001023		T000000009	C	May 13 2010  8:44:27:530AM	VISARED 2010-02783	S	May 14 2010  8:13:22:530AM	S	N
0000007038	T000000013		T000000009	C	May 13 2010  8:44:27:530AM	VISARED 2010-02783	S	May 13 2010  9:19:02:000AM	S	N
0000007039	0000001023		T000000009	C	May 13 2010  8:47:41:963AM	VISARED 2010-02784	S	May 14 2010  8:13:25:563AM	S	N
0000007040	T000000013		T000000009	C	May 13 2010  8:47:41:963AM	VISARED 2010-02784	S	May 13 2010  9:19:06:250AM	S	N
0000007041	0000001023		T000000009	C	May 13 2010 10:25:10:456AM	VISARED 2010-02793	S	May 14 2010  8:13:28:140AM	S	N
0000007042	T000000013		T000000009	C	May 13 2010 10:25:10:456AM	VISARED 2010-02793	S	May 13 2010 11:27:50:843AM	S	N
0000007043	0000001023		T000000009	C	May 14 2010  8:26:55:476AM	VISARED 2010-02817	S	May 14 2010  9:32:13:263AM	S	N
0000007044	T000000013		T000000009	C	May 14 2010  8:26:55:476AM	VISARED 2010-02817	S	May 14 2010  9:46:37:936AM	S	N
0000007045	0000001023		T000000009	C	May 14 2010  8:33:18:926AM	VISARED 2010-02818	S	May 14 2010  9:32:16:090AM	S	N
0000007046	T000000013		T000000009	C	May 14 2010  8:33:18:926AM	VISARED 2010-02818	S	May 14 2010  9:46:41:843AM	S	N
0000007047	T000000003	 XFAVOR AÑO 2009 DEL COL.3322
 robertoct80@gmail.com	0000001014	C	May 14 2010 11:19:47:616AM	RES. ECONOMICO DEL AÑO 2009...	S	May 14 2010 11:30:31:626AM	N	N
0000007048	0000001023		0000001014	C	May 14 2010 11:26:47:490AM	Mª FERNANDA CALVO 699.46.46.08 (HABILITADA PARA VER REPAROS)	S	May 14 2010 12:50:23:840PM	N	N
0000007049	T000000013		T000000009	C	May 14 2010 12:10:13:480PM	SUBSANADO 2010-02817	S	May 14 2010  1:26:50:483PM	S	N
0000007050	T000000013		T000000009	C	May 14 2010 12:12:28:860PM	SUBSANADO 2010-02818	S	May 14 2010  1:26:53:576PM	S	N
0000007052	T000000013		T000000009	C	May 18 2010  9:13:34:853AM	VISARED 2010-02888	S	May 19 2010  9:25:34:966AM	S	N
0000007053	0000001023		T000000009	C	May 18 2010  9:22:00:770AM	VISARED 2010-02889	S	May 18 2010  2:32:17:646PM	S	N
0000007054	T000000013		T000000009	C	May 18 2010  9:22:00:770AM	VISARED 2010-02889	S	May 19 2010  9:25:38:420AM	S	N
0000007051	0000001023		T000000009	C	May 18 2010  9:13:34:853AM	VISARED 2010-02888	S	May 18 2010  2:32:15:333PM	S	N
0000007055	0000001023		T000000009	C	May 19 2010 12:24:36:650PM	VISARED 2010-02944	S	May 20 2010  8:17:36:563AM	S	N
0000007056	T000000013		T000000009	C	May 19 2010 12:24:36:650PM	VISARED 2010-02944	S	May 20 2010  8:56:26:716AM	S	N
0000007057	0000001023		T000000009	C	May 19 2010 12:33:19:903PM	VISARED EXP.  2010-01527	S	May 20 2010  8:17:39:066AM	S	N
0000007058	T000000013		T000000009	C	May 19 2010 12:33:19:903PM	VISARED EXP.  2010-01527	S	May 20 2010  8:59:30:170AM	S	N
0000007059	T000000013		T000000009	C	May 21 2010  8:57:08:173AM	SUBSANADO EXP. 2010-01527	S	May 21 2010 10:39:35:563AM	S	N
0000007060	0000001023		T000000009	C	May 21 2010  9:02:29:936AM	ANEXO EXP. 2009-00034	S	May 21 2010  9:08:32:706AM	S	N
0000007061	T000000013		T000000009	C	May 21 2010  9:02:29:936AM	ANEXO EXP. 2009-00034	S	May 21 2010 11:46:49:000AM	S	N
0000007062	T000000013		0000001018	C	May 24 2010 11:05:56:500AM	JAVIER FUENTE COL.1246  609.23.15.19	S	May 24 2010 11:35:08:406AM	N	N
0000007063	T000000003		0000001018	C	May 24 2010 11:50:56:893AM	ALBERTO MENDEZ DEL HOYO 677.50.97.84	S	May 24 2010 12:14:07:553PM	N	N
0000007064	T000000013		0000001018	C	May 24 2010  1:41:30:830PM	VICTOR HDEZ. COL. 01684 615.44.03.53	S	May 24 2010  1:40:38:656PM	N	N
0000007065	0000001023		T000000009	C	May 25 2010  8:50:33:313AM	VISARED EXP. 2010-01576	S	May 25 2010  9:34:46:496AM	S	N
0000007066	T000000013		T000000009	C	May 25 2010  8:50:33:313AM	VISARED EXP. 2010-01576	S	May 26 2010  9:48:00:016AM	S	N
0000007067	0000001023		T000000009	C	May 25 2010  9:22:39:783AM	VISARED 2010-03061	S	May 25 2010  9:35:08:263AM	S	N
0000007068	T000000013		T000000009	C	May 25 2010  9:22:39:783AM	VISARED 2010-03061	S	May 26 2010  9:47:56:233AM	S	N
0000007069	0000001023		0000001018	C	May 25 2010  9:50:03:376AM	JAVIER FUENTE 922.22.68.19 / 609.23.15.19	S	May 25 2010  9:35:11:123AM	N	N
0000007070	0000001023		T000000009	C	May 25 2010  9:38:31:416AM	VISARED EXP. 2007-03995	S	May 25 2010 10:02:17:626AM	S	N
0000007071	T000000013		T000000009	C	May 25 2010  9:38:31:416AM	VISARED EXP. 2007-03995	S	May 26 2010  9:47:52:826AM	S	N
0000007072	0000001023		T000000009	C	May 25 2010 12:03:09:380PM	VISARED 2010-03081	S	May 25 2010 12:52:41:663PM	S	N
0000007073	T000000013		T000000009	C	May 25 2010 12:03:09:380PM	VISARED 2010-03081	S	May 26 2010  9:47:50:203AM	S	N
0000007074	0000001023		T000000009	C	May 25 2010 12:11:40:656PM	VISARED 2010-03083	S	May 25 2010 12:52:44:193PM	S	N
0000007075	T000000013		T000000009	C	May 25 2010 12:11:40:656PM	VISARED 2010-03083	S	May 26 2010  9:47:47:483AM	S	N
0000007076	0000001023	 	0000001018	C	May 25 2010  1:10:50:980PM	IGNACIO DE LA OBRA DE PLAYA PARAÍSO...638.04.97.98	S	May 25 2010 12:52:21:536PM	N	N
0000007077	0000001023		T000000009	C	May 26 2010  8:20:15:323AM	VISARED EXP. 2010-00037	S	May 26 2010  8:51:22:403AM	S	N
0000007078	T000000013		T000000009	C	May 26 2010  8:20:15:323AM	VISARED EXP. 2010-00037	S	May 26 2010  9:47:44:766AM	S	N
0000007079	0000001023		T000000009	C	May 26 2010  8:25:01:866AM	VISARED 2010-03095	S	May 26 2010  8:51:41:246AM	S	N
0000007080	T000000013		T000000009	C	May 26 2010  8:25:01:866AM	VISARED 2010-03095	S	May 26 2010  9:47:34:703AM	S	N
0000007081	0000001023		T000000009	C	May 26 2010  8:32:55:743AM	VISARED 2010-03097	S	May 26 2010  8:51:44:153AM	S	N
0000007082	T000000013		T000000009	C	May 26 2010  8:32:55:743AM	VISARED 2010-03097	S	May 26 2010  9:44:44:280AM	S	N
0000007083	0000001023		0000001018	C	May 26 2010  9:11:14:756AM	JOSE MARIA TENA 607.11.23.14.	S	May 26 2010  8:50:43:156AM	N	N
0000007084	0000001023		T000000009	C	May 26 2010  9:37:25:676AM	VISARED 2010-03102	S	May 26 2010  9:42:38:700AM	S	N
0000007085	T000000013		T000000009	C	May 26 2010  9:37:25:676AM	VISARED 2010-03102	S	May 26 2010  9:58:28:733AM	S	N
0000007086	T000000013		0000001018	C	May 26 2010 10:49:09:773AM	FCO. RUIZ 2957  645.16.02.34	S	May 26 2010 10:50:39:530AM	N	N
0000007088	T000000003	 
  anaiced@hotmail.com	0000001018	C	May 26 2010 11:59:12:356AM	COL.2807 ANA I. CEDRES RES.2009 AL CORREO...	S	May 26 2010 11:48:57:980AM	N	N
0000007089	0000001023		0000001018	C	May 26 2010 12:31:28:930PM	IGNACIO DE PLAYA PARAISO 638.04.97.98	S	May 27 2010  8:32:28:796AM	N	N
0000007090	T000000013		0000001018	C	May 26 2010  1:18:24:490PM	HECTOR GABINO 628.02.00.44	S	May 26 2010  2:02:43:343PM	N	N
0000007091	0000001023		0000001018	C	May 26 2010  1:23:07:026PM	VIRGINIA  639.79.09.10	S	May 27 2010  8:32:32:166AM	N	N
0000007092	0000001023		T000000009	C	May 27 2010  8:31:09:390AM	SUBSA 2010-03081	S	May 27 2010  8:32:34:833AM	S	N
0000007093	0000001023		T000000009	C	May 27 2010  8:36:36:896AM	SUBSANADO 2010-03095	S	May 27 2010  8:43:08:933AM	S	N
0000007094	T000000013		T000000009	C	May 27 2010  8:49:40:420AM	SUBSANADO 2010-02970	S	May 27 2010  9:30:24:686AM	S	N
0000007095	0000001023		T000000009	C	May 27 2010  8:57:54:493AM	MODIFICADO EXP. 2009-03706, VISARED	S	May 27 2010 12:05:54:753PM	S	N
0000007096	T000000013		T000000009	C	May 27 2010  8:57:54:493AM	MODIFICADO EXP. 2009-03706, VISARED	S	May 27 2010  9:34:08:530AM	S	N
0000007097	0000001023		0000001018	C	May 27 2010  9:49:14:073AM	JOSE JUAN 2285 658.02.12.13	S	May 27 2010 11:58:27:186AM	N	N
0000007098	T000000003	868- JOSE ENRIQUE, AL CORREO: jema170753@ono.com	0000001018	C	May 27 2010  9:51:51:690AM	RESUMEN EC. 2009 COL. 868...	S	May 27 2010  9:47:18:126AM	N	N
0000007099	T000000013		0000001018	C	May 27 2010 10:01:53:806AM	ALICIA CAÑIBANO  670.70.13.80	S	May 27 2010 10:10:41:466AM	N	N
0000007100	0000001023		0000001018	C	May 27 2010 10:40:40:503AM	JUAN FCO. G ORIHUELA 659.64.12.71	S	May 27 2010 12:20:24:636PM	N	N
0000007101	T000000013		0000001018	C	May 27 2010 11:00:28:730AM	DAVID GLEZ. CASTRO 1712 TLF: 629.57.32.70	S	May 27 2010 11:45:33:030AM	N	N
0000007102	T000000013		0000001018	C	May 27 2010 11:11:40:076AM	SERGIO MARRERO TLF: 647.338.240	S	May 27 2010 12:23:15:046PM	N	N
0000007103	0000001023		0000001018	C	May 27 2010 12:02:10:003PM	ANA LA EX DE TECNOLOGIA  649.71.25.87	S	May 27 2010 12:20:27:280PM	N	N
0000007104	T000000013		0000001018	C	May 27 2010 12:08:19:806PM	ALEXANDER PAEZ 3190  629.57.46.63	S	May 27 2010 12:34:10:906PM	N	N
0000007105	0000001023		0000001018	C	May 27 2010 12:21:31:093PM	FCO. ESTEVEZ 2520 TLF: 687.463.324	S	May 27 2010 12:20:29:326PM	N	N
0000007106	T000000003	 
  CORREO jema170753@ono.com	0000001018	C	May 27 2010  1:02:41:666PM	868 - D. JOSE ENRIQUE  AÑO 2009.... AL	S	May 27 2010 12:55:55:113PM	N	N
0000007107	T000000003		0000001018	C	May 27 2010  1:03:42:393PM	EL 868 YA TE LO HABIA PASADO ANTES, NO LO REENVIES.	S	May 27 2010 12:55:45:926PM	N	N
0000007108	T000000013		0000001018	C	May 27 2010  1:04:37:603PM	VICTORIA 1795 657.567.876	S	May 27 2010  1:19:18:920PM	N	N
0000007109	0000001023		T000000009	C	May 27 2010  1:07:13:820PM	VISARES EXP. 2010-01625	S	May 27 2010  1:24:57:063PM	S	N
0000007110	0000001023		0000001018	C	May 27 2010  1:36:32:246PM	RAUL MARTIN HABILITADO 639.71.92.75	S	May 28 2010  1:55:52:756PM	N	N
0000007111	0000001023		T000000009	C	May 27 2010  1:15:29:710PM	SUBSANADO 2010-03062	S	May 27 2010  1:24:59:563PM	S	N
0000007113	T000000013		0000001018	C	May 28 2010 10:27:55:373AM	COL 826 JOSE MIGUEL MARTINEZ 639.360.353.	S	May 28 2010 10:25:52:813AM	N	N
0000007114	T000000003		0000001018	C	May 28 2010 11:22:39:593AM	ASIER QUE PF LO LLAMES 639.664.845.	S	May 28 2010 12:49:09:193PM	N	N
0000007115	0000001023		0000001018	C	May 28 2010 11:25:05:523AM	2437 FRANCISCO MONTÑES 922.57.47.04	S	May 28 2010  1:55:55:443PM	N	N
0000007116	0000001023		0000001018	C	May 28 2010 11:25:36:056AM	CAROLINA 2978  922.79.96.41	S	May 28 2010  1:56:01:380PM	N	N
0000007117	T000000003		0000001018	C	May 28 2010 11:32:19:786AM	MANUEL FOSSAS TLF: 686.93.49.91	S	May 28 2010 12:51:32:063PM	N	N
0000007118	0000001011		0000001018	C	May 28 2010 11:36:57:026AM	COL. 2041 INMA DE LA OROTAVA 616.62.90.95	S	May 28 2010 11:35:07:836AM	N	N
0000007119	T000000013		0000001018	C	May 28 2010 11:59:22:583AM	VICTORIA  1795  657.567.876	S	Jun  2 2010 11:14:48:466AM	N	N
0000007121	0000001023		T000000009	C	May 28 2010  1:27:47:586PM	VISARED EXP. 2009-01927	S	May 28 2010  1:56:03:943PM	S	N
0000007122	T000000013		T000000009	C	May 28 2010  1:27:47:586PM	VISARED EXP. 2009-01927	S	Jun  2 2010 11:14:52:670AM	S	N
0000007123	0000001023		T000000009	C	Jun  1 2010  8:43:22:880AM	SUBSA 2010-03094	S	Jun  1 2010  9:42:23:476AM	S	N
0000007124	0000001023		T000000009	C	Jun  1 2010  8:44:49:203AM	HABLAMOS REF. 2010-03083	S	Jun  1 2010  9:42:26:006AM	S	N
0000007125	0000001023		T000000009	C	Jun  1 2010  1:40:52:616PM	VISRED EXP. 2010-01659	S	Jun  1 2010  1:54:10:423PM	S	N
0000007126	T000000013		T000000009	C	Jun  1 2010  1:40:52:616PM	VISRED EXP. 2010-01659	S	Jun  2 2010 11:14:57:750AM	S	N
0000007127	0000001023		T000000009	C	Jun  1 2010  1:56:35:076PM	VISARED EXP. 2009-01620	S	Jun  2 2010 11:08:01:760AM	S	N
0000007128	T000000013		T000000009	C	Jun  1 2010  1:56:35:076PM	VISARED EXP. 2009-01620	S	Jun  2 2010 11:15:31:296AM	S	N
0000007129	0000001023		T000000009	C	Jun  3 2010  8:09:08:353AM	SUBSANADO 2010-03094	S	Jun  4 2010  8:51:37:563AM	S	N
0000007130	0000001023		T000000009	C	Jun  3 2010  8:42:46:530AM	SUBSANDO EXP. 2009-01927	S	Jun  4 2010  8:51:39:843AM	S	N
0000007131	0000001023		T000000009	C	Jun  3 2010  8:53:57:666AM	VISARED 2010-03309	S	Jun  4 2010  8:51:41:873AM	S	N
0000007132	T000000013		T000000009	C	Jun  3 2010  8:53:57:666AM	VISARED 2010-03309	S	Jun  3 2010  9:36:16:750AM	S	N
0000007133	0000001023		T000000009	C	Jun  4 2010  8:40:57:596AM	VISARED 2010-03348	S	Jun  4 2010  8:51:43:906AM	S	N
0000007134	T000000013		T000000009	C	Jun  4 2010  8:40:57:596AM	VISARED 2010-03348	S	Jun  4 2010  9:05:56:716AM	S	N
0000007135	T000000013		T000000009	C	Jun  4 2010  9:01:45:630AM	VISARED 2010-03346	S	Jun  4 2010  9:40:51:626AM	S	N
0000007136	0000001023		T000000009	C	Jun  4 2010 10:51:51:986AM	VISARED 2010-03355	S	Jun  4 2010 11:02:24:370AM	S	N
0000007137	T000000013		T000000009	C	Jun  4 2010 10:51:51:986AM	VISARED 2010-03355	S	Jun  4 2010 11:43:49:436AM	S	N
0000007138	0000001023		T000000009	C	Jun  7 2010 12:34:02:246PM	EXP. 2010-01449	S	Jun  7 2010 12:49:18:060PM	S	N
0000007139	T000000013		T000000009	C	Jun  7 2010 12:34:02:246PM	EXP. 2010-01449	S	Jun  7 2010  1:14:18:233PM	S	N
0000007140	0000001023	 	T000000009	C	Jun  8 2010  8:49:02:640AM	VISARED EXP. 2010-01337	S	Jun  9 2010  9:24:43:190AM	S	N
0000007141	T000000013	 	T000000009	C	Jun  8 2010  8:49:02:640AM	VISARED EXP. 2010-01337	S	Jun  8 2010  9:22:53:483AM	S	N
0000007143	0000001023		T000000009	C	Jun  8 2010  9:16:43:246AM	VISARED 2010-03411	S	Jun  9 2010  9:24:55:330AM	S	N
0000007144	T000000013		T000000009	C	Jun  8 2010  9:16:43:246AM	VISARED 2010-03411	S	Jun  8 2010 10:13:13:466AM	S	N
0000007142	38/A/00003	Despachar visared	T000000013	C	Jun  8 2010  9:37:27:203AM	REGISTRO 2010-03407	N		N	N
0000007145	T000000001	Despachar visared	T000000013	C	Jun  8 2010  9:37:27:203AM	REGISTRO 2010-03407	S	Jun  8 2010  9:21:42:490AM	N	N
0000007146	0000001023		T000000009	C	Jun  8 2010 10:57:36:036AM	VISARED 2010-03423	S	Jun  9 2010  9:25:09:143AM	S	N
0000007147	T000000013		T000000009	C	Jun  8 2010 10:57:36:036AM	VISARED 2010-03423	S	Jun  8 2010 11:24:25:156AM	S	N
0000007148	T000000013		T000000009	C	Jun  9 2010  8:45:07:176AM	SUBAS VISARED 2010-03395	S	Jun  9 2010 10:31:45:110AM	S	N
0000007149	0000001023		T000000009	C	Jun  9 2010  8:51:07:980AM	VISARED 2010-03439	S	Jun  9 2010  9:25:11:190AM	S	N
0000007150	T000000013		T000000009	C	Jun  9 2010  8:51:07:980AM	VISARED 2010-03439	S	Jun  9 2010 11:06:16:280AM	S	N
0000007151	0000001023		T000000009	C	Jun  9 2010 11:39:22:810AM	SUBSANADO EXP. 2010-01659	S	Jun 10 2010  9:47:07:246AM	S	N
0000007152	0000001023		T000000009	C	Jun 10 2010 12:04:02:073PM	VISARED 2010-03484	S	Jun 10 2010 12:26:40:596PM	S	N
0000007153	T000000013		T000000009	C	Jun 10 2010 12:04:02:073PM	VISARED 2010-03484	S	Jun 11 2010  1:00:10:250PM	S	N
0000007154	0000001023		T000000009	C	Jun 10 2010 12:19:42:096PM	VISARED 2010-03486	S	Jun 10 2010 12:26:56:630PM	S	N
0000007155	T000000013		T000000009	C	Jun 10 2010 12:19:42:096PM	VISARED 2010-03486	S	Jun 11 2010  1:00:44:436PM	S	N
0000007156	T000000013		T000000009	C	Jun 10 2010 12:23:16:066PM	SUBSANADO 2010-03411	S	Jun 11 2010  1:01:05:703PM	S	N
0000007157	T000000013		T000000009	C	Jun 11 2010  8:50:04:160AM	SUBSANADO 2010-03395	S	Jun 11 2010  1:02:39:360PM	S	N
0000007158	0000001023		T000000009	C	Jun 11 2010  9:34:27:423AM	SUBSANADO EXP. 2010-01788	S	Jun 11 2010  9:38:03:720AM	S	N
0000007159	T000000013		T000000009	C	Jun 11 2010  9:41:10:573AM	SUBSANADO 2010-03411	S	Jun 11 2010  1:03:44:640PM	S	N
0000007160	0000001023		T000000009	C	Jun 11 2010 10:05:01:156AM	VISARED EXP. 2010-01822	S	Jun 11 2010 11:05:25:163AM	S	N
0000007161	T000000004		T000000009	C	Jun 11 2010 10:05:01:156AM	VISARED EXP. 2010-01822	S	Jun 11 2010 12:53:37:416PM	S	N
0000007162	0000001023		T000000009	C	Jun 11 2010 10:39:23:666AM	VISARED EXP. 2009-00706	S	Jun 11 2010 11:05:33:570AM	S	N
0000007163	T000000013		T000000009	C	Jun 11 2010 10:39:23:666AM	VISARED EXP. 2009-00706	S	Jun 11 2010  1:05:08:203PM	S	N
0000007164	0000001023		T000000009	C	Jun 11 2010 11:19:05:416AM	VISARED 2010-03516	S	Jun 11 2010 11:53:13:836AM	S	N
0000007165	T000000013		T000000009	C	Jun 11 2010 11:19:05:416AM	VISARED 2010-03516	S	Jun 11 2010  1:07:16:796PM	S	N
0000007166	0000001023		T000000009	C	Jun 14 2010  8:41:43:706AM	SUBSANADO EXP. 2009-00706	S	Jun 14 2010  9:19:37:570AM	S	N
0000007167	T000000013		T000000009	C	Jun 14 2010  8:46:13:643AM	SUBSANADO 2010-03411	S	Jun 15 2010  8:38:29:530AM	S	N
0000007168	0000001023		T000000009	C	Jun 14 2010  9:09:35:540AM	SUBSANADO EXP. 2010-01822	S	Jun 14 2010  9:19:40:083AM	S	N
0000007169	0000001023		T000000009	C	Jun 14 2010 10:50:10:640AM	SUBSANADO 2010-03486	S	Jun 14 2010 12:07:51:696PM	S	N
0000007170	0000001023		T000000009	C	Jun 15 2010  8:11:15:263AM	SUBSA 2010-03486	S	Jun 16 2010  9:38:02:243AM	S	N
0000007171	T000000013		T000000009	C	Jun 15 2010  8:15:11:030AM	SUBSANADO 2010-03486	S	Jun 15 2010  8:39:36:966AM	S	N
0000007172	0000001023		T000000009	C	Jun 15 2010  8:40:02:700AM	VISARED 2010-03573	S	Jun 16 2010  9:38:05:306AM	S	N
0000007173	T000000013		T000000009	C	Jun 15 2010  8:40:02:700AM	VISARED 2010-03573	S	Jun 15 2010 11:29:10:593AM	S	N
0000007174	T000000013		T000000009	C	Jun 17 2010 10:20:28:916AM	SUBSANADO 2010-03573	S	Jun 17 2010 10:48:23:843AM	S	N
0000007175	0000001023		T000000009	C	Jun 18 2010 11:31:19:866AM	VISARED 2010-03708	S	Jun 18 2010 12:19:55:033PM	S	N
0000007176	T000000013		T000000009	C	Jun 18 2010 11:31:19:866AM	VISARED 2010-03708	S	Jun 18 2010 12:28:43:750PM	S	N
0000007177	0000001023		T000000009	C	Jun 18 2010 11:37:14:193AM	VISARED 2010-03709	S	Jun 18 2010 12:19:57:440PM	S	N
0000007178	T000000013		T000000009	C	Jun 18 2010 11:37:14:193AM	VISARED 2010-03709	S	Jun 18 2010 12:30:24:046PM	S	N
0000007179	0000001023		T000000009	C	Jun 21 2010  1:21:07:843PM	VISARED 2010-03749	S	Jun 22 2010  7:57:24:933AM	S	N
0000007180	T000000013		T000000009	C	Jun 21 2010  1:21:07:843PM	VISARED 2010-03749	S	Jun 22 2010  8:44:51:766AM	S	N
0000007181	0000001023		T000000009	C	Jun 22 2010  8:26:56:376AM	VISARED 2010-03750	S	Jun 22 2010  8:44:33:736AM	S	N
0000007182	T000000013		T000000009	C	Jun 22 2010  8:26:56:376AM	VISARED 2010-03750	S	Jun 22 2010  8:50:51:593AM	S	N
0000007183	0000001023		T000000009	C	Jun 22 2010  8:44:38:836AM	VISARED 2010-03751	S	Jun 22 2010  8:47:18:123AM	S	N
0000007184	T000000013		T000000009	C	Jun 22 2010  8:44:38:836AM	VISARED 2010-03751	S	Jun 22 2010  9:22:00:266AM	S	N
0000007185	T000000013		T000000009	C	Jun 22 2010  8:49:08:056AM	SUBSANADO 2010-03709	S	Jun 22 2010  9:32:01:436AM	S	N
0000007186	0000001023		T000000009	C	Jun 22 2010  8:57:46:643AM	VISARED 2010-03752	S	Jun 22 2010 10:30:14:960AM	S	N
0000007187	T000000013		T000000009	C	Jun 22 2010  8:57:46:643AM	VISARED 2010-03752	S	Jun 22 2010  9:25:18:186AM	S	N
0000007188	0000001023		T000000009	C	Jun 22 2010  9:01:58:296AM	VISARED 2010-03753	S	Jun 22 2010 10:30:17:336AM	S	N
0000007189	T000000013		T000000009	C	Jun 22 2010  9:01:58:296AM	VISARED 2010-03753	S	Jun 22 2010  9:30:10:906AM	S	N
0000007190	0000001023		T000000009	C	Jun 22 2010  1:14:30:060PM	VISARED 2010-2010-03786	S	Jun 23 2010  7:59:45:813AM	S	N
0000007191	T000000013		T000000009	C	Jun 22 2010  1:14:30:060PM	VISARED 2010-2010-03786	S	Jun 23 2010  9:23:34:546AM	S	N
0000007192	T000000013		T000000009	C	Jun 22 2010  1:46:45:270PM	SUBSANADO 2010-03751	S	Jun 23 2010  9:36:40:576AM	S	N
0000007193	0000001023		T000000009	C	Jun 23 2010 11:10:42:673AM	MODIFICADO EXP. 2010-01953, REF.  2010-03808	S	Jun 23 2010 11:40:17:576AM	S	N
0000007194	T000000013		T000000009	C	Jun 23 2010 11:10:42:673AM	MODIFICADO EXP. 2010-01953, REF.  2010-03808	S	Jun 23 2010 12:07:47:343PM	S	N
0000007195	0000001023		T000000009	C	Jun 23 2010 11:19:08:573AM	VISARES 2010-03809	S	Jun 23 2010 11:44:04:796AM	S	N
0000007196	T000000013		T000000009	C	Jun 23 2010 11:19:08:573AM	VISARES 2010-03809	S	Jun 23 2010 12:07:10:126PM	S	N
0000007197	0000001023		T000000009	C	Jun 23 2010 11:24:27:856AM	VISARED 2010-03811	S	Jun 23 2010 11:44:12:623AM	S	N
0000007198	T000000013		T000000009	C	Jun 23 2010 11:24:27:856AM	VISARED 2010-03811	S	Jun 23 2010 12:10:19:530PM	S	N
0000007199	T000000013		T000000009	C	Jun 23 2010 11:35:47:653AM	SUBSANADO 2010-03786	S	Jun 23 2010 12:10:24:813PM	S	N
0000007200	T000000013		T000000009	C	Jun 24 2010  8:38:16:536AM	SUBSANADO 2010-03786	S	Jun 24 2010  9:25:33:906AM	S	N
0000007201	0000001023		T000000009	C	Jun 24 2010  8:47:27:126AM	VISARED 2010-03837	S	Jun 25 2010  9:07:59:383AM	S	N
0000007202	T000000013		T000000009	C	Jun 24 2010  8:47:27:126AM	VISARED 2010-03837	S	Jun 24 2010  9:36:49:233AM	S	N
0000007203	0000001023		T000000009	C	Jun 24 2010  8:54:26:530AM	VISARED 2010-03841	S	Jun 25 2010  9:08:01:900AM	S	N
0000007204	T000000013		T000000009	C	Jun 24 2010  8:54:26:530AM	VISARED 2010-03841	S	Jun 24 2010  9:40:02:890AM	S	N
0000007205	T000000013		T000000009	C	Jun 25 2010 11:43:16:470AM	SUBSANADO 2010-03809	S	Jun 25 2010 12:17:17:360PM	S	N
0000007206	0000001023		T000000009	C	Jun 25 2010 12:29:01:810PM	VISARED EXP. 2010-01496 REF. 2010-03910	S	Jun 25 2010 12:48:59:090PM	S	N
0000007207	T000000013		T000000009	C	Jun 25 2010 12:29:01:810PM	VISARED EXP. 2010-01496 REF. 2010-03910	S	Jun 28 2010  9:03:30:860AM	S	N
0000007208	0000001023		T000000009	C	Jun 25 2010  1:04:33:783PM	VISARED EXP.  2010-01495 REF. 2010-03914	S	Jun 29 2010  7:57:12:750AM	S	N
0000007209	T000000013		T000000009	C	Jun 25 2010  1:04:33:783PM	VISARED EXP.  2010-01495 REF. 2010-03914	S	Jun 28 2010  9:04:50:766AM	S	N
0000007210	T000000001		T000000009	C	Jun 28 2010  1:17:56:083PM	DESPACHAR VISARED 2010-03935 IMPORTE O	S	Jun 28 2010  1:54:02:813PM	S	N
0000007211	0000001023		T000000009	C	Jun 29 2010  8:23:36:806AM	VISARED EXP. 2010-02051	S	Jun 29 2010  8:42:28:833AM	S	N
0000007212	T000000013		T000000009	C	Jun 29 2010  8:23:36:806AM	VISARED EXP. 2010-02051	S	Jun 30 2010  9:26:23:376AM	S	N
0000007213	0000001023		T000000009	C	Jun 29 2010  1:09:53:266PM	SUBSANADO 2010-02051	S	Jun 30 2010  9:07:35:416AM	S	N
0000007214	0000001023		T000000009	C	Jun 29 2010  1:10:22:033PM	SUBSANADO EXP. 2010-02051	S	Jun 30 2010  9:07:38:213AM	S	N
0000007215	0000001023		T000000009	C	Jul  2 2010  8:59:46:453AM	VISARED EXP. 2010-02104	S	Jul  2 2010  9:14:44:510AM	S	N
0000007216	T000000013		T000000009	C	Jul  2 2010  8:59:46:453AM	VISARED EXP. 2010-02104	S	Jul  5 2010  8:25:02:796AM	S	N
0000007217	0000001023		T000000009	C	Jul  2 2010 10:52:13:650AM	VISARED 2010-04046	S	Jul  6 2010  7:51:20:833AM	S	N
0000007218	T000000013		T000000009	C	Jul  2 2010 10:52:13:650AM	VISARED 2010-04046	S	Jul  5 2010  8:25:47:890AM	S	N
0000007219	0000001023		T000000009	C	Jul  2 2010 12:13:19:583PM	VISARED 2010-04058	S	Jul  6 2010  7:51:23:190AM	S	N
0000007220	T000000013		T000000009	C	Jul  2 2010 12:13:19:583PM	VISARED 2010-04058	S	Jul  5 2010  9:38:21:656AM	S	N
0000007221	0000001023		T000000009	C	Jul  2 2010 12:40:54:263PM	VISARED 2010-04060	S	Jul  6 2010  7:51:29:360AM	S	N
0000007222	T000000013		T000000009	C	Jul  2 2010 12:40:54:263PM	VISARED 2010-04060	S	Jul  5 2010  9:43:01:966AM	S	N
0000007224	T000000013		T000000009	C	Jul  2 2010 12:47:27:336PM	SUBSA 2010-04058	S	Jul  5 2010  9:46:25:000AM	S	N
0000007225	0000001023		T000000009	C	Jul  5 2010  9:01:04:246AM	VISARED EXP. 2010-02126	S	Jul  6 2010  7:51:38:750AM	S	N
0000007226	T000000013		T000000009	C	Jul  5 2010  9:01:04:246AM	VISARED EXP. 2010-02126	S	Jul  5 2010  9:52:31:326AM	S	N
0000007227	0000001023		T000000009	C	Jul  5 2010  9:20:31:290AM	VISARED EXP. 2010-02129	S	Jul  6 2010  7:51:41:186AM	S	N
0000007228	T000000013		T000000009	C	Jul  5 2010  9:20:31:290AM	VISARED EXP. 2010-02129	S	Jul  5 2010 11:05:15:703AM	S	N
0000007229	0000001023		T000000009	C	Jul  5 2010 10:04:55:026AM	VISARED EXP. 2010-02132	S	Jul  6 2010  7:51:43:243AM	S	N
0000007230	T000000013		T000000009	C	Jul  5 2010 10:04:55:026AM	VISARED EXP. 2010-02132	S	Jul  5 2010 11:17:52:703AM	S	N
0000007231	0000001023		T000000009	C	Jul  5 2010 10:31:12:960AM	SUBASA EXP. 2009-00706	S	Jul  6 2010  7:51:45:890AM	S	N
0000007232	T000000013		T000000009	C	Jul  5 2010 10:31:12:960AM	SUBASA EXP. 2009-00706	S	Jul  5 2010 11:32:42:436AM	S	N
0000007233	T000000013		T000000009	C	Jul  5 2010 12:14:59:766PM	SUBASA EXP. 2010-02132	S	Jul  5 2010 12:55:36:343PM	S	N
0000007223	0000001023		T000000009	C	Jul  2 2010 12:47:27:336PM	SUBSA 2010-04058	S	Jul  6 2010  7:51:31:643AM	S	N
0000007234	T000000013	QUEDO EN QUE ENVIARIA EL ESTUDIO SEGURIDAD PORQUE SE LO PIDEN	T000000009	C	Jul  6 2010  8:05:19:903AM	SUBSANADO EXP. 2010-02132	S	Jul  6 2010  9:25:39:813AM	S	N
0000007235	T000000013		T000000009	C	Jul  6 2010  8:20:09:333AM	SUBSA EXP. 2010-02126. SOLO ESTUDIO SEGURIDAD	S	Jul  6 2010 11:31:19:110AM	S	N
0000007236	0000001023		T000000009	C	Jul  6 2010  8:27:37:133AM	VISARED 2010-04112	S	Jul  6 2010 10:14:42:683AM	S	N
0000007237	T000000013		T000000009	C	Jul  6 2010  8:27:37:133AM	VISARED 2010-04112	S	Jul  6 2010 12:37:44:610PM	S	N
0000007238	T000000013		T000000009	C	Jul  6 2010 10:24:38:453AM	SUBSANADO EXP. 2010-02132	S	Jul  6 2010 12:38:21:546PM	S	N
0000007239	T000000013		T000000009	C	Jul  6 2010 11:23:06:050AM	SUBSANADO 2010-02126	S	Jul  6 2010 12:39:50:563PM	S	N
0000007240	0000001023		T000000009	C	Jul  6 2010  1:38:27:506PM	SUBSANADO EXP. 2010-02129	S	Jul  7 2010  7:53:26:340AM	S	N
0000007241	0000001023		T000000009	C	Jul  6 2010  2:04:19:916PM	SUBSANDO EXP. VISARED.	S	Jul  7 2010  7:54:12:556AM	S	N
0000007242	0000001023		T000000009	C	Jul  7 2010  8:13:50:563AM	VIVSARED 2010-04140	S	Jul  7 2010  8:33:04:440AM	S	N
0000007243	T000000013		T000000009	C	Jul  7 2010  8:13:50:563AM	VIVSARED 2010-04140	S	Jul 12 2010  9:35:00:170AM	S	N
0000007244	0000001023		T000000009	C	Jul  7 2010 11:29:40:756AM	SUBASA REF. 2010-04060	S	Jul  7 2010 12:14:01:856PM	S	N
0000007245	0000001023		T000000009	C	Jul  7 2010 11:40:41:460AM	SUBSA 2010-04140	S	Jul  7 2010 12:14:14:810PM	S	N
0000007246	0000001023		T000000009	C	Jul  9 2010  8:56:53:156AM	VISARED 2010-04201	S	Jul  9 2010  1:09:04:316PM	S	N
0000007247	T000000013		T000000009	C	Jul  9 2010  8:56:53:156AM	VISARED 2010-04201	S	Jul 12 2010  9:42:43:686AM	S	N
0000007248	0000001023		T000000009	C	Jul  9 2010  9:14:44:090AM	VISARED 2010-04205	S	Jul  9 2010  1:09:24:706PM	S	N
0000007249	T000000013		T000000009	C	Jul  9 2010  9:14:44:090AM	VISARED 2010-04205	S	Jul 12 2010  9:43:17:140AM	S	N
0000007250	0000001023		T000000009	C	Jul  9 2010 11:21:26:930AM	VISARED 2010-04229	S	Jul  9 2010  1:09:27:426PM	S	N
0000007251	T000000013		T000000009	C	Jul  9 2010 11:21:26:930AM	VISARED 2010-04229	S	Jul 12 2010  9:43:50:156AM	S	N
0000007252	0000001023		T000000009	C	Jul  9 2010 11:58:44:353AM	VISARED 2010-04232	S	Jul  9 2010  1:09:29:660PM	S	N
0000007253	T000000013		T000000009	C	Jul  9 2010 11:58:44:353AM	VISARED 2010-04232	S	Jul 12 2010  9:44:44:546AM	S	N
0000007254	0000001023		T000000009	C	Jul 12 2010  8:28:23:330AM	VISARED 2010-04250	S	Jul 12 2010  8:30:21:016AM	S	N
0000007255	T000000013		T000000009	C	Jul 12 2010  8:28:23:330AM	VISARED 2010-04250	S	Jul 12 2010  9:46:07:046AM	S	N
0000007256	0000001023		T000000009	C	Jul 12 2010  8:48:19:620AM	VISARED EXP. 2010-02229	S	Jul 12 2010  9:33:24:610AM	S	N
0000007257	T000000013		T000000009	C	Jul 12 2010  8:48:19:620AM	VISARED EXP. 2010-02229	S	Jul 12 2010  9:46:12:250AM	S	N
0000007258	0000001023		T000000009	C	Jul 12 2010  9:00:06:240AM	SUBSANADO REF. 2010-04205 SIEGUE ESTANDO MAL	S	Jul 12 2010  9:33:42:750AM	S	N
0000007259	T000000013		T000000009	C	Jul 12 2010  9:00:06:240AM	SUBSANADO REF. 2010-04205 SIEGUE ESTANDO MAL	S	Jul 12 2010  9:56:00:296AM	S	N
0000007260	0000001023		T000000009	C	Jul 12 2010  9:52:23:420AM	SUBSANADO 2010-04250	S	Jul 12 2010 11:21:18:763AM	S	N
0000007261	0000001023		T000000009	C	Jul 14 2010  9:07:21:170AM	MODIFICADO EXP. 2010-02139	S	Jul 14 2010  9:31:07:946AM	S	N
0000007262	T000000013		T000000009	C	Jul 14 2010  9:07:21:170AM	MODIFICADO EXP. 2010-02139	S	Jul 19 2010 11:49:40:750AM	S	N
0000007263	0000001023		T000000009	C	Jul 14 2010  9:54:05:186AM	SUBSANADO 2010-04201	S	Jul 15 2010  7:52:38:530AM	S	N
0000007264	0000001023		T000000009	C	Jul 16 2010  2:22:14:736PM	SUBSANADO EXP. 2010-02104	S	Jul 20 2010 10:30:35:223AM	S	N
0000007265	T000000013		T000000009	C	Jul 16 2010  2:22:14:736PM	SUBSANADO EXP. 2010-02104	S	Jul 19 2010 11:50:06:280AM	S	N
0000007266	0000001023		T000000009	C	Jul 16 2010  2:31:02:030PM	VISARED 2010-04397	S	Jul 20 2010 10:30:37:550AM	S	N
0000007267	T000000013		T000000009	C	Jul 16 2010  2:31:02:030PM	VISARED 2010-04397	S	Jul 19 2010 11:53:56:326AM	S	N
0000007268	0000001023		0000001014	C	Jul 19 2010  1:43:21:196PM	2010-04431	S	Jul 20 2010 10:30:42:440AM	N	N
0000007269	T000000013		0000001014	C	Jul 19 2010  1:43:21:196PM	2010-04431	S	Jul 21 2010  9:24:57:826AM	N	N
0000007270	0000001023		0000001014	C	Jul 20 2010 11:33:31:290AM	2010-04456	S	Jul 20 2010 11:53:56:556AM	N	N
0000007271	T000000013		0000001014	C	Jul 20 2010 11:33:31:290AM	2010-04456	S	Jul 21 2010  9:25:00:860AM	N	N
0000007272	0000001023		0000001014	C	Jul 20 2010 11:42:59:470AM	2010-04462	S	Jul 20 2010 11:54:00:480AM	N	N
0000007273	T000000013		0000001014	C	Jul 20 2010 11:42:59:470AM	2010-04462	S	Jul 21 2010  9:25:03:656AM	N	N
0000007274	0000001023		0000001014	C	Jul 20 2010  1:19:03:980PM	SUBSANADO 2010-04039	S	Jul 21 2010  7:55:51:160AM	N	N
0000007275	0000001023		0000001014	C	Jul 21 2010 11:58:49:893AM	2010-04205	S	Jul 21 2010 12:35:48:043PM	N	N
0000007276	T000000013		0000001014	C	Jul 21 2010 11:58:49:893AM	2010-04205	S	Jul 22 2010  9:13:16:390AM	N	N
0000007277	0000001023		0000001014	C	Jul 21 2010 12:16:36:226PM	SUBSANADO 2010-04037	S	Jul 21 2010 12:35:52:683PM	N	N
0000007278	T000000013		0000001014	C	Jul 21 2010 12:16:36:226PM	SUBSANADO 2010-04037	S	Jul 22 2010  9:13:45:436AM	N	N
0000007279	0000001023		0000001014	C	Jul 21 2010 12:48:39:486PM	SUBSANADO 2010-04462	S	Jul 21 2010  1:28:36:666PM	N	N
0000007280	T000000013		0000001014	C	Jul 21 2010 12:48:39:486PM	SUBSANADO 2010-04462	S	Jul 22 2010  9:14:10:156AM	N	N
0000007281	0000001023		0000001014	C	Jul 22 2010  9:59:16:833AM	2010-04523	S	Jul 22 2010 10:10:14:816AM	N	N
0000007282	T000000013		0000001014	C	Jul 22 2010  9:59:16:833AM	2010-04523	S	Jul 22 2010 11:40:59:703AM	N	N
0000007283	0000001023		0000001014	C	Jul 22 2010 10:03:16:400AM	2010-04524	S	Jul 22 2010 10:10:17:286AM	N	N
0000007284	T000000013		0000001014	C	Jul 22 2010 10:03:16:400AM	2010-04524	S	Jul 22 2010 11:41:04:670AM	N	N
0000007285	0000001023		0000001014	C	Jul 22 2010 10:08:07:710AM	2010-4526	S	Jul 22 2010 10:10:20:160AM	N	N
0000007286	T000000013		0000001014	C	Jul 22 2010 10:08:07:710AM	2010-4526	S	Jul 22 2010 11:41:11:983AM	N	N
0000007287	0000001023		0000001014	C	Jul 22 2010 10:21:31:543AM	SUBSANADO 2010-04039	S	Jul 22 2010 10:55:16:923AM	N	N
0000007288	T000000013		0000001014	C	Jul 22 2010 10:21:31:543AM	SUBSANADO 2010-04039	S	Jul 23 2010 10:16:39:953AM	N	N
0000007289	0000001023		0000001014	C	Jul 26 2010 10:53:13:546AM	2010-04593	S	Jul 26 2010 11:03:27:933AM	N	N
0000007290	0000001023		0000001014	C	Jul 27 2010  8:27:52:136AM	2010-04615	S	Jul 27 2010  9:03:39:143AM	N	N
0000007291	T000000013		0000001014	C	Jul 27 2010  8:27:52:136AM	2010-04615	S	Jul 28 2010 10:13:32:546AM	N	N
0000007292	0000001023		0000001014	C	Jul 27 2010  1:55:42:763PM	2010-04232	S	Jul 28 2010  8:10:07:926AM	N	N
0000007293	T000000013		0000001014	C	Jul 27 2010  1:55:42:763PM	2010-04232	S	Jul 28 2010 10:13:58:376AM	N	N
0000007294	0000001023		0000001014	C	Jul 28 2010  9:18:10:183AM	2010-04643	S	Jul 28 2010  9:28:34:336AM	N	N
0000007296	0000001023		0000001014	C	Jul 28 2010  9:29:18:443AM	2010-04645	S	Jul 28 2010 10:19:05:650AM	N	N
0000007297	T000000013		0000001014	C	Jul 28 2010  9:29:18:443AM	2010-04645	S	Jul 28 2010 11:01:24:546AM	N	N
0000007298	0000001023		0000001014	C	Jul 28 2010  9:41:35:666AM	2010-04646	S	Jul 28 2010 10:19:08:040AM	N	N
0000007299	T000000013		0000001014	C	Jul 28 2010  9:41:35:666AM	2010-04646	S	Jul 28 2010 11:01:29:016AM	N	N
0000007295	T000000013		0000001014	C	Jul 28 2010  9:18:10:183AM	2010-04643	S	Jul 28 2010 10:14:38:016AM	N	N
0000007300	0000001023		0000001014	C	Jul 28 2010 10:04:09:870AM	2010-04649	S	Jul 28 2010 10:19:10:116AM	N	N
0000007301	T000000013		0000001014	C	Jul 28 2010 10:04:09:870AM	2010-04649	S	Jul 28 2010 11:05:00:360AM	N	N
0000007302	0000001023		0000001014	C	Jul 28 2010 10:07:38:636AM	2010-04651	S	Jul 28 2010 10:19:12:073AM	N	N
0000007303	T000000013		0000001014	C	Jul 28 2010 10:07:38:636AM	2010-04651	S	Jul 28 2010 11:09:17:483AM	N	N
0000007304	T000000013		0000001014	C	Jul 29 2010  9:01:42:836AM	2010-04672	S	Jul 29 2010  9:37:00:546AM	N	N
0000007305	T000000013		0000001014	C	Jul 29 2010  9:06:32:806AM	2010-04673	S	Jul 29 2010  9:37:05:063AM	N	N
0000007306	0000001023		0000001014	C	Jul 30 2010 12:47:03:410PM	2010-04740	S	Aug  2 2010  8:06:22:430AM	N	N
0000007307	T000000013		0000001014	C	Jul 30 2010 12:47:03:410PM	2010-04740	S	Aug  3 2010  9:59:18:640AM	N	N
0000007308	T000000013		T000000009	C	Aug  3 2010 10:48:25:083AM	SUBSA 2010-04672	S	Aug  3 2010 11:27:18:670AM	S	N
0000007309	T000000013		T000000009	C	Aug  3 2010 11:51:47:336AM	SUBSANADO EXP. 2010-02450	S	Aug  3 2010 12:26:28:436PM	S	N
0000007310	T000000013		T000000009	C	Aug  5 2010 11:47:54:276AM	SUBSA REF. 2010-04672	S	Aug  5 2010 12:20:48:826PM	S	N
0000007311	T000000013		T000000009	C	Aug  5 2010 11:52:50:010AM	SUBSA 2010-04781	S	Aug  5 2010 12:20:53:110PM	S	N
0000007312	T000000013		T000000009	C	Aug  5 2010 12:01:08:270PM	VISARED 2010-04842	S	Aug  5 2010 12:20:58:046PM	S	N
0000007313	T000000013		T000000009	C	Aug  6 2010  9:37:03:946AM	SUBSANADO EXP. 2010-02431	S	Aug  6 2010 10:14:08:500AM	S	N
0000007314	T000000013		T000000009	C	Aug  6 2010  9:56:18:646AM	SUBSA EXP. 2010-02432	S	Aug  6 2010 10:25:01:420AM	S	N
0000007315	T000000013		T000000009	C	Aug  9 2010 11:46:32:633AM	SUBSANADO EXP. 2010-00787	S	Aug  9 2010 12:22:47:780PM	S	N
0000007317	T000000013		T000000009	C	Aug  9 2010 11:54:14:463AM	MODIFICADO REGISTRO 2010-04646	S	Aug  9 2010 12:25:42:670PM	S	N
0000007318	0000001023		T000000009	C	Aug  9 2010 12:33:20:036PM	VISARED 2010-04917	S	Aug 10 2010  8:29:29:786AM	S	N
0000007319	T000000013		T000000009	C	Aug  9 2010 12:33:20:036PM	VISARED 2010-04917	S	Aug  9 2010  1:13:52:906PM	S	N
0000007320	T000000013		T000000009	C	Aug  9 2010 12:44:09:263PM	SUBSANADO REF. 2010-04397	S	Aug  9 2010  1:16:31:703PM	S	N
0000007321	0000001023		T000000009	C	Aug 10 2010  9:01:51:963AM	SUBSANADO 2010-04646	S	Aug 10 2010 11:16:43:660AM	S	N
0000007322	T000000013		T000000009	C	Aug 10 2010  9:01:51:963AM	SUBSANADO 2010-04646	S	Aug 11 2010  9:45:37:390AM	S	N
0000007323	0000001023		T000000009	C	Aug 10 2010  9:31:23:110AM	SUBSANADO EXP.  2010-00787	S	Aug 10 2010 11:16:45:786AM	S	N
0000007324	T000000013		T000000009	C	Aug 10 2010  9:31:23:110AM	SUBSANADO EXP.  2010-00787	S	Aug 11 2010  9:46:11:716AM	S	N
0000007325	0000001023		T000000009	C	Aug 12 2010 12:40:28:126PM	VISARED EXP. 2010-02612	S	Aug 12 2010 12:51:46:753PM	S	N
0000007326	T000000013		T000000009	C	Aug 12 2010 12:40:28:126PM	VISARED EXP. 2010-02612	S	Aug 13 2010  9:15:19:406AM	S	N
0000007327	0000001023		T000000009	C	Aug 12 2010 12:50:11:633PM	VISARED 2010-05013	S	Aug 12 2010 12:51:49:640PM	S	N
0000007328	T000000013		T000000009	C	Aug 12 2010 12:50:11:633PM	VISARED 2010-05013	S	Aug 13 2010  9:20:45:110AM	S	N
0000007329	0000001023		T000000009	C	Aug 12 2010  1:24:47:973PM	VISARED 2010-05017	S	Aug 13 2010  8:17:01:193AM	S	N
0000007330	T000000013		T000000009	C	Aug 12 2010  1:24:47:973PM	VISARED 2010-05017	S	Aug 13 2010  9:20:49:063AM	S	N
0000007331	T000000013		T000000009	C	Aug 13 2010 10:20:24:683AM	VISARED 2010-05023 EXP. 2004-01073, IGNACIO MARTIN	S	Aug 13 2010 12:34:28:343PM	S	N
0000007332	0000001023		T000000009	C	Aug 13 2010 10:29:55:183AM	VISARED EXP.  2010-02616	S	Aug 13 2010 10:39:24:376AM	S	N
0000007333	T000000013		T000000009	C	Aug 13 2010 10:29:55:183AM	VISARED EXP.  2010-02616	S	Aug 13 2010 12:29:51:843PM	S	N
0000007334	T000000013		T000000009	C	Aug 13 2010 10:35:53:400AM	SUBSANADO REF. 2010-04397	S	Aug 13 2010 12:27:58:733PM	S	N
0000007335	0000001023		T000000009	C	Aug 16 2010  9:09:48:896AM	SUBSA REF. 2010-05017	S	Aug 16 2010  9:21:29:966AM	S	N
0000007336	T000000013		T000000009	C	Aug 17 2010  9:09:09:320AM	VISARED REF.  2010-05064	S	Aug 17 2010  9:55:33:030AM	S	N
0000007337	T000000013		T000000009	C	Aug 17 2010  9:21:58:426AM	SUBSA EXP. 2010-02612	S	Aug 17 2010 10:10:09:466AM	S	N
0000007338	T000000013		T000000009	C	Aug 18 2010 11:33:17:573AM	VISARED 2010-05106	S	Aug 18 2010 12:06:44:953PM	S	N
0000007339	T000000013		T000000009	C	Aug 18 2010 12:16:32:190PM	VISARED 2010-05111	S	Aug 18 2010  1:11:46:233PM	S	N
0000007340	T000000013		T000000009	C	Aug 18 2010 12:17:29:546PM	SUBSA EXP. 2010-05111	S	Aug 18 2010  1:14:38:983PM	S	N
0000007341	T000000013		T000000009	C	Aug 19 2010  9:11:04:756AM	SUBSA REF. 2010-05064	S	Aug 19 2010  9:50:54:250AM	S	N
0000007342	T000000013		T000000009	C	Aug 20 2010  8:46:14:716AM	VISARED 2010-05123	S	Aug 20 2010  9:25:01:920AM	S	N
0000007343	T000000013		T000000009	C	Aug 20 2010  9:05:35:056AM	SUBSA EXP. 2010-02612	S	Aug 20 2010  9:27:55:966AM	S	N
0000007344	T000000013		T000000009	C	Aug 20 2010 12:49:01:970PM	ANULACION REF. 2010-05106	S	Aug 23 2010  9:40:41:466AM	S	N
0000007345	T000000013		T000000009	C	Aug 23 2010 12:44:37:256PM	SUBSANADO EXP. 2010-02616	S	Aug 23 2010  1:07:55:766PM	S	N
0000007346	0000001023		T000000009	C	Aug 24 2010 10:26:05:456AM	SUBSANADO REGISTRO 2010-05064	S	Aug 24 2010 10:32:43:273AM	S	N
0000007347	0000001023		T000000009	C	Aug 24 2010 10:36:32:453AM	SUBSA.  REF.  2010-05111	S	Aug 24 2010 10:54:52:693AM	S	N
0000007348	0000001023		T000000009	C	Aug 24 2010 11:59:08:903AM	VISARED 2010-05169	S	Aug 24 2010 12:00:22:153PM	S	N
0000007349	0000001023		T000000009	C	Aug 24 2010  1:33:38:453PM	SUBSA REF. 2010-05123	S	Aug 25 2010  8:16:05:876AM	S	N
0000007350	0000001023		T000000009	C	Aug 25 2010  9:21:34:460AM	VISARED REF.  2010-05173	S	Aug 25 2010  9:38:57:206AM	S	N
0000007354	0000001023		T000000009	C	Aug 25 2010 11:14:25:983AM	SUBSA REF. 2010-05169	S	Aug 25 2010 11:18:07:126AM	S	N
0000007355	0000001023		T000000009	C	Aug 26 2010 12:06:42:300PM	VISARED EXP. 2010-02728	S	Aug 26 2010  1:10:52:106PM	S	N
0000007356	0000001023		T000000009	C	Aug 30 2010 11:06:10:840AM	VISARED EXP. 2010-02739	S	Aug 30 2010 11:39:58:410AM	S	N
0000007357	0000001023		T000000009	C	Aug 30 2010 11:50:13:080AM	VISARED REF.  2010-05228	S	Aug 30 2010 12:45:02:373PM	S	N
0000007358	0000001023		T000000009	C	Aug 30 2010 11:50:50:926AM	VISARED REF. 2010-05227	S	Aug 30 2010 12:45:05:373PM	S	N
0000007359	T000000013		T000000009	C	Aug 30 2010  1:40:13:366PM	VISARED REF. 2010-05230	S	Aug 31 2010  8:21:16:046AM	S	N
0000007360	T000000013		T000000009	C	Aug 31 2010 10:05:07:143AM	SUBSA EXP. 2010-02739	S	Aug 31 2010 11:46:57:126AM	S	N
0000007361	T000000013		T000000009	C	Sep  1 2010  9:26:59:786AM	SUBSA EXP. 2010-02739	S	Sep  1 2010 10:04:02:670AM	S	N
0000007362	T000000001		T000000009	C	Sep  2 2010  8:33:55:320AM	EXP. 2010-02739 NO SE DESPACHO REF. 2010-05238	S	Sep  2 2010  8:58:52:980AM	S	N
0000007363	0000001023		T000000009	C	Sep  2 2010  9:48:01:776AM	VISARED EXP. 2010-02769	S	Sep  2 2010 10:03:26:300AM	S	N
0000007364	T000000013		T000000009	C	Sep  2 2010  9:48:01:776AM	VISARED EXP. 2010-02769	S	Sep  2 2010 10:45:09:953AM	S	N
0000007365	0000001023		T000000009	C	Sep  3 2010 11:57:22:470AM	VISARED 2010-05323	S	Sep  3 2010 12:16:10:660PM	S	N
0000007366	T000000013		T000000009	C	Sep  3 2010 11:57:22:470AM	VISARED 2010-05323	S	Sep  6 2010  7:57:55:203AM	S	N
0000007367	T000000001		T000000009	C	Sep  6 2010 12:23:30:440PM	REF. 2004-06373 VER OBSERVACIONES. ???????	S	Sep  6 2010  1:36:39:863PM	S	N
0000007368	0000001023		T000000009	C	Sep  6 2010 12:42:57:876PM	VISARED 2010-05349	S	Sep  7 2010  9:11:13:926AM	S	N
0000007369	T000000013		T000000009	C	Sep  6 2010 12:42:57:876PM	VISARED 2010-05349	S	Sep  6 2010  1:12:50:780PM	S	N
0000007370	0000001022		T000000009	C	Sep  8 2010  1:54:23:026PM	CAMBIO TEC. VISARED EXP. 2006-04810	S	Sep  9 2010  7:55:55:196AM	S	N
0000007371	T000000013	CHICOS YA HE MIRADO EL EXPDTE. NO TENGO NADA QUE AJUNTAR PORQUE FUE UNA BAJA DONDE EL TECNICO NO PRESENTO DESLINDE DE RESPONSABILIDADES.
LA BAJA YA SE COMUNICÓ EN SU MOMENTO A LOS ORGANISMOS CORRESPONDIENTES.
NECESITAN ALGO MAS?
	0000001022	C	Sep  9 2010  7:59:39:303AM	CAMBIO TEC. VISARED EXP. 2006-04810	S	Sep  9 2010  8:53:49:030AM	N	N
0000007372	T000000009	CHICOS YA HE MIRADO EL EXPDTE. NO TENGO NADA QUE AJUNTAR PORQUE FUE UNA BAJA DONDE EL TECNICO NO PRESENTO DESLINDE DE RESPONSABILIDADES.
LA BAJA YA SE COMUNICÓ EN SU MOMENTO A LOS ORGANISMOS CORRESPONDIENTES.
NECESITAN ALGO MAS?
	0000001022	C	Sep  9 2010  7:59:39:303AM	CAMBIO TEC. VISARED EXP. 2006-04810	S	Sep  9 2010  8:33:45:156AM	N	S
0000007373	T000000013		T000000009	C	Sep  9 2010 10:48:32:070AM	MODIFICADO EXP. 2010-02530	S	Sep  9 2010 11:12:04:750AM	S	N
0000007374	0000001022		T000000009	C	Sep 13 2010 10:02:00:776AM	VISARED EXP. 2004-03122 CAMBIO TECNICO.	S	Sep 13 2010 12:09:07:746PM	S	N
0000007375	0000001023		T000000009	C	Sep 13 2010 10:27:16:623AM	VISARED EXP. 2010-02368	S	Sep 14 2010  8:23:03:666AM	S	N
0000007376	T000000013		T000000009	C	Sep 13 2010 10:27:16:623AM	VISARED EXP. 2010-02368	S	Sep 13 2010 11:28:14:063AM	S	N
0000007377	0000001023		0000001022	C	Sep 13 2010 12:21:19:426PM	VISARED EXPDTE: 2004-03122	S	Sep 14 2010  8:23:07:343AM	N	N
0000007378	T000000013		0000001022	C	Sep 13 2010 12:21:19:426PM	VISARED EXPDTE: 2004-03122	S	Sep 15 2010 10:24:27:843AM	N	N
0000007379	T000000013		T000000009	C	Sep 14 2010  9:11:26:230AM	SUBSA VISARED EXP. 2006-04810	S	Sep 15 2010 10:25:07:280AM	S	N
0000007380	T000000013		T000000009	C	Sep 14 2010  1:55:31:443PM	SUBSA NUEVO EXP.  2006-04810	S	Sep 15 2010 10:26:30:703AM	S	N
0000007381	T000000013		T000000009	C	Sep 15 2010 11:51:55:553AM	SUBSA EXP. 2010-02368	S	Sep 15 2010 12:19:12:546PM	S	N
0000007382	T000000013		T000000009	C	Sep 16 2010  8:11:44:470AM	ANEXO PROYECTO EXP. 2010-01712	S	Sep 16 2010  8:47:31:703AM	S	N
0000007383	T000000013		T000000009	C	Sep 16 2010  8:34:24:426AM	SUBSA EXP. 2010-02881	S	Sep 16 2010  9:07:35:686AM	S	N
0000007384	T000000013		T000000009	C	Sep 16 2010  8:45:40:983AM	VISARED 2010-05535	S	Sep 16 2010  9:09:22:546AM	S	N
0000007385	T000000013		T000000009	C	Sep 16 2010  9:46:25:583AM	SUBSA EXP. 2010-02368	S	Sep 16 2010 10:07:10:390AM	S	N
0000007386	0000001023		T000000009	C	Sep 17 2010  9:20:56:336AM	VISARED 2010-05544	S	Sep 17 2010 10:43:06:996AM	S	N
0000007387	T000000013		T000000009	C	Sep 17 2010  9:20:56:336AM	VISARED 2010-05544	S	Sep 17 2010 11:12:45:953AM	S	N
0000007388	T000000013		T000000009	C	Sep 23 2010  7:58:53:446AM	MODIFICADO EXP. 2010-02800	S	Sep 23 2010  8:35:18:170AM	S	N
0000007389	0000001023		T000000009	C	Sep 24 2010 11:51:23:450AM	VISAEZ 2010-02964	S	Sep 24 2010 11:53:35:793AM	S	N
0000007390	T000000013		T000000009	C	Sep 24 2010 11:51:23:450AM	VISAEZ 2010-02964	S	Sep 24 2010 12:23:35:716PM	S	N
0000007391	0000001023		T000000009	C	Sep 24 2010 12:13:14:630PM	VISARED 2010-05671	S	Sep 28 2010  8:11:43:470AM	S	N
0000007392	T000000013		T000000009	C	Sep 24 2010 12:13:14:630PM	VISARED 2010-05671	S	Sep 27 2010  9:00:26:876AM	S	N
0000007393	0000001023		T000000009	C	Sep 24 2010 12:38:30:963PM	VISARED EXP. 2010-02966	S	Sep 28 2010  8:11:45:593AM	S	N
0000007394	T000000013		T000000009	C	Sep 24 2010 12:38:30:963PM	VISARED EXP. 2010-02966	S	Sep 27 2010  9:06:56:170AM	S	N
0000007395	T000000013		T000000009	C	Sep 27 2010  8:37:38:666AM	SUBSA REGISTRO 2010-05670	S	Sep 27 2010  9:28:54:796AM	S	N
0000007396	T000000013		T000000009	C	Sep 28 2010 10:37:12:613AM	SUBSA EXP. 2010-02965	S	Sep 28 2010 11:14:11:640AM	S	N
0000007397	T000000013		T000000009	C	Sep 28 2010 10:53:55:330AM	SUBSA EXP. 2010-02966	S	Sep 28 2010 11:16:34:766AM	S	N
0000007398	0000001023		T000000009	C	Sep 30 2010  8:33:48:750AM	VISARED REF. 2010-05752	S	Sep 30 2010  9:14:18:380AM	S	N
0000007399	T000000013		T000000009	C	Sep 30 2010  8:33:48:750AM	VISARED REF. 2010-05752	S	Oct  1 2010 10:24:21:420AM	S	N
0000007400	0000001023		T000000009	C	Sep 30 2010 12:46:08:766PM	VISARED REF. 2010-05786	S	Sep 30 2010  1:17:53:236PM	S	N
0000007401	T000000013		T000000009	C	Sep 30 2010 12:46:08:766PM	VISARED REF. 2010-05786	S	Oct  1 2010 10:24:42:546AM	S	N
0000007402	0000001023		T000000009	C	Sep 30 2010 12:56:43:333PM	VISARED 2010-05787	S	Sep 30 2010  1:17:55:830PM	S	N
0000007403	T000000013		T000000009	C	Sep 30 2010 12:56:43:333PM	VISARED 2010-05787	S	Oct  1 2010 10:25:02:876AM	S	N
0000007404	0000001023		T000000009	C	Oct  1 2010 12:04:50:403PM	VISARED REF. 2010-05799, EXP. 2010-00907	S	Oct  1 2010  2:09:46:180PM	S	N
0000007405	T000000013		T000000009	C	Oct  1 2010 12:04:50:403PM	VISARED REF. 2010-05799, EXP. 2010-00907	S	Oct  1 2010 12:41:27:890PM	S	N
0000007406	T000000013		T000000009	C	Oct  6 2010  2:33:04:786PM	VISARED 2010-05875	S	Oct  7 2010  9:36:04:983AM	S	N
0000007407	T000000013		T000000009	C	Oct  7 2010 11:38:35:963AM	VISARED REF. 2010-05886	S	Oct 11 2010  8:39:56:530AM	S	N
0000007408	T000000013		T000000009	C	Oct  7 2010 12:04:03:546PM	VISARED REF. 2010-05892	S	Oct 11 2010  8:47:58:046AM	S	N
0000007409	T000000013		T000000009	C	Oct  8 2010  9:14:34:496AM	VISARED EXP. 2010-03106	S	Oct 11 2010  8:50:59:733AM	S	N
0000007410	T000000013		T000000009	C	Oct  8 2010  2:57:40:866PM	VISAREC EXP. 2010-03113 VOLUNTARIO Y DAP	S	Oct 11 2010 10:11:11:266AM	S	N
0000007411	0000001023		T000000009	C	Oct 11 2010  2:48:51:840PM	VISARED REF. 2010-05960	S	Oct 13 2010  7:58:08:760AM	S	N
0000007412	T000000013		T000000009	C	Oct 11 2010  2:48:51:840PM	VISARED REF. 2010-05960	S	Oct 13 2010  8:57:05:140AM	S	N
0000007413	T000000013		T000000009	C	Oct 11 2010  2:53:57:336PM	SUBASA RAEF. 2010-05886	S	Oct 13 2010  9:00:02:140AM	S	N
0000007414	T000000013		T000000009	C	Oct 11 2010  2:58:41:350PM	SUBSA REF. 2010-05892	S	Oct 13 2010  9:02:12:390AM	S	N
0000007415	0000001023		T000000009	C	Oct 15 2010 12:15:09:110PM	VISARED EXP. 2010-00312	S	Oct 15 2010 12:21:04:240PM	S	N
0000007416	T000000013		T000000009	C	Oct 15 2010 12:15:09:110PM	VISARED EXP. 2010-00312	S	Oct 19 2010 10:50:32:420AM	S	N
0000007417	0000001023		T000000009	C	Oct 15 2010 12:27:01:196PM	VISARED EXP. 2010-00311	S	Oct 15 2010 12:42:20:496PM	S	N
0000007418	T000000013		T000000009	C	Oct 15 2010 12:27:01:196PM	VISARED EXP. 2010-00311	S	Oct 19 2010 10:51:14:030AM	S	N
0000007419	0000001023		T000000009	C	Oct 18 2010 10:45:30:020AM	VISARED EXP. 2010-03087	S	Oct 18 2010 12:22:28:773PM	S	N
0000007420	0000001023		T000000009	C	Oct 19 2010  1:34:19:876PM	VISARED REF. 2010-06082	S	Oct 20 2010  8:03:30:953AM	S	N
0000007421	T000000013		T000000009	C	Oct 19 2010  1:34:19:876PM	VISARED REF. 2010-06082	S	Oct 26 2010  9:21:48:576AM	S	N
0000007422	0000001023		T000000009	C	Oct 19 2010  1:48:26:796PM	VISARED REF. 2010-06086	S	Oct 20 2010  8:03:33:420AM	S	N
0000007423	T000000013		T000000009	C	Oct 19 2010  1:48:26:796PM	VISARED REF. 2010-06086	S	Oct 26 2010  9:22:03:030AM	S	N
0000007424	0000001023		T000000009	C	Oct 19 2010  2:08:07:896PM	VISRAED REF. 2010-06088	S	Oct 20 2010  8:03:35:766AM	S	N
0000007425	T000000013		T000000009	C	Oct 19 2010  2:08:07:896PM	VISRAED REF. 2010-06088	S	Oct 26 2010  9:22:36:703AM	S	N
0000007426	0000001023		T000000009	C	Oct 19 2010  2:35:10:090PM	SUBSA EXP. 2010-03106	S	Oct 20 2010  8:03:37:906AM	S	N
0000007427	T000000013		T000000009	C	Oct 19 2010  2:35:10:090PM	SUBSA EXP. 2010-03106	S	Oct 26 2010  9:22:53:860AM	S	N
0000007428	0000001022		T000000009	C	Oct 20 2010  9:51:00:383AM	VISARED EXP. 2009-01172	S	Oct 20 2010  9:57:24:506AM	S	N
0000007429	0000001023		0000001022	C	Oct 20 2010 10:07:18:620AM	EXPDTE. 2009-01172	S	Oct 20 2010 11:29:55:020AM	N	N
0000007430	T000000009		0000001022	C	Oct 20 2010 10:07:18:620AM	EXPDTE. 2009-01172	S	Oct 20 2010 10:14:08:833AM	N	N
0000007431	0000001023		T000000009	C	Oct 20 2010 10:14:32:303AM	VISARED EXPDTE. 2009-01172	S	Oct 20 2010 11:29:57:486AM	S	N
0000007432	T000000013		T000000009	C	Oct 20 2010 10:14:32:303AM	VISARED EXPDTE. 2009-01172	S	Oct 26 2010  9:23:15:343AM	S	N
0000007433	0000001022		T000000009	C	Oct 20 2010 10:14:32:303AM	VISARED EXPDTE. 2009-01172	S	Oct 20 2010 10:17:11:650AM	S	N
0000007434	0000001023		T000000009	C	Oct 21 2010 11:59:28:136AM	SUBSA REG. 2010-05875	S	Oct 21 2010 12:57:01:183PM	S	N
0000007435	T000000013		T000000009	C	Oct 21 2010 11:59:28:136AM	SUBSA REG. 2010-05875	S	Oct 26 2010  9:24:17:016AM	S	N
0000007436	0000001023		T000000009	C	Oct 21 2010 12:33:37:973PM	VISARED REF. 2010-06132	S	Oct 21 2010 12:57:03:590PM	S	N
0000007437	T000000013		T000000009	C	Oct 21 2010 12:33:37:973PM	VISARED REF. 2010-06132	S	Oct 26 2010  9:24:40:860AM	S	N
0000007438	0000001023		T000000009	C	Oct 21 2010 12:42:02:426PM	VISARED REF. 2010-06136	S	Oct 21 2010 12:57:05:700PM	S	N
0000007439	T000000013		T000000009	C	Oct 21 2010 12:42:02:426PM	VISARED REF. 2010-06136	S	Oct 26 2010  9:24:59:670AM	S	N
0000007440	0000001023		T000000009	C	Oct 21 2010  1:15:34:880PM	VISARED REF. 2010-06140	S	Oct 21 2010  1:35:36:090PM	S	N
0000007441	T000000013		T000000009	C	Oct 21 2010  1:15:34:880PM	VISARED REF. 2010-06140	S	Oct 26 2010  9:25:31:046AM	S	N
0000007442	0000001023		T000000009	C	Oct 21 2010  1:16:24:160PM	SUBSA EXP. 2010-03106	S	Oct 21 2010  1:35:38:280PM	S	N
0000007443	0000001023		T000000009	C	Oct 22 2010  9:48:11:033AM	SUBSA EXP. 2010-03229	S	Oct 22 2010 10:43:28:440AM	S	N
0000007444	0000001023		T000000009	C	Oct 25 2010  9:13:31:163AM	SUBASA EXP. 2010-05918	S	Oct 25 2010 10:06:10:003AM	S	N
0000007445	T000000013		T000000009	C	Oct 25 2010  9:13:31:163AM	SUBASA EXP. 2010-05918	S	Oct 26 2010  9:27:25:436AM	S	N
0000007446	0000001023		T000000009	C	Oct 25 2010  9:26:46:776AM	VISARED EXP. 2006-04810	S	Oct 25 2010 10:06:12:706AM	S	N
0000007447	T000000013		T000000009	C	Oct 25 2010  9:26:46:776AM	VISARED EXP. 2006-04810	S	Oct 26 2010  9:28:28:670AM	S	N
0000007448	0000001023		T000000009	C	Oct 25 2010  9:36:06:300AM	VISARED REF. 2010-06175	S	Oct 25 2010 10:06:15:036AM	S	N
0000007449	T000000013		T000000009	C	Oct 25 2010  9:36:06:300AM	VISARED REF. 2010-06175	S	Oct 26 2010  9:29:33:796AM	S	N
0000007450	0000001023		T000000009	C	Oct 27 2010  7:10:48:106AM	VISARED EXP. 2010-03281	S	Oct 27 2010  8:16:29:136AM	S	N
0000007451	T000000013		T000000009	C	Oct 27 2010  7:10:48:106AM	VISARED EXP. 2010-03281	S	Oct 27 2010  8:30:39:876AM	S	N
0000007452	0000001023		T000000009	C	Oct 27 2010  7:53:26:266AM	VISRED EXP. 2010-03282	S	Oct 27 2010  8:16:41:363AM	S	N
0000007453	T000000013		T000000009	C	Oct 27 2010  7:53:26:266AM	VISRED EXP. 2010-03282	S	Oct 27 2010  8:31:35:796AM	S	N
0000007454	0000001023		T000000009	C	Oct 28 2010 11:12:09:540AM	SUBSA EXP. 2010-03282	S	Oct 28 2010 12:01:49:616PM	S	N
0000007455	T000000013		T000000009	C	Oct 29 2010  9:17:45:026AM	VISARED 2010-06292	S	Oct 29 2010  9:39:13:906AM	S	N
0000007456	0000001023		T000000009	C	Nov  3 2010  8:59:14:416AM	VISARED 2010-06355	S	Nov  3 2010  9:55:24:220AM	S	N
0000007457	T000000013		T000000009	C	Nov  3 2010  8:59:14:416AM	VISARED 2010-06355	S	Nov  3 2010 11:58:06:813AM	S	N
0000007458	0000001023		T000000009	C	Nov  3 2010  9:15:28:293AM	SUBSA EXP. 2010-03281	S	Nov  3 2010  9:55:38:736AM	S	N
0000007459	0000001012		T000000009	C	Nov  3 2010 11:53:22:330AM	SUBSA EXP. 2010-03281	N		S	N
0000007460	0000001023		T000000009	C	Nov  3 2010 11:53:22:330AM	SUBSA EXP. 2010-03281	S	Nov  3 2010 12:01:54:700PM	S	N
0000007461	0000001023		T000000009	C	Nov  5 2010  8:14:45:246AM	VISARED REF. 2010-06408	S	Nov  5 2010  8:54:33:643AM	S	N
0000007462	T000000013		T000000009	C	Nov  5 2010  8:14:45:246AM	VISARED REF. 2010-06408	S	Nov 11 2010 12:23:04:640PM	S	N
0000007463	0000001023		T000000009	C	Nov  5 2010  9:39:22:860AM	SUBSA REF. 2010-06355	S	Nov  5 2010 10:04:27:720AM	S	N
0000007465	0000001023		T000000009	C	Nov  8 2010  9:47:15:846AM	SUBSA REF. 2010-06408	S	Nov  8 2010 12:15:40:420PM	S	N
0000007466	0000001023		T000000009	C	Nov  9 2010  8:15:48:113AM	VISARED EXP. 2009-02742	S	Nov  9 2010  8:30:25:886AM	S	N
0000007468	0000001023		0000001014	C	Nov 17 2010 10:00:00:873AM	EXP. 2010-03500	S	Nov 17 2010 10:31:13:100AM	N	N
0000007469	T000000013		0000001014	C	Nov 17 2010 10:00:00:873AM	EXP. 2010-03500	S	Nov 18 2010 10:57:42:343AM	N	N
0000007471	0000001023		0000001014	C	Nov 17 2010 10:15:53:303AM	2010-06666	S	Nov 17 2010 10:31:16:053AM	N	N
0000007472	T000000013		0000001014	C	Nov 17 2010 10:15:53:303AM	2010-06666	S	Nov 18 2010 10:57:45:640AM	N	N
0000007473	0000001023		0000001014	C	Nov 18 2010  8:50:52:740AM	2010-06689	S	Nov 18 2010  9:25:35:176AM	N	N
0000007474	T000000013		0000001014	C	Nov 18 2010  8:50:52:740AM	2010-06689	S	Nov 18 2010 10:57:51:453AM	N	N
0000007475	0000001023		0000001014	C	Nov 18 2010  8:58:13:293AM	2010-06692	S	Nov 18 2010  9:25:52:486AM	N	N
0000007477	0000001023		0000001014	C	Nov 18 2010  9:24:55:560AM	2010-06695	S	Nov 18 2010  9:25:54:690AM	N	N
0000007478	T000000013		0000001014	C	Nov 18 2010  9:24:55:560AM	2010-06695	S	Nov 18 2010 10:57:57:466AM	N	N
0000007476	T000000013		0000001014	C	Nov 18 2010  8:58:13:293AM	2010-06692	S	Nov 18 2010 10:57:54:156AM	N	N
0000007479	0000001023		0000001014	C	Nov 23 2010  8:43:58:580AM	2010-06769	S	Nov 23 2010  9:12:04:360AM	N	N
0000007480	0000001023	PRESENTA UNA HOJA DE SOLICITUD DE VISADO ANTERIOR.
QUE TIPO DE VISADO ES??	0000001014	C	Nov 23 2010  8:53:21:610AM	2010-06770	S	Nov 23 2010  9:12:06:673AM	N	N
0000007481	0000001023		0000001014	C	Nov 25 2010  9:45:38:103AM	2010-06823	S	Nov 25 2010  9:59:14:046AM	N	N
0000007483	0000001023		0000001014	C	Nov 25 2010  9:49:39:820AM	2010-06824	S	Nov 25 2010  9:59:16:296AM	N	N
0000007484	0000001023		0000001014	C	Nov 25 2010  9:53:12:223AM	2010-06826	S	Nov 25 2010  9:59:18:390AM	N	N
0000007485	0000001023		0000001014	C	Nov 25 2010 10:07:01:390AM	2010-06827	S	Nov 25 2010 10:17:31:840AM	N	N
0000007486	0000001023	HOJA DE SOLICITUD NO VALIDA	0000001014	C	Nov 25 2010  1:26:41:580PM	2010-06852	S	Nov 26 2010  9:40:20:093AM	N	N
0000007488	0000001023		0000001014	C	Nov 25 2010  1:34:39:873PM	2010-06853	S	Nov 26 2010  9:40:35:780AM	N	N
0000007489	0000001023	AÑADE EL DAP.	0000001014	C	Nov 25 2010  1:42:39:006PM	REG. 2010-06769    EXP. 2010-03561	S	Nov 26 2010  9:40:38:063AM	N	N
0000007490	0000001023		0000001014	C	Nov 26 2010 10:45:43:246AM	2010-06872	S	Nov 26 2010 12:03:12:183PM	N	N
0000007491	0000001023	PLANO DE ELECTRICIDAD.	0000001014	C	Nov 26 2010 12:08:13:866PM	2010-06769	S	Nov 26 2010 12:53:49:523PM	N	N
0000007492	0000001023		T000000009	C	Nov 30 2010  2:04:03:486PM	EXP. 2010-03663	S	Nov 30 2010  2:26:14:056PM	S	N
0000007493	0000001023		T000000009	C	Nov 30 2010  2:11:28:130PM	SUBSA REF. 2010-06577	S	Nov 30 2010  2:26:16:446PM	S	N
0000007494	0000001023		T000000009	C	Dec  1 2010  8:53:56:190AM	SUBSA EXP. 2010-03621	S	Dec  7 2010  8:12:32:673AM	N	N
0000007495	T000000013		T000000009	C	Dec  1 2010  8:53:56:190AM	SUBSA EXP. 2010-03621	S	Dec  1 2010 11:02:09:730AM	S	N
0000007496	0000001023		T000000009	C	Dec  2 2010  8:29:34:463AM	VISARED EXP. 2010-03678	S	Dec  7 2010  8:12:34:936AM	N	N
0000007497	T000000013		T000000009	C	Dec  2 2010  8:29:34:463AM	VISARED EXP. 2010-03678	S	Dec  2 2010 12:04:30:610PM	N	N
0000007498	0000001023		T000000009	C	Dec  2 2010  8:51:18:470AM	VISARED EXP. 2010-03679	S	Dec  7 2010  8:12:37:786AM	N	N
0000007499	T000000013		T000000009	C	Dec  2 2010  8:51:18:470AM	VISARED EXP. 2010-03679	S	Dec  2 2010 12:10:55:966PM	N	N
0000007500	0000001023		T000000009	C	Dec  2 2010 11:28:52:673AM	VISARED EXP. 2010-03686	S	Dec  7 2010  8:12:39:926AM	N	N
0000007501	T000000013		T000000009	C	Dec  2 2010 11:28:52:673AM	VISARED EXP. 2010-03686	S	Dec  2 2010 12:13:03:076PM	N	N
0000007502	0000001023		T000000009	C	Dec  2 2010 11:48:32:040AM	SUBSA EXP. 2010-03593	S	Dec  7 2010  8:12:42:006AM	N	N
0000007503	T000000013		T000000009	C	Dec  2 2010 11:48:32:040AM	SUBSA EXP. 2010-03593	S	Dec  2 2010 12:15:32:733PM	N	N
0000007504	0000001023		T000000009	C	Dec  2 2010 11:54:56:683AM	VISARED EXP. 2010-03612	S	Dec  7 2010  8:12:43:963AM	N	N
0000007505	T000000013		T000000009	C	Dec  2 2010 11:54:56:683AM	VISARED EXP. 2010-03612	S	Dec  2 2010 12:20:51:953PM	N	N
0000007506	0000001023		T000000009	C	Dec  7 2010  9:39:15:500AM	VISARED EXP. 2010-03377	S	Dec  7 2010  9:42:52:286AM	N	N
0000007507	0000001023		T000000009	C	Dec  7 2010  9:50:25:426AM	VISARED EXP. 2010-03705	S	Dec  7 2010 10:33:01:286AM	N	N
0000007508	0000001023		T000000009	C	Dec  7 2010 10:19:34:810AM	VISARED EXP. 2009-02587	S	Dec  7 2010 10:33:03:756AM	N	N
0000007509	0000001023		T000000009	C	Dec 10 2010  9:02:19:750AM	VISARED EXP. 2010-03731	S	Dec 10 2010  9:11:11:833AM	N	N
0000007510	0000001023		T000000009	C	Dec 10 2010  9:21:46:383AM	SUBSA EXP. 2010-03377	S	Dec 10 2010 11:51:10:203AM	N	N
0000007511	0000001023		T000000009	C	Dec 14 2010  8:57:47:760AM	VISARED EXP. 2010-03758	S	Dec 14 2010  9:16:06:620AM	N	N
0000007512	0000001023		T000000009	C	Dec 14 2010 11:47:46:153AM	VISARED EXP. 2010-03762	S	Dec 14 2010 11:55:27:486AM	N	N
0000007513	0000001023		T000000009	C	Dec 14 2010 12:01:11:200PM	VISARED EXP. 2010-03763	S	Dec 14 2010 12:13:16:466PM	N	N
0000007514	0000001023		T000000009	C	Dec 15 2010  9:31:27:583AM	SUBSA EXP. 2010-03762 VISARED.	S	Dec 15 2010 10:04:14:963AM	N	N
0000007515	0000001023		T000000009	C	Dec 15 2010  9:44:12:626AM	SUBASA EXP. 2006-04810	S	Dec 15 2010 10:04:17:180AM	N	N
0000007516	0000001023		T000000009	C	Dec 15 2010  9:49:58:376AM	SUBSA EXP. 2010-03758-VISARED.	S	Dec 15 2010 10:04:19:196AM	N	N
0000007517	0000001023		T000000009	C	Dec 15 2010  9:54:53:250AM	SUBSA EXP. 2010-03763 VISARED.	S	Dec 15 2010 10:04:21:463AM	N	N
0000007518	0000001023		T000000009	C	Dec 17 2010  3:00:25:110PM	VISARED EXP. 2010-03517	S	Dec 20 2010  7:58:03:390AM	N	N
0000007519	0000001023		T000000009	C	Dec 20 2010  1:50:35:440PM	VISARED EXP. 2010-03848	S	Dec 21 2010  8:20:22:373AM	N	N
0000007520	0000001023		T000000009	C	Dec 21 2010 10:52:47:930AM	VISARED EXP. 2010-03853	S	Dec 21 2010 11:42:01:280AM	N	N
0000007521	0000001023		T000000009	C	Dec 22 2010 10:05:50:586AM	VISARED EXP. 2010-03870	S	Dec 22 2010 10:15:05:393AM	N	N
0000007522	0000001023		T000000009	C	Dec 23 2010 10:47:44:500AM	VISARED EXP. 2010-03884	S	Dec 23 2010 10:51:08:596AM	N	N
0000007523	0000001023		T000000009	C	Dec 24 2010 10:46:07:173AM	SUBAS EXP. 2010-03517	S	Dec 24 2010 11:46:19:286AM	N	N
0000007524	0000001023		T000000009	C	Dec 24 2010 11:07:01:150AM	VISARED EXP. 2010-03621	S	Dec 24 2010 11:46:28:880AM	N	N
0000007525	0000001023	HAY 2 HOJAS DE SOLICITUD CON EL MISMO COLEGIADO PERO EL VISARED ME MARCA DOS COLEGIADOS.	0000001014	C	Dec 30 2010  1:23:30:440PM	2010-07533	S	Dec 31 2010  8:51:14:730AM	N	N
0000007526	0000001023	REDAP O VISADO VOLUNTARIO.	0000001014	C	Dec 30 2010  1:24:21:003PM	2010-07533	S	Dec 31 2010  8:51:17:870AM	N	N
0000007527	0000001023		0000001014	C	Dec 30 2010  1:28:44:816PM	2010-07534	S	Dec 31 2010  8:54:13:683AM	N	N
0000007528	0000001023		0000001014	C	Dec 31 2010  9:01:46:330AM	2010-07536	S	Dec 31 2010  9:15:59:480AM	N	N
0000007529	0000001023		T000000009	C	Jan  4 2011 10:00:52:783AM	SUBSA EXP. 2010-03951	S	Jan  4 2011 12:17:12:306PM	N	N
0000007530	0000001023		T000000009	C	Jan  4 2011 10:15:08:343AM	SUBSA EXP. 2009-02057	S	Jan  4 2011 12:17:14:896PM	N	N
0000007531	0000001023		T000000009	C	Jan  4 2011 10:33:14:476AM	VISARED EXP. 2011-00010	S	Jan  4 2011 12:17:17:086PM	N	N
0000007532	0000001023		T000000009	C	Jan  5 2011  8:31:23:993AM	VISARED EXP. 2011-00014	S	Jan  5 2011  9:13:38:456AM	N	N
0000007533	0000001023		T000000009	C	Jan  7 2011  8:28:14:210AM	SUBASA EXP. 2010-03951	S	Jan  7 2011  8:43:52:813AM	N	N
0000007534	0000001023		T000000009	C	Jan  7 2011  9:08:31:796AM	VISARED EXP. 2011-00019	S	Jan  7 2011  9:17:18:966AM	N	N
0000007535	0000001023		0000001014	C	Jan 11 2011  9:51:53:050AM	REG. 2011-00101	S	Jan 11 2011 10:43:16:390AM	N	N
0000007537	0000001023	A LA HORA DE PASAR EL ESTUDIO DE SEGURIDAD COMPLETO SE DETECTA QUE HAY DUPLICADOS LOS EXPEDIENTES (D.O. Y ESTUDIO SEGURIDAD). EN EL VISARED APARECEN COMO EXPEDIENTES NUEVOS.
SE ANULAN ALGUNO DE LOS EXPEDIENTES???
	0000001014	C	Jan 11 2011 10:05:49:400AM	2011-00102	S	Jan 11 2011 10:43:19:953AM	N	N
0000007538	0000001023	EN LA SOLICITUD ESTA COMO VISADO VOLUNTARIO, PERO NO HAY FIRMAS	0000001014	C	Jan 11 2011 10:13:49:723AM	2011-00103	S	Jan 11 2011 10:44:10:216AM	N	N
0000007539	0000001023		0000001014	C	Jan 11 2011 10:36:08:936AM	2011-00104	S	Jan 11 2011 10:44:14:763AM	N	N
0000007541	0000001023		T000000009	C	Jan 13 2011  9:16:27:966AM	VISARED EXP. 2010-03848	S	Jan 13 2011 12:08:57:083PM	N	N
0000007542	0000001023		T000000009	C	Jan 13 2011  9:17:17:920AM	VISARED EXP. 2011-00059	S	Jan 13 2011 12:11:35:456PM	N	N
0000007543	0000001023		T000000009	C	Jan 13 2011  9:44:12:790AM	VISARED EXP. 2011-00060	S	Jan 13 2011 12:11:43:473PM	N	N
0000007544	0000001023		T000000009	C	Jan 13 2011  9:52:40:476AM	SUBSA EXP. 2010-03950	S	Jan 13 2011 12:11:46:050PM	N	N
0000007545	0000001023		T000000009	C	Jan 17 2011  9:41:41:226AM	VISARED EXP. 2011-00089	S	Jan 17 2011 12:01:06:466PM	N	N
0000007546	0000001023		T000000009	C	Jan 17 2011  9:59:43:333AM	VISARED EXP. 2011-00090	S	Jan 17 2011 12:01:08:843PM	N	N
0000007547	0000001023		T000000009	C	Jan 17 2011 10:26:04:806AM	SUBSA EXP. 2011-00059	S	Jan 17 2011 12:01:11:296PM	N	N
0000007548	0000001023		T000000009	C	Jan 17 2011 10:58:02:300AM	VISARED EXP. 2011-00092	S	Jan 17 2011 12:01:13:606PM	N	N
0000007549	0000001022		T000000009	C	Jan 17 2011 11:50:16:350AM	VISARAED EXP. 2006-04407-CAMBIO COLEGIADO	S	Jan 17 2011 11:53:44:646AM	N	N
0000007550	T000000009	Ya se ha preparado para remitir escrito al tecnico anterior notificando la rescision del contrato.
Ahora toca esperar respuesta.

Un saludo.	0000001022	C	Jan 17 2011 12:44:43:463PM	VISARAED EXP. 2006-04407-CAMBIO COLEGIADO	S	Jan 17 2011 12:45:27:506PM	N	N
0000007553	0000001023	LLEGO NUEVO COMUNICADO COAC CORREGIDO.	T000000009	C	Jan 17 2011  2:29:54:893PM	VISARAED EXP. 2006-04407-CAMBIO COLEGIADO	S	Jan 18 2011  8:24:50:436AM	N	N
0000007554	0000001023		T000000009	C	Jan 18 2011 10:10:39:230AM	SUBSA EXP. 2011-00048	S	Jan 18 2011  1:55:18:360PM	N	N
0000007555	0000001023		T000000009	C	Jan 18 2011 10:11:40:526AM	SUBSA EXP. 2011-00010	S	Jan 18 2011  1:55:20:483PM	N	N
0000007556	0000001023		T000000009	C	Jan 18 2011 11:52:42:983AM	SUBSA EXP. 2011-00089	S	Jan 18 2011  1:55:23:063PM	N	N
0000007557	0000001023		T000000009	C	Jan 19 2011  8:33:02:676AM	SUBSA EXP. 2011-00092	S	Jan 19 2011  8:38:17:020AM	N	N
0000007558	0000001023		T000000009	C	Jan 19 2011  8:35:56:353AM	SUBSA EXP. 2011-00049	S	Jan 19 2011  8:38:19:330AM	N	N
0000007559	0000001023		T000000009	C	Jan 19 2011  8:54:52:973AM	VISARED EXP. 2011-00107	S	Jan 19 2011  9:03:43:603AM	N	N
0000007560	0000001023	CARGADA LA RENUNCIA DEL TENICO ANTERIOR.	0000001022	C	Jan 19 2011 12:33:06:566PM	EXPDTE.: 2006-04407	S	Jan 19 2011  1:07:36:996PM	N	N
0000007561	T000000009	CARGADA LA RENUNCIA DEL TENICO ANTERIOR.	0000001022	C	Jan 19 2011 12:33:06:566PM	EXPDTE.: 2006-04407	S	Jan 19 2011 12:41:05:153PM	N	N
0000007562	0000001023		T000000009	C	Jan 19 2011 12:42:06:200PM	SUBSA CARGADDA RENUNCIA EXP. 2006-04407	S	Jan 19 2011  1:07:39:386PM	N	N
0000007563	0000001022		T000000009	C	Jan 19 2011 12:42:06:200PM	SUBSA CARGADDA RENUNCIA EXP. 2006-04407	S	Jan 20 2011  9:03:14:126AM	N	N
0000007564	0000001023		T000000009	C	Jan 19 2011  1:15:49:096PM	SUBA EXP. 2011-00107, APORTA COMUNICADO COAC	S	Jan 20 2011  8:48:08:683AM	N	N
0000007565	0000001023		T000000009	C	Jan 20 2011  9:50:52:406AM	MODIFICADO EXP. 2011-00089	S	Jan 20 2011 10:00:02:643AM	N	N
0000007566	0000001023		T000000009	C	Jan 20 2011 10:16:55:820AM	SUBSA EXP. 2011-00060	S	Jan 20 2011 11:08:33:906AM	N	N
0000007567	0000001023		T000000009	C	Jan 21 2011 12:41:53:413PM	SUBSA EXP. 2011-00060	S	Jan 21 2011  1:06:56:873PM	N	N
0000007568	0000001023		T000000009	C	Jan 24 2011  1:02:23:366PM	VISARED EXP. 2011-00155	S	Jan 24 2011  1:08:05:940PM	N	N
0000007569	0000001023		T000000009	C	Jan 25 2011  8:18:28:056AM	SUBSA EXP. 2011-00107	S	Jan 25 2011  8:40:08:630AM	N	N
0000007570	0000001023		T000000009	C	Jan 26 2011  9:17:48:626AM	VISAREC 2011-00164	S	Jan 26 2011 12:19:32:366PM	N	N
0000007571	0000001023		T000000009	C	Jan 26 2011  9:42:00:526AM	VISARED EXP. 2011-00165	S	Jan 26 2011 12:19:36:163PM	N	N
0000007572	0000001023		T000000009	C	Jan 26 2011  9:47:38:600AM	VISARED EXP. 2011-00166	S	Jan 26 2011 12:19:38:646PM	N	N
0000007573	0000001023		T000000009	C	Jan 27 2011  3:06:31:160PM	SUBSA EXP. 2011-00165	S	Jan 28 2011  8:47:21:093AM	N	N
0000007574	0000001023		T000000009	C	Jan 27 2011  3:15:03:670PM	VISARED EXP. 2011-00191	S	Jan 28 2011  8:47:23:373AM	N	N
0000007575	0000001023		T000000009	C	Jan 28 2011  2:34:49:580PM	MODIFICADO PLANO EXP. 2010-01576	S	Jan 31 2011  8:24:28:386AM	N	N
0000007576	0000001023		T000000009	C	Jan 31 2011 11:46:14:446AM	SUBSA EXP. 2011-00217	S	Jan 31 2011 12:26:15:626PM	N	N
0000007577	0000001023		T000000009	C	Jan 31 2011  2:37:44:003PM	VISARED EXP. 2011-00232	S	Feb  1 2011  8:37:20:190AM	N	N
0000007578	0000001023		T000000009	C	Jan 31 2011  2:49:05:190PM	SUBSA EXP. 2011-00164	S	Feb  1 2011  8:37:22:876AM	N	N
0000007579	0000001023		T000000009	C	Feb  1 2011  1:04:02:296PM	VISARED EXP. 2011-00246	S	Feb  1 2011  1:45:58:150PM	N	N
0000007580	0000001023		T000000009	C	Feb  1 2011  1:56:45:790PM	VISARED EXP. 2011-00249	S	Feb  1 2011  2:37:37:286PM	N	N
0000007581	0000001023		T000000009	C	Feb  1 2011  2:12:44:320PM	VISARED EXP. 2011-00251	S	Feb  1 2011  2:42:27:033PM	N	N
0000007582	0000001023		T000000009	C	Feb  3 2011  1:40:07:880PM	SUBSA EXP. 2011-00249	S	Feb  3 2011  1:54:58:186PM	N	N
0000007583	0000001023		T000000009	C	Feb  3 2011  1:48:14:010PM	SUBAS EXP. 2011-00246	S	Feb  3 2011  1:55:25:546PM	N	N
0000007584	0000001023		T000000009	C	Feb  3 2011  1:59:58:816PM	SUBSA EXP. 2010-03705	S	Feb  3 2011  2:03:36:116PM	N	N
0000007585	0000001022		T000000009	C	Feb  3 2011  2:11:28:946PM	NOTIFICACIÓN RENUNCIA EXP. 2010-02449	S	Feb  4 2011  9:46:10:153AM	N	N
0000007586	0000001023		T000000009	C	Feb  4 2011  2:10:22:666PM	SUBSA EXP. 2011-00251	S	Feb  7 2011  8:21:50:893AM	N	N
0000007587	0000001023		T000000009	C	Feb  4 2011  2:25:02:810PM	VISARED EXP. 2011-00278	S	Feb  7 2011  8:21:52:953AM	N	N
0000007588	0000001023		T000000009	C	Feb  7 2011  2:24:25:540PM	MODIFICADO EXP. 2010-01988	S	Feb  8 2011  8:00:10:573AM	N	N
0000007589	0000001023		T000000009	C	Feb  8 2011  9:19:08:666AM	SUBSA EXP. 2010-01988	S	Feb  8 2011 10:10:12:896AM	N	N
0000007590	0000001023		T000000009	C	Feb  8 2011  9:29:09:656AM	VISRED EXP. 2010-03764	S	Feb  8 2011 10:10:15:413AM	N	N
0000007591	0000001023		T000000009	C	Feb 10 2011  3:00:14:380PM	VISARED EXP. 2011-00328	S	Feb 11 2011  8:03:05:786AM	N	N
0000007592	0000001023		T000000009	C	Feb 11 2011  9:46:46:546AM	VISARED EXP. 2011-00332	S	Feb 11 2011 10:13:13:270AM	N	N
0000007593	0000001023		T000000009	C	Feb 14 2011 10:31:25:393AM	VISARED EXP. 2011-00334	S	Feb 15 2011  8:43:59:980AM	N	N
0000007594	0000001023		T000000009	C	Feb 14 2011 10:33:52:906AM	SUBSA EXP. 2011-00328	S	Feb 15 2011  8:44:02:073AM	N	N
0000007595	0000001023		T000000009	C	Feb 15 2011  1:18:26:003PM	VISARED EXP. 2011-00359	S	Feb 16 2011 11:17:21:796AM	N	N
0000007596	0000001023		T000000009	C	Feb 15 2011  1:30:53:366PM	VISRED EXP. 2011-00362	S	Feb 16 2011 11:17:23:953AM	N	N
0000007597	0000001023		T000000009	C	Feb 15 2011  1:31:16:350PM	VISARED EXP. 2011-00360	S	Feb 16 2011 11:17:26:093AM	N	N
0000007598	0000001023		T000000009	C	Feb 15 2011  1:45:53:426PM	VISARED EXP. 2011-00363	S	Feb 16 2011 11:17:12:970AM	N	N
0000007599	0000001023		T000000009	C	Feb 15 2011  1:53:10:583PM	VISARED EXP. 2011-00364	S	Feb 16 2011 11:17:15:470AM	N	N
0000007600	0000001023		T000000009	C	Feb 15 2011  2:02:08:246PM	VISARED EXP. 2011-00365	S	Feb 16 2011 11:17:17:500AM	N	N
0000007601	0000001023		T000000009	C	Feb 17 2011 11:47:27:593AM	SUBSA EXP. 2011-00334	S	Feb 17 2011 12:25:19:806PM	N	N
0000007602	0000001023		T000000009	C	Feb 17 2011 11:49:23:700AM	SUBSA EXP. 2011-00359	S	Feb 17 2011 12:25:22:196PM	N	N
0000007603	0000001023		T000000009	C	Feb 17 2011 11:51:37:716AM	SUBAS EXP. 2011-00362	S	Feb 17 2011 12:25:24:383PM	N	N
0000007604	0000001023		T000000009	C	Feb 17 2011 11:55:42:616AM	SUBSA EXP. 2011-00360	S	Feb 17 2011 12:25:26:773PM	N	N
0000007605	0000001023		T000000009	C	Feb 22 2011 11:22:21:116AM	VISARED EXP. 2011-00419	S	Feb 23 2011  9:07:22:663AM	N	N
0000007606	0000001023		T000000009	C	Feb 22 2011 11:28:48:300AM	VISARED EXP. 2011-00421	S	Feb 23 2011  9:07:26:130AM	N	N
0000007607	0000001023		T000000009	C	Feb 22 2011 11:37:32:890AM	VISARED EXP. 2011-00422	S	Feb 23 2011  9:07:28:286AM	N	N
0000007608	0000001023		T000000009	C	Feb 23 2011 12:02:04:516PM	ANEXO PRES. EXP. 2011-00334	S	Feb 23 2011 12:25:23:730PM	N	N
0000007609	0000001010		T000000009	C	Feb 23 2011 12:37:34:243PM	RESC. EXP. 2011-00014-VISARED.	S	Feb 23 2011 12:42:24:880PM	N	N
0000007610	0000001023		T000000009	C	Feb 23 2011  1:03:42:766PM	VISARD EXPL 2011-00441	S	Feb 23 2011  1:10:09:640PM	N	N
0000007611	0000001023	ANA NO VISAR PENDIENTE DE LA RESPUESTA DEL TECNICO ANTERIOR CON REF, 2011-00102	0000001010	C	Feb 23 2011  2:19:49:466PM	EXPEDIENTE VISARED 2011-00851	S	Feb 24 2011  9:39:39:123AM	N	N
0000007612	0000001023		T000000009	C	Feb 24 2011  8:34:26:976AM	MODIFICADO EXP. 2009-03375	S	Feb 24 2011  9:40:14:513AM	N	N
0000007613	0000001023		T000000009	C	Feb 25 2011 10:05:34:736AM	SUBAS EXP. 2010-03764	S	Feb 25 2011 12:08:35:713PM	N	N
0000007615	0000001023		T000000009	C	Feb 28 2011  8:25:31:470AM	MODIFICDO-VISARED EXP. 2011-00165	S	Feb 28 2011  9:11:17:733AM	N	N
0000007614	0000001023		T000000009	C	Feb 25 2011  2:22:35:250PM	SUBSA EXP. 2011-00441	S	Feb 28 2011  9:11:04:950AM	N	N
0000007616	0000001012		T000000009	C	Feb 28 2011  1:34:44:346PM	SUBSA EXP. 2011-00419	N		S	N
0000007617	0000001023		T000000009	C	Feb 28 2011  1:34:44:346PM	SUBSA EXP. 2011-00419	S	Mar  1 2011 12:25:35:763PM	N	N
0000007618	0000001023		T000000009	C	Mar  1 2011 11:13:27:906AM	VISARED EXP. 2011-00493	S	Mar  1 2011 12:27:17:170PM	N	N
0000007619	0000001023		T000000009	C	Mar  2 2011  8:01:58:896AM	VISARED EXP. 2011-00496	S	Mar  2 2011 10:21:11:020AM	N	N
0000007620	0000001023		T000000009	C	Mar  2 2011 12:19:51:396PM	SUBSA EXP. 2011-00419	S	Mar  2 2011 12:42:40:000PM	N	N
0000007621	0000001023		T000000009	C	Mar  4 2011  7:32:52:286AM	VISARED EXP. 2011-00517	S	Mar  9 2011  8:40:22:706AM	N	N
0000007622	0000001023		T000000009	C	Mar  4 2011 12:56:33:353PM	SUBSA EXP. 2010-03764	S	Mar  9 2011  8:40:24:923AM	N	N
0000007623	0000001023		T000000009	C	Mar  9 2011  7:57:42:210AM	VISARED EXP. 2011-00537	S	Mar  9 2011  8:40:27:110AM	N	N
0000007624	0000001023		T000000009	C	Mar 10 2011 10:37:13:546AM	VISARED EXP. 2011-00551	S	Mar 10 2011 11:28:16:330AM	N	N
0000007625	0000001023		T000000009	C	Mar 11 2011  9:20:33:326AM	VISARED EXP. 2011-00562	S	Mar 11 2011 10:56:09:176AM	N	N
0000007626	0000001023		T000000009	C	Mar 14 2011  9:26:28:043AM	VISARED EXP. 2011-00577	S	Mar 14 2011  9:41:16:300AM	N	N
0000007627	0000001023		T000000009	C	Mar 14 2011  9:33:34:036AM	VISARED EXP. 2011-00578	S	Mar 14 2011  9:41:18:626AM	N	N
0000007628	0000001023		T000000009	C	Mar 14 2011  9:39:16:243AM	VISARED EXP. 2011-00580	S	Mar 14 2011  9:41:20:893AM	N	N
0000007629	0000001023		T000000009	C	Mar 14 2011  9:45:50:893AM	VISARED EXP. 2011-00582	S	Mar 14 2011  9:48:08:516AM	N	N
0000007630	0000001023		T000000009	C	Mar 16 2011  1:06:38:870PM	VISARED EXP. 2011-00623	S	Mar 16 2011  1:22:12:900PM	N	N
0000007631	0000001023	hoy se vence el plazo para que el técnico anterior de respuesta, y no da señales de vida 	0000001010	C	Mar 17 2011  9:11:09:413AM	EXPEDIENTE 2011-00014 DE RESCISION	S	Mar 17 2011  9:39:06:123AM	N	N
0000007632	0000001023		T000000009	C	Mar 18 2011  8:51:17:213AM	VISARED EXP. 2011-00636	S	Mar 18 2011 11:59:17:166AM	N	N
0000007633	0000001023		T000000009	C	Mar 18 2011  1:26:00:823PM	SUBSA EXP. 2011-00636	S	Mar 18 2011  1:51:13:626PM	N	N
0000007634	0000001023		0000001014	C	Mar 22 2011  8:54:16:336AM	2011-01244	S	Mar 22 2011  8:55:50:323AM	N	N
0000007635	0000001023		0000001014	C	Mar 22 2011  9:05:16:903AM	2011-01246	S	Mar 22 2011  9:15:42:593AM	N	N
0000007636	0000001023		T000000009	C	Mar 28 2011 11:04:31:346AM	VISARED EXP. 2006-04407	S	Mar 28 2011 11:22:47:956AM	N	N
0000007637	0000001023		T000000009	C	Mar 29 2011 10:54:03:293AM	VISARED EXP. 2011-00712	S	Mar 29 2011 11:22:29:940AM	N	N
0000007638	0000001023		T000000009	C	Mar 29 2011 12:34:57:790PM	VISARED EXP. 2010-02618	S	Mar 29 2011 12:57:01:926PM	N	N
0000007639	0000001023		T000000009	C	Mar 30 2011 10:00:25:120AM	SUBASA EXP. 2010-02618	S	Mar 30 2011 11:48:51:400AM	N	N
0000007640	0000001023		T000000009	C	Apr  1 2011  1:48:09:850PM	SUBSA EXP. 2009-01211	S	Apr  1 2011  1:58:06:003PM	N	N
0000007641	0000001023		T000000009	C	Apr  1 2011  2:03:01:323PM	VISARED EXP.  2011-00766	S	Apr  4 2011  8:07:03:883AM	N	N
0000007642	0000001023		T000000009	C	Apr  4 2011 11:12:36:346AM	SUBSA EXP. 2011-00766	S	Apr  4 2011 12:48:18:830PM	N	N
0000007643	0000001023		T000000009	C	Apr  4 2011 11:27:13:350AM	VISARED EXP. 2011-00653	S	Apr  4 2011 12:48:20:890PM	N	N
0000007644	0000001023		T000000009	C	Apr  5 2011  7:33:12:470AM	SUBSA EXP. 2011-00766	S	Apr  5 2011  9:06:11:476AM	N	N
0000007645	0000001023		T000000009	C	Apr  5 2011  7:43:06:373AM	VISARED EXP. 2010-03593	S	Apr  5 2011  9:06:14:260AM	N	N
0000007646	0000001023		T000000009	C	Apr  6 2011  8:39:16:420AM	VISARED EXP. 2011-00805	S	Apr  6 2011  8:43:26:303AM	N	N
0000007647	0000001023		T000000009	C	Apr  6 2011  9:20:16:073AM	VISARED EXP. 2011-00806	S	Apr  6 2011  9:47:07:546AM	N	N
0000007648	0000001023		T000000009	C	Apr  6 2011  9:44:38:290AM	SUBSA EXP. 2010-03593	S	Apr  6 2011  9:47:36:466AM	N	N
0000007649	0000001023		T000000009	C	Apr  6 2011  9:55:40:580AM	SUBSA EXP. 2011-00805	S	Apr  6 2011 10:12:59:420AM	N	N
0000007650	0000001023		T000000009	C	Apr  6 2011 10:22:07:016AM	VISARED EXP. 2011-00808	S	Apr  6 2011 11:07:19:873AM	N	N
0000007651	0000001023		T000000009	C	Apr  7 2011 12:58:35:770PM	SUBSA EXP. 2010-03593	S	Apr  7 2011  2:16:07:706PM	N	N
0000007652	0000001023		T000000009	C	Apr  8 2011  9:07:18:140AM	VISARED EXP. 2011-00825	S	Apr  8 2011 10:18:49:316AM	N	N
0000007653	0000001023		T000000009	C	Apr  8 2011 10:03:51:273AM	SUBSA EXP. 2011-00766	S	Apr  8 2011 10:18:51:333AM	N	N
0000007655	0000001023		T000000009	C	Apr 14 2011 10:02:45:626AM	MODIFICADO EXP. 2011-00191	S	Apr 14 2011 10:15:54:313AM	N	N
0000007656	0000001023		T000000009	C	Apr 14 2011 10:26:18:053AM	SUBSA EXP. 2011-00806	S	Apr 14 2011 11:19:05:316AM	N	N
0000007657	0000001023		T000000009	C	Apr 14 2011 12:35:27:323PM	SUBSA EXP. 2011-00825	S	Apr 14 2011  2:10:28:080PM	N	N
0000007658	0000001023		T000000009	C	Apr 15 2011 10:39:24:123AM	VISARED EXP. 2008-04062	S	Apr 15 2011 12:37:20:106PM	N	N
0000007659	0000001023		T000000009	C	Apr 15 2011 10:56:40:506AM	VISARED EXP. 2010-03229	S	Apr 15 2011 12:37:22:296PM	N	N
0000007660	0000001023		T000000009	C	Apr 18 2011 11:21:26:930AM	VISARED EXP. 2011-00921	S	Apr 18 2011 11:24:01:026AM	N	N
0000007661	0000001023		T000000009	C	Apr 18 2011 11:30:30:490AM	VISARED EXP. 2011-00922	S	Apr 18 2011  1:11:09:000PM	N	N
0000007662	0000001023		T000000009	C	Apr 19 2011 12:46:58:513PM	VISARED EXP. 2011-00938	S	Apr 19 2011  1:03:32:986PM	N	N
0000007663	0000001023		T000000009	C	Apr 19 2011  1:01:23:586PM	VISARED EXP. 2011-00939	S	Apr 19 2011  1:03:35:066PM	N	N
0000007664	0000001023		T000000009	C	Apr 20 2011 11:15:42:743AM	SUBSA EXP. 2011-00938	S	Apr 25 2011  8:37:43:616AM	N	N
0000007665	0000001023		T000000009	C	Apr 20 2011 11:19:20:850AM	SUBSA EXP. 2011-00921	S	Apr 25 2011  8:37:46:583AM	N	N
0000007666	0000001023		T000000009	C	Apr 25 2011 10:12:15:673AM	EXP. 2010-03764	S	Apr 25 2011 11:43:02:200AM	N	N
0000007667	0000001023		T000000009	C	Apr 25 2011 10:42:39:940AM	EXP. VISARED 2010-03764	S	Apr 25 2011 11:43:04:416AM	N	N
0000007668	T000000001		T000000009	C	Apr 25 2011 10:48:09:220AM	SUBSA EXP. 2011-00654	S	Apr 25 2011 11:54:53:733AM	N	N
0000007669	0000001023		T000000009	C	Apr 25 2011 11:32:31:006AM	EXP. SUBSA 2010-03764	S	Apr 25 2011 11:43:07:480AM	N	N
0000007670	0000001023		T000000009	C	Apr 25 2011 11:33:00:336AM	EXP. VISARED 2010-03764	S	Apr 25 2011 11:43:09:760AM	N	N
0000007671	0000001023		T000000009	C	Apr 25 2011 11:43:56:996AM	VISARED EXP. 2011-00772	S	Apr 25 2011 11:55:34:796AM	N	N
0000007672	0000001023		T000000009	C	Apr 27 2011  2:48:55:133PM	VISARED EXP. 2011-00987	S	Apr 28 2011  9:15:13:333AM	N	N
0000007673	0000001023		T000000009	C	Apr 27 2011  2:55:47:736PM	VISARED EXP. 2011-00988	S	Apr 28 2011  9:15:15:490AM	N	N
0000007674	0000001023		T000000009	C	Apr 28 2011  9:10:02:346AM	VISARED EXP. 2011-00992	S	Apr 28 2011  9:15:17:473AM	N	N
0000007675	0000001023		T000000009	C	Apr 29 2011  9:24:44:500AM	SUBSA EXP. 2011-00992	S	Apr 29 2011  9:48:52:606AM	N	N
0000007676	0000001023		T000000009	C	Apr 29 2011  9:38:31:376AM	VISARED EXP. 2011-01007	S	Apr 29 2011  9:49:18:793AM	N	N
0000007677	0000001023		T000000009	C	Apr 29 2011  9:50:08:780AM	VISARED EXP. 2011-01008	S	Apr 29 2011 10:49:23:630AM	N	N
0000007678	0000001023		T000000009	C	Apr 29 2011 12:23:40:790PM	SUBSA EXP. 2011-00654	S	Apr 29 2011  1:33:44:066PM	N	N
0000007679	0000001023		T000000009	C	Apr 29 2011  2:19:45:993PM	VISARED EXP. 2011-00654, EXP. DE ALBERTO.	S	May  2 2011  8:14:16:490AM	N	N
0000007680	0000001023		0000001014	C	May  4 2011 10:31:02:300AM	2011-01967	S	May  4 2011  1:20:46:140PM	N	N
0000007681	0000001023		0000001014	C	May  4 2011 10:53:41:573AM	2011-01970	S	May  4 2011  1:20:48:186PM	N	N
0000007682	0000001023		0000001014	C	May  4 2011 11:01:49:570AM	2011-01972	S	May  4 2011  1:20:50:216PM	N	N
0000007683	0000001023		0000001014	C	May  4 2011  1:12:33:070PM	2011-01984	S	May  4 2011  1:20:52:216PM	N	N
0000007684	0000001023		0000001014	C	May  4 2011  1:22:28:750PM	2011-01985	S	May  4 2011  1:39:46:696PM	N	N
0000007685	0000001023	HOJA DE SOLICITUD ANTERIOR.
REDAP.	0000001014	C	May  5 2011  8:28:32:623AM	2011-01986	S	May  5 2011  8:45:15:053AM	N	N
0000007686	0000001023	ACLARAR PORCENTAJES DE CADA COLEGIADO	0000001014	C	May  5 2011 11:36:36:946AM	2011-01994	S	May  5 2011  1:06:34:440PM	N	N
0000007687	0000001023	PORCENTAJES COLEGIADOS	0000001014	C	May  5 2011 11:53:44:613AM	2011-01996	S	May  5 2011  1:06:36:706PM	N	N
0000007688	0000001023	PORCENTAJES	0000001014	C	May  5 2011 12:02:04:183PM	2011-01997	S	May  5 2011  1:06:39:050PM	N	N
0000007690	0000001023	PORCENTAJES	0000001014	C	May  5 2011 12:05:37:460PM	2011-01998	S	May  5 2011  1:06:40:893PM	N	N
0000007691	0000001023		0000001014	C	May  6 2011  9:55:19:680AM	2011-01986	S	May  6 2011 10:31:50:446AM	N	N
0000007692	0000001023		0000001014	C	May  6 2011  1:58:59:780PM	2011-02023	S	May  9 2011 10:37:24:610AM	N	N
0000007693	0000001023		0000001014	C	May  6 2011  2:06:35:820PM	2011-01994 SUBSANADO - D.O.	S	May  9 2011 10:37:27:593AM	N	N
0000007694	0000001023		0000001014	C	May  6 2011  2:11:56:566PM	2011-01996 SUBSANADO - COORDINACION	S	May  9 2011 10:37:29:780AM	N	N
0000007695	0000001023		0000001014	C	May  6 2011  2:23:04:190PM	2011-01997 SUBSANADO COORD.	S	May  9 2011 10:37:31:826AM	N	N
0000007696	0000001023		0000001014	C	May  6 2011  2:23:23:176PM	2011-01998 SUBSANADO - D.O	S	May  9 2011 10:37:34:186AM	N	N
0000007697	0000001023		0000001014	C	May  9 2011 10:36:30:923AM	2011-02034	S	May  9 2011 10:37:39:030AM	N	N
0000007699	0000001023		0000001014	C	May  9 2011  1:53:30:420PM	2011-02043	S	May 10 2011  8:27:29:476AM	N	N
0000007700	0000001023	FALTA FIRMA PROPIEDAD PARA VOLUNTARIO	0000001014	C	May  9 2011  2:11:28:276PM	2011-02045	S	May 10 2011  8:27:32:160AM	N	N
0000007701	0000001023	LA HOJA DE SOLICITUD ES LA ANTERIOR	0000001014	C	May 11 2011  9:56:35:093AM	2011-02080	S	May 12 2011  9:05:11:353AM	N	N
0000007702	0000001023	PORCENTAJE DEL COLEGIADO	0000001014	C	May 11 2011 10:30:29:646AM	2011-02084	S	May 12 2011  9:05:13:603AM	N	N
0000007703	0000001023		0000001014	C	May 11 2011 10:37:12:946AM	2011-02085	S	May 12 2011  9:05:15:650AM	N	N
0000007704	0000001023	NUEVA HOJA DE SOLICITUD	0000001014	C	May 11 2011 10:49:05:350AM	2011-02043	S	May 12 2011  9:05:19:870AM	N	N
0000007705	0000001023		0000001014	C	May 12 2011  9:14:57:580AM	2011-02108	S	May 12 2011 12:34:15:570PM	N	N
0000007706	0000001023		T000000009	C	May 16 2011  9:00:29:873AM	VISARED EXP. 2011-01103	S	May 16 2011  9:16:26:083AM	N	N
0000007707	0000001023		T000000009	C	May 16 2011  9:58:42:043AM	SUBSA EXP. 2011-01091	S	May 16 2011 11:20:58:893AM	N	N
0000007708	0000001023		T000000009	C	May 16 2011 10:25:32:310AM	VISARED EXP. 2011-01127	S	May 16 2011 11:21:01:613AM	N	N
0000007709	0000001023		T000000009	C	May 16 2011 10:34:49:840AM	VISARED EXP. 2011-01129	S	May 16 2011 11:21:03:846AM	N	N
0000007710	0000001023		T000000009	C	May 16 2011 10:42:01:273AM	VISARED EXP. 2011-01130	S	May 16 2011 11:21:05:800AM	N	N
0000007711	0000001023		T000000009	C	May 16 2011 10:49:23:023AM	VISARED EXP. 2011-01131	S	May 16 2011 11:21:07:846AM	N	N
0000007712	0000001023		T000000009	C	May 20 2011 12:26:32:453PM	SUBSA EXP. 2011-01127	S	May 20 2011  1:01:49:660PM	N	N
0000007713	0000001012		T000000009	C	May 20 2011 12:35:47:696PM	VISARED EXP. 2011-01185	N		S	N
0000007714	0000001023		T000000009	C	May 20 2011 12:35:47:696PM	VISARED EXP. 2011-01185	S	May 20 2011  1:01:52:736PM	N	N
0000007715	0000001023		T000000009	C	May 23 2011  9:41:29:523AM	SUBSA EXP. 2011-01127	S	May 23 2011 10:33:24:850AM	N	N
0000007716	0000001023		T000000009	C	May 23 2011  9:49:23:830AM	VISARED EXP. 2011-01192	S	May 23 2011 10:33:27:460AM	N	N
0000007717	0000001023		T000000009	C	May 23 2011 10:01:36:003AM	VISARED EXP. 2011-01194	S	May 23 2011 10:33:29:553AM	N	N
0000007718	0000001023		T000000009	C	May 23 2011  1:39:25:630PM	VISARAED EXP. 2011-01204	S	May 23 2011  1:48:43:883PM	N	N
0000007719	0000001023		T000000009	C	May 24 2011  2:30:18:593PM	VISARED EXP. 2011-01224	S	May 25 2011  8:48:02:260AM	N	N
0000007720	0000001023		T000000009	C	May 24 2011  2:36:05:400PM	SUBSA EXP. 2011-01185	S	May 25 2011  8:48:05:136AM	N	N
0000007721	0000001023		T000000009	C	May 25 2011  1:11:20:436PM	VISARED EXP. 2011-01242	S	May 25 2011  1:14:14:810PM	N	N
0000007722	0000001023		T000000009	C	Jun  1 2011 11:32:29:010AM	VISARED EXP. 2011-01276	S	Jun  1 2011 11:44:36:720AM	N	N
0000007723	0000001023		T000000009	C	Jun  2 2011  9:20:18:326AM	VISARED EXP. 2011-01278	S	Jun  2 2011  9:32:08:143AM	N	N
0000007724	0000001023		T000000009	C	Jun  2 2011  9:40:17:103AM	VISARED EXP. 2011-01093	S	Jun  2 2011  9:51:39:193AM	N	N
0000007725	0000001023		T000000009	C	Jun  2 2011 10:23:58:733AM	VISAREC EXP. 2011-01281	S	Jun  2 2011 12:07:38:473PM	N	N
0000007726	0000001023		T000000009	C	Jun  2 2011 10:36:10:196AM	VISARED EXP. 2011-01282	S	Jun  2 2011 12:07:40:863PM	N	N
0000007727	0000001023		T000000009	C	Jun  2 2011 10:56:14:443AM	VISARED EXP. 2011-01283	S	Jun  2 2011 12:07:42:973PM	N	N
0000007728	0000001023		T000000009	C	Jun  2 2011 11:25:58:776AM	VISARED EXP. 2011-01284	S	Jun  2 2011 12:07:45:256PM	N	N
0000007729	0000001023		T000000009	C	Jun  2 2011  2:03:16:300PM	SUBSA EXP. 2011-01279	S	Jun  3 2011  8:57:55:406AM	N	N
0000007730	0000001023		T000000009	C	Jun  2 2011  2:05:32:313PM	SUBSA EXP. 2011-01278	S	Jun  3 2011  8:57:57:393AM	N	N
0000007731	0000001023		T000000009	C	Jun  3 2011 10:52:32:883AM	VISARED EXP. 2011-01295	S	Jun  3 2011 12:35:04:696PM	N	N
0000007732	0000001023		T000000009	C	Jun  6 2011 12:26:53:823PM	SUBSA EXP. 2011-01282	S	Jun  6 2011 12:37:12:096PM	N	N
0000007733	0000001023		T000000009	C	Jun  6 2011 12:55:07:946PM	SUBSA EXP. 2011-01283	S	Jun  6 2011 12:59:36:960PM	N	N
0000007734	0000001023		T000000009	C	Jun  7 2011  2:42:14:603PM	SUBSA EXP. 2011-01093	S	Jun  8 2011  8:14:37:073AM	N	N
0000007735	0000001023		T000000009	C	Jun  9 2011 12:14:20:630PM	VISARED EXP. 2011-01346	S	Jun  9 2011 12:34:10:403PM	N	N
0000007736	0000001023		T000000009	C	Jun  9 2011 12:26:17:916PM	VISARED EXP. 2011-01347	S	Jun  9 2011 12:34:12:513PM	N	N
0000007737	0000001023		T000000009	C	Jun  9 2011 12:38:34:106PM	MODIFICADO EXP. 2011-00060	S	Jun  9 2011  1:07:03:396PM	N	N
0000007738	0000001023		T000000009	C	Jun  9 2011 12:49:31:183PM	VISARED EXP. 2011-00019	S	Jun  9 2011  1:07:05:740PM	N	N
0000007739	0000001023		T000000009	C	Jun 10 2011  9:14:45:676AM	VISARED EXP. 2011-01354	S	Jun 10 2011  9:56:04:383AM	N	N
0000007740	0000001023		T000000009	C	Jun 10 2011  9:58:16:083AM	VISARED EXP. 2011-01356	S	Jun 10 2011 10:39:14:213AM	N	N
0000007741	0000001023		T000000009	C	Jun 13 2011 11:55:45:636AM	SUBSA EXP. 2011-01224	S	Jun 13 2011 12:05:28:356PM	N	N
0000007742	0000001023		T000000009	C	Jun 13 2011 12:55:00:166PM	SUBSA EXP. 2011-00060	S	Jun 13 2011  1:08:52:490PM	N	N
0000007743	0000001023		T000000009	C	Jun 14 2011  1:40:12:206PM	VISARED EXP. 2011-01384	S	Jun 14 2011  1:51:35:083PM	N	N
0000007744	0000001023		T000000009	C	Jun 15 2011  1:44:06:156PM	VISARED EXP. 2011-01394	S	Jun 15 2011  1:52:43:956PM	N	N
0000007745	0000001023		T000000009	C	Jun 16 2011  8:21:54:663AM	SUBSA EXP. 2011-01354	S	Jun 16 2011  8:37:37:963AM	N	N
0000007746	0000001023		T000000009	C	Jun 16 2011  9:45:02:300AM	MODIFICADO EXP. 2011-01091	S	Jun 16 2011  9:46:20:966AM	N	N
0000007747	0000001023		T000000009	C	Jun 16 2011 10:03:06:506AM	MODIFICADO EXP. 2011-01127	S	Jun 16 2011 12:44:43:943PM	N	N
0000007748	0000001023		T000000009	C	Jun 22 2011  7:50:06:046AM	SUBSA EXP 2011-00478	S	Jun 22 2011  9:54:02:726AM	N	N
0000007749	0000001023		T000000009	C	Jun 27 2011 10:38:31:310AM	MODIFICADO EXP. 2011-01394	S	Jun 27 2011 11:31:48:053AM	N	N
0000007750	0000001023		T000000009	C	Jun 28 2011  8:29:24:213AM	VISARED EXP. 2011-01469	S	Jun 28 2011  8:39:27:170AM	N	N
0000007751	0000001023		T000000009	C	Jun 28 2011  9:00:43:066AM	VISARED EXP. 2011-01470	S	Jun 28 2011  9:20:13:163AM	N	N
0000007753	0000001023		T000000009	C	Jun 28 2011  1:32:36:916PM	VISARED EXP. 2011-01481	S	Jun 29 2011  7:48:10:840AM	N	N
0000007754	0000001023		T000000009	C	Jun 29 2011 12:58:25:033PM	SUBSA EXP. 2011-01354	S	Jun 29 2011  1:47:56:026PM	N	N
0000007755	0000001023		T000000009	C	Jun 29 2011  1:13:45:260PM	VISARED EXP. 2011-01487	S	Jun 29 2011  1:47:58:293PM	N	N
0000007756	0000001023		T000000009	C	Jun 29 2011  1:33:40:570PM	VISARED EXP. 2011-01488	S	Jun 29 2011  1:48:00:276PM	N	N
0000007757	0000001023		T000000009	C	Jun 29 2011  1:52:28:210PM	VISARED EXP. 2011-01489	S	Jun 29 2011  2:05:08:560PM	N	N
0000007758	0000001023		T000000009	C	Jun 29 2011  2:07:05:173PM	SUBSA EXP. 2011-01469	S	Jun 30 2011  8:52:04:930AM	N	N
0000007759	0000001023		T000000009	C	Jun 30 2011  8:21:56:590AM	VISARED EXP. 2009-04038	S	Jun 30 2011  8:52:07:553AM	N	N
0000007760	0000001023		T000000009	C	Jun 30 2011  1:17:57:223PM	SUBSA EXP. 2009-04038	S	Jun 30 2011  1:37:46:056PM	N	N
0000007761	0000001023		T000000009	C	Jun 30 2011  1:31:19:856PM	VISARED EXP. 2011-01499	S	Jun 30 2011  1:37:48:320PM	N	N
0000007762	0000001023		T000000009	C	Jun 30 2011  1:54:47:193PM	VISARED EXP. 2011-01500	S	Jul  1 2011 10:46:29:586AM	N	N
0000007763	0000001023		T000000009	C	Jun 30 2011  1:55:17:036PM	VISARED EXP. 2011-01501	S	Jul  1 2011 10:46:31:680AM	N	N
0000007764	0000001023		T000000009	C	Jul  7 2011  9:02:37:916AM	VISARED EXP. 2011-01545	S	Jul  7 2011 10:24:15:880AM	N	N
0000007765	0000001023		T000000009	C	Jul  7 2011  9:13:07:286AM	VISARED EXP. 2011-01546	S	Jul  7 2011 10:24:37:723AM	N	N
0000007766	0000001023		T000000009	C	Jul  8 2011  1:02:44:633PM	VISARED EXP. 2011-01310	S	Jul  8 2011  1:20:01:730PM	N	N
0000007767	0000001023		T000000009	C	Jul  8 2011  1:25:27:626PM	VISARED EXP. 2011-01564	S	Jul 11 2011  8:09:50:890AM	N	N
0000007768	0000001023		T000000009	C	Jul  8 2011  1:33:23:593PM	VISARED EXP. 2011-01565	S	Jul 11 2011  8:09:53:056AM	N	N
0000007769	0000001010		T000000009	C	Jul  8 2011  1:41:57:813PM	VISARED RESC. EXP. 2011-01310	S	Jul 11 2011  8:43:39:930AM	N	N
0000007770	0000001023		T000000009	C	Jul  8 2011  1:46:17:496PM	SUBSA EXP. 2011-01488	S	Jul 11 2011  8:09:55:270AM	N	N
0000007771	0000001023		T000000009	C	Jul  8 2011  1:57:45:770PM	SUBSA EXP. 2011-01545	S	Jul 11 2011  8:09:57:363AM	N	N
0000007772	0000001023		T000000009	C	Jul 11 2011  8:59:01:826AM	SUBSA EXP. 2011-01310	S	Jul 11 2011  9:18:14:960AM	N	N
0000007773	0000001023		T000000009	C	Jul 11 2011  9:05:52:560AM	SUBSA EXP. 2011-01489	S	Jul 11 2011  9:18:17:103AM	N	N
0000007774	0000001023		T000000009	C	Jul 11 2011  9:07:16:203AM	SUBSA EXP. 2011-01488	S	Jul 11 2011  9:18:19:040AM	N	N
0000007775	0000001023		T000000009	C	Jul 11 2011  9:20:29:376AM	VISARED EXP. 2011-01566	S	Jul 11 2011  9:35:44:840AM	N	N
0000007776	0000001023		T000000009	C	Jul 11 2011  9:42:05:743AM	VISARED EXP. 2011-01567	S	Jul 11 2011 10:45:45:303AM	N	N
0000007777	0000001023		T000000009	C	Jul 11 2011  1:21:51:076PM	SUBSA EXP. 2011-01565	S	Jul 12 2011  9:06:37:690AM	N	N
0000007778	T000000009		0000001023	C	Jul 12 2011 12:57:27:366PM	SUBSA PRUEBA	S	Jul 12 2011  1:02:24:946PM	N	N
0000007779	T000000009		0000001023	C	Jul 12 2011  1:14:55:673PM	SUBSANADO EXP. 2011-01566 SE TRATA COMO REDAP	S	Jul 12 2011  1:33:25:296PM	N	N
0000007781	0000001023		T000000009	C	Jul 13 2011  1:28:54:086PM	VISARED EXP. 2011-01594	S	Jul 14 2011  8:00:41:500AM	N	N
0000007782	0000001023		T000000009	C	Jul 13 2011  1:51:25:683PM	VISARED EXP. 2011-01433	S	Jul 14 2011  8:00:52:436AM	N	N
0000007783	0000001023		T000000009	C	Jul 14 2011 12:31:05:213PM	VISARED EXP. 2011-01603	S	Jul 14 2011 12:37:46:423PM	N	N
0000007784	0000001023		T000000009	C	Jul 14 2011  1:14:47:800PM	SUBSA EXP. 2011-01564	S	Jul 14 2011  1:15:25:180PM	N	N
0000007785	0000001023		T000000009	C	Jul 14 2011  1:21:46:266PM	SUBSA EXP. 2011-01594	S	Jul 14 2011  1:31:26:460PM	N	N
0000007787	0000001023		T000000009	C	Jul 15 2011 10:34:54:410AM	MODIFICADO EXP. 2011-01394	S	Jul 26 2011  9:11:52:630AM	N	N
0000007788	T000000012		T000000009	C	Jul 21 2011  1:32:40:626PM	SUBSA EXP. 2011-01594	S	Jul 26 2011  9:06:13:906AM	N	N
0000007789	0000001023		T000000009	C	Jul 25 2011  1:46:36:363PM	VISARED EXP. 2011-01679	S	Jul 26 2011  9:11:54:836AM	N	N
0000007790	0000001023		T000000009	C	Jul 26 2011  9:03:14:693AM	VISARED EXP. 2011-01680	S	Jul 26 2011  9:11:56:903AM	N	N
0000007791	0000001023		T000000009	C	Jul 26 2011  9:18:51:536AM	VISARED EXP. 2011-01681	S	Jul 26 2011 12:13:36:366PM	N	N
0000007792	0000001023		T000000009	C	Jul 26 2011  1:30:24:910PM	VISARED PLANO EXP.2011-01394 REF. 2011-03103	S	Jul 27 2011 11:26:49:040AM	N	N
0000007793	0000001023		T000000009	C	Jul 27 2011  8:07:14:346AM	SUBSA EXP. 2011-01679	S	Jul 27 2011 11:26:51:650AM	N	N
0000007794	0000001023		T000000009	C	Jul 27 2011  8:15:48:843AM	SUBSA EXP. 2011-01680	S	Jul 27 2011 11:26:53:883AM	N	N
0000007795	0000001023		T000000009	C	Jul 28 2011  9:02:15:503AM	VISARED EXP. 2011-01696	S	Jul 28 2011  9:26:50:980AM	N	N
0000007796	0000001023		T000000009	C	Jul 29 2011  7:45:32:826AM	SUBSA EXP. 2011-01695	S	Jul 29 2011  8:09:50:180AM	N	N
0000007797	0000001023		T000000009	C	Aug  1 2011  1:54:22:236PM	VISARED EXP.  2011-01733	S	Aug  2 2011  8:16:24:356AM	N	N
0000007798	0000001023		T000000009	C	Aug  3 2011  8:55:58:143AM	VISARED EXP. 2011-01741	S	Aug  3 2011  9:50:46:523AM	N	N
0000007799	0000001023		T000000009	C	Aug  3 2011  9:03:18:926AM	VISARED EXP. 2011-01742	S	Aug  3 2011  9:50:48:710AM	N	N
0000007800	0000001023		T000000009	C	Aug  5 2011  9:05:05:050AM	SUBSA EXP. 2011-01741	S	Aug  5 2011 10:47:32:553AM	N	N
0000007801	0000001023		T000000009	C	Aug  8 2011  8:10:29:346AM	SUBSA EXP. 2011-01433	S	Aug  8 2011  8:25:24:936AM	N	N
0000007802	0000001023		T000000009	C	Aug  8 2011  9:23:25:630AM	VISARED EXP. 2011-01771	S	Aug  8 2011  9:33:09:650AM	N	N
0000007803	0000001023		T000000009	C	Aug  9 2011  9:44:54:086AM	VISARED EXP. 2011-01785	S	Aug  9 2011 11:05:37:820AM	N	N
0000007804	0000001023		T000000009	C	Aug  9 2011  9:56:28:696AM	SUBSA EXP. 2011-01771	S	Aug  9 2011 11:05:40:180AM	N	N
0000007805	0000001023		T000000009	C	Aug 10 2011  9:46:36:530AM	SUBSA EXP. 2011-01733	S	Aug 10 2011  9:54:04:853AM	N	N
0000007806	0000001023		T000000009	C	Aug 10 2011 11:53:45:496AM	VISARED EXP. 2011-01797	S	Aug 10 2011  1:29:07:340PM	N	N
0000007807	0000001023		T000000009	C	Aug 12 2011  9:26:50:773AM	SUBSA EXP. 2011-01433	S	Aug 12 2011 10:18:01:760AM	N	N
0000007808	0000001023		T000000009	C	Aug 16 2011  9:48:48:490AM	ANEXO EXP. 2010-00473	S	Aug 16 2011 10:24:10:040AM	N	N
0000007809	0000001023		T000000009	C	Aug 16 2011  9:57:32:040AM	VISARED EXP. 2011-01819	S	Aug 16 2011 10:24:11:930AM	N	N
0000007810	0000001023		T000000009	C	Aug 17 2011  9:47:17:740AM	SUBSA EXP. 2011-01742	S	Aug 17 2011 11:51:42:386AM	N	N
0000007811	0000001023		T000000009	C	Aug 18 2011  9:24:36:936AM	VISARED EXP. 2011-01841	S	Aug 18 2011  9:47:20:673AM	N	N
0000007812	0000001023		T000000009	C	Aug 18 2011  9:37:28:873AM	MODIFICADO VISARED EXP. 2011-01281	S	Aug 18 2011  9:47:33:233AM	N	N
0000007814	0000001023		T000000009	C	Aug 18 2011  9:59:52:316AM	VISARED EXP. 2011-01842	S	Aug 18 2011 10:28:17:236AM	N	N
0000007815	0000001023		T000000009	C	Aug 18 2011  1:42:53:660PM	SUBSA EXP. 2011-01841	S	Aug 19 2011  8:49:35:840AM	N	N
0000007816	0000001023		T000000009	C	Aug 22 2011 12:24:55:300PM	SUBSA EXP. 2011-01842	S	Aug 22 2011 12:25:47:956PM	N	N
0000007817	0000001023		T000000009	C	Aug 22 2011 12:59:59:326PM	SUBSA EXP. 2011-01842	S	Aug 22 2011  1:10:04:270PM	N	N
0000007818	0000001023		T000000009	C	Aug 25 2011 12:39:17:080PM	VISARED EXP. 2011-01882	S	Aug 25 2011  1:18:51:593PM	N	N
0000007819	0000001023		T000000009	C	Aug 25 2011 12:54:10:780PM	VISARED EXP. 2011-03608	S	Aug 25 2011  1:18:53:533PM	N	N
0000007820	0000001023		T000000009	C	Aug 25 2011 12:54:26:623PM	VISARED EXP. 2011-03609	S	Aug 25 2011  1:18:55:986PM	N	N
0000007821	0000001023		T000000009	C	Aug 25 2011 12:55:16:013PM	VISARED EXP. 2011-01883	S	Aug 25 2011  1:18:58:376PM	N	N
0000007822	0000001023		T000000009	C	Aug 25 2011 12:55:26:293PM	VISARED EXP. 2011-01884	S	Aug 25 2011  1:19:00:313PM	N	N
0000007823	0000001023	 	T000000009	C	Aug 25 2011 12:58:08:180PM	ERROR ENVIO EXP. 2011-03608/09 SON REGISTROS, NO HACER CASO.	S	Aug 25 2011  1:19:02:296PM	N	N
0000007824	0000001023		T000000009	C	Aug 25 2011  1:16:43:296PM	VISARED EXP 2011-00419	S	Aug 25 2011  1:19:04:360PM	N	N
0000007825	0000001023		T000000009	C	Aug 26 2011 12:03:01:006PM	SUBSA EXP. 2011-01882	S	Aug 26 2011 12:05:17:903PM	N	N
0000007826	0000001023		T000000009	C	Aug 26 2011 12:07:38:173PM	SUBSA EXP. 2011-01883	S	Aug 26 2011 12:16:38:843PM	N	N
0000007827	0000001023		T000000009	C	Aug 26 2011 12:12:12:776PM	SUBSA EXP. 2011-01884	S	Aug 26 2011 12:16:41:716PM	N	N
0000007828	0000001023		T000000009	C	Aug 31 2011  9:05:43:553AM	SUBSA EXP. 2011-00419	S	Aug 31 2011  9:11:38:383AM	N	N
0000007829	0000001023		T000000009	C	Aug 31 2011  9:30:14:726AM	VISARED EXP. 2011-01903	S	Aug 31 2011 10:22:07:986AM	N	N
0000007830	0000001023		T000000009	C	Sep  5 2011  8:39:46:846AM	SUBSA EXP. 2011-01903	S	Sep  5 2011  9:35:30:223AM	N	N
0000007831	0000001010		T000000009	C	Sep  5 2011  9:51:56:826AM	VISARED EXP. 2011-00724	S	Sep  5 2011 10:06:09:606AM	N	N
0000007832	0000001023		T000000009	C	Sep  7 2011  8:44:49:926AM	MODIFICADO EXP. 2011-01242	S	Sep  7 2011  9:11:42:390AM	N	N
0000007833	0000001023		T000000009	C	Sep  7 2011  8:52:47:443AM	SUBSA EXP. 2011-01733 REF. 2011-03367 FERNANDO  ARQUITECTO	S	Sep  7 2011  9:11:56:750AM	N	N
0000007834	0000001023		0000001010	C	Sep  7 2011 11:41:44:720AM	VISARED EXP. 2011-00724	S	Sep  8 2011  9:48:43:683AM	N	N
0000007835	T000000009		0000001010	C	Sep  7 2011 11:41:44:720AM	VISARED EXP. 2011-00724	S	Sep  7 2011 11:44:48:586AM	N	N
0000007836	0000001023		T000000009	C	Sep  9 2011  9:54:36:070AM	VISARED EXP.  2011-01961	S	Sep  9 2011 11:46:57:240AM	N	N
0000007837	0000001023		T000000009	C	Sep  9 2011 10:22:50:956AM	SUBSA EXP. 2011-00724	S	Sep  9 2011 11:47:17:786AM	N	N
0000007838	0000001023		T000000009	C	Sep 13 2011 10:29:22:466AM	SUBSA EXP. 2011-01481	S	Sep 14 2011  8:43:18:870AM	N	N
0000007839	0000001023		T000000009	C	Sep 14 2011 10:37:01:303AM	SUBSA EXP. 2011-00334	S	Sep 15 2011 10:45:14:840AM	N	N
0000007840	0000001023		T000000009	C	Sep 14 2011 10:51:26:146AM	ANEXO EXP. 2011-01733	S	Sep 15 2011 10:45:17:590AM	N	N
0000007841	0000001023		T000000009	C	Sep 14 2011 11:46:24:666AM	VISARED EXP. 2011-01989	S	Sep 14 2011  1:06:30:350PM	N	N
0000007842	0000001023		T000000009	C	Sep 14 2011  1:23:05:626PM	SUBSA EXP. 2011-00724	S	Sep 15 2011 10:44:41:683AM	N	N
0000007843	0000001023		T000000009	C	Sep 15 2011  9:25:51:190AM	SUBSA EXP. 2011-00334	S	Sep 15 2011 10:45:19:870AM	N	N
0000007844	0000001023		T000000009	C	Sep 16 2011 12:15:40:513PM	VISARED EXP. 2011-02015	S	Sep 16 2011 12:16:46:410PM	N	N
0000007845	0000001023		T000000009	C	Sep 16 2011 12:26:51:893PM	SUBSA EXP. 2011-00334	S	Sep 19 2011  8:19:28:486AM	N	N
0000007846	0000001023		T000000009	C	Sep 16 2011 12:54:23:253PM	VISARED EXP 2011-01242	S	Sep 19 2011  8:19:34:846AM	N	N
0000007847	0000001023		T000000009	C	Sep 16 2011 12:58:51:223PM	SUBSA EXP. 2011-01481	S	Sep 19 2011  8:19:37:130AM	N	N
0000007848	0000001023		T000000009	C	Sep 20 2011  9:10:02:420AM	SUBSA EXP. 2011-00334	S	Sep 20 2011 12:06:04:236PM	N	N
0000007849	0000001023		T000000009	C	Sep 20 2011  9:29:54:256AM	SUBSA EXP. 2011-01481	S	Sep 20 2011 12:06:47:940PM	N	N
0000007850	0000001023		T000000009	C	Sep 23 2011 10:21:06:116AM	SUBSA EXP. 2011-02015	S	Sep 28 2011  8:21:56:440AM	N	N
0000007851	T000000012		T000000009	C	Sep 23 2011 10:29:01:263AM	MODIFICADO EXP. 2010-02132	S	Sep 28 2011 10:11:27:990AM	N	N
0000007852	T000000012		T000000009	C	Sep 23 2011 10:29:50:293AM	SUBSA EXP. 2011-02015	S	Sep 28 2011 10:11:24:256AM	N	N
0000007853	0000001023		T000000009	C	Sep 26 2011  8:57:07:933AM	VISARED EXP. 2011-02045	S	Sep 28 2011  8:21:58:793AM	N	N
0000007854	T000000012		T000000009	C	Sep 26 2011 12:48:53:136PM	VISARED EXP. 2011-02045	S	Sep 28 2011 10:11:17:023AM	N	N
0000007855	T000000012		T000000009	C	Sep 27 2011  9:14:45:006AM	VISARED EXP. 2011-02055	S	Sep 28 2011 10:11:21:243AM	N	N
0000007856	0000001023		T000000009	C	Sep 28 2011  9:17:40:850AM	VISARED EXP. 2011-02063	S	Sep 28 2011 10:21:47:726AM	N	N
0000007857	0000001023		T000000009	C	Sep 28 2011  9:29:13:706AM	VISARED EXP. 2011-02064	S	Sep 28 2011 10:21:49:836AM	N	N
0000007858	0000001023		T000000009	C	Sep 28 2011  9:33:46:886AM	VISARED EXP. 2011-00328	S	Sep 28 2011 10:21:52:210AM	N	N
0000007859	0000001023		T000000009	C	Sep 28 2011 12:41:37:443PM	SUBSA EXP. 2011-02064	S	Sep 29 2011  8:33:16:573AM	N	N
0000007860	0000001023		T000000009	C	Sep 29 2011 10:28:11:423AM	SUBSA EXP. 2011-02063	S	Sep 29 2011 10:43:11:973AM	N	N
0000007861	T000000012		T000000009	C	Sep 30 2011 10:34:51:783AM	SUBSA EXP. 2011-02045	S	Sep 30 2011 12:48:56:153PM	N	N
0000007862	0000001023		T000000009	C	Oct  3 2011 11:26:04:620AM	VISARED EXP. 2011-02087	S	Oct  4 2011  9:37:57:633AM	N	N
0000007863	T000000012		T000000009	C	Oct  3 2011 11:26:04:620AM	VISARED EXP. 2011-02087	S	Oct 19 2011  8:57:49:260AM	N	N
0000007864	0000001023		T000000009	C	Oct  5 2011  9:21:26:503AM	EXP. VISARED 2011-02112	S	Oct  5 2011  9:56:34:366AM	N	N
0000007865	0000001023		T000000009	C	Oct  6 2011  9:41:07:246AM	VISARED EXP. 2010-02539	S	Oct  6 2011  9:56:21:903AM	N	N
0000007866	0000001023		T000000009	C	Oct  6 2011  9:44:35:883AM	SUBSA EXP. 2011-02112	S	Oct  6 2011  9:56:18:623AM	N	N
0000007867	0000001023		T000000009	C	Oct  7 2011  2:05:58:916PM	VISARED EXP. 2011-02143	S	Oct 10 2011  9:29:19:296AM	N	N
0000007868	0000001023		T000000009	C	Oct  7 2011  2:23:17:576PM	VISARED EXP.2011-02144	S	Oct 10 2011  9:29:21:496AM	N	N
0000007869	0000001023		T000000009	C	Oct 10 2011  8:52:17:990AM	VISARED EXP. 2011-02145	S	Oct 10 2011  9:29:23:810AM	N	N
0000007870	0000001023		T000000009	C	Oct 10 2011  8:57:27:506AM	SUBSA EXP. 2010-02539	S	Oct 10 2011  9:29:25:890AM	N	N
0000007871	0000001023		T000000009	C	Oct 10 2011  9:56:09:360AM	VISARED 2011-02146	S	Oct 10 2011 10:19:02:790AM	N	N
0000007872	0000001023		T000000009	C	Oct 10 2011 12:31:39:143PM	SUBSA EXP. 2011-02143	S	Oct 10 2011  1:25:00:943PM	N	N
0000007873	0000001023		T000000009	C	Oct 10 2011 12:41:20:773PM	VISARED EXP. 2011-02153	S	Oct 10 2011  1:25:03:053PM	N	N
0000007874	0000001023		T000000009	C	Oct 13 2011  9:32:52:746AM	SUBSA EXP. 2011-02143	S	Oct 13 2011  9:45:16:080AM	N	N
0000007875	0000001023		T000000009	C	Oct 13 2011  9:35:10:276AM	ANEXO EXP. 2011-02153	S	Oct 13 2011  9:45:19:220AM	N	N
0000007876	0000001023		T000000009	C	Oct 17 2011  8:53:49:560AM	VISARED EXP. 2011-02182	S	Oct 17 2011  9:32:10:316AM	N	N
0000007877	0000001023		T000000009	C	Oct 19 2011  9:21:36:306AM	VISARED EXP. 2011-02209	S	Oct 19 2011  9:32:19:296AM	N	N
0000007878	0000001023		T000000009	C	Oct 20 2011  8:36:28:966AM	SUBSA EXP. 2011-02209	S	Oct 20 2011  9:38:26:763AM	N	N
0000007879	0000001023		T000000009	C	Oct 20 2011  9:15:04:620AM	SUBSA EXP. 2011-02146	S	Oct 20 2011  9:38:28:903AM	N	N
0000007880	0000001023		T000000009	C	Oct 21 2011 12:10:49:600PM	SUBSA EXP. 2011-02209	S	Oct 21 2011 12:34:21:963PM	N	N
0000007881	0000001023		T000000009	C	Oct 21 2011 12:33:05:310PM	SUBSA EXP. 2011-01310	S	Oct 21 2011 12:34:24:246PM	N	N
0000007882	0000001023		T000000009	C	Oct 25 2011  8:53:21:366AM	SUBSA EXP. 2011-02209	S	Oct 25 2011 11:36:01:623AM	N	N
0000007883	0000001023		T000000009	C	Oct 25 2011  9:01:51:936AM	SUBSA EXP. 2011-02250	S	Oct 25 2011 11:36:05:686AM	N	N
0000007884	0000001023		T000000009	C	Oct 25 2011  1:34:43:660PM	VISARED 2011-02260	S	Oct 25 2011  1:38:33:260PM	N	N
0000007885	0000001023		T000000009	C	Oct 27 2011  1:44:54:763PM	VISARED EXP. 2011-02273	S	Oct 27 2011  1:56:48:520PM	N	N
0000007886	0000001023		T000000009	C	Oct 28 2011 12:34:03:366PM	VISARED EXP. 2011-02278	S	Oct 28 2011  1:33:34:693PM	N	N
