0000200011	2090	3025	0040490091	Jan  1 2008 12:00:00:000AM	Sep 30 2008 12:00:00:000AM	2	000000003355521	CONSULTORES PARA ASISTENCI
0000000001	2085	0130	0300266699	Jan  1 2005 12:00:00:000AM	Jan 31 2005 12:00:00:000AM	2	000000048857849	COLEGIO OFICIAL APAREJADOR
0000000002	2085	0130	0300266699	Feb  1 2005 12:00:00:000AM	Feb 25 2005 12:00:00:000AM	2	000000044169397	COLEGIO OFICIAL APAREJADOR
0000000003	2085	0130	0300266699	Feb 28 2005 12:00:00:000AM	Feb 28 2005 12:00:00:000AM	2	000000083255515	COLEGIO OFICIAL APAREJADOR
0000000004	2086	0017	0700013178	Jan  1 2005 12:00:00:000AM	Jan 31 2005 12:00:00:000AM	2	000000040671034	COLEGIO APAREJADORES      
0000100001	0075	0876	0603085041	Dec  1 2005 12:00:00:000AM	Dec  1 2005 12:00:00:000AM	2	000000061438526	COL OF DE APAREJ Y ARQUIT 
0000100002	0075	0876	0603085041	Jan  2 2006 12:00:00:000AM	Jan  2 2006 12:00:00:000AM	2	000000060608614	COL OF DE APAREJ Y ARQUIT 
0000100003	0075	0876	0603085041	Jan  3 2006 12:00:00:000AM	Jan  3 2006 12:00:00:000AM	2	000000058827091	COL OF DE APAREJ Y ARQUIT 
0000100004	0075	0876	0603085041	Jan 13 2006 12:00:00:000AM	Jan 13 2006 12:00:00:000AM	2	000000067199553	COL OF DE APAREJ Y ARQUIT 
0000100005	0075	0876	0603085041	Feb  1 2006 12:00:00:000AM	Feb  1 2006 12:00:00:000AM	2	000000058763690	COL OF DE APAREJ Y ARQUIT 
0000100006	0075	0876	0603085041	Feb  2 2006 12:00:00:000AM	Feb  2 2006 12:00:00:000AM	2	000000064503940	COL OF DE APAREJ Y ARQUIT 
0000100007	0075	0876	0603085041	Feb  3 2006 12:00:00:000AM	Feb  3 2006 12:00:00:000AM	2	000000065365495	COL OF DE APAREJ Y ARQUIT 
0000100008	0075	0876	0603085041	Feb  4 2006 12:00:00:000AM	Feb  4 2006 12:00:00:000AM	2	000000067516488	COL OF DE APAREJ Y ARQUIT 
0000100009	0075	0876	0603085041	Feb  6 2006 12:00:00:000AM	Feb  6 2006 12:00:00:000AM	2	000000067952716	COL OF DE APAREJ Y ARQUIT 
0000100010	0075	0876	0603085041	Feb  7 2006 12:00:00:000AM	Feb  7 2006 12:00:00:000AM	2	000000064696542	COL OF DE APAREJ Y ARQUIT 
0000100011	0075	0876	0603085041	Feb  8 2006 12:00:00:000AM	Feb  8 2006 12:00:00:000AM	2	000000067445808	COL OF DE APAREJ Y ARQUIT 
0000100012	0075	0876	0603085041	Feb  9 2006 12:00:00:000AM	Feb  9 2006 12:00:00:000AM	2	000000063032218	COL OF DE APAREJ Y ARQUIT 
0000100013	0075	0876	0603085041	Feb 10 2006 12:00:00:000AM	Feb 10 2006 12:00:00:000AM	2	000000063852279	COL OF DE APAREJ Y ARQUIT 
0000100014	0075	0876	0603085041	Feb 11 2006 12:00:00:000AM	Feb 11 2006 12:00:00:000AM	2	000000067386269	COL OF DE APAREJ Y ARQUIT 
0000100015	0075	0876	0603085041	Feb 13 2006 12:00:00:000AM	Feb 13 2006 12:00:00:000AM	2	000000068241114	COL OF DE APAREJ Y ARQUIT 
0000100016	0075	0876	0603085041	Feb 14 2006 12:00:00:000AM	Feb 14 2006 12:00:00:000AM	2	000000070064402	COL OF DE APAREJ Y ARQUIT 
0000100017	0075	0876	0603085041	Feb 15 2006 12:00:00:000AM	Feb 15 2006 12:00:00:000AM	2	000000071330169	COL OF DE APAREJ Y ARQUIT 
0000100018	0075	0876	0603085041	Feb 16 2006 12:00:00:000AM	Feb 16 2006 12:00:00:000AM	2	000000070983435	COL OF DE APAREJ Y ARQUIT 
0000100019	0075	0876	0603085041	Feb 17 2006 12:00:00:000AM	Feb 17 2006 12:00:00:000AM	2	000000070085661	COL OF DE APAREJ Y ARQUIT 
0000100020	0075	0876	0603085041	Feb 18 2006 12:00:00:000AM	Feb 18 2006 12:00:00:000AM	2	000000060696718	COL OF DE APAREJ Y ARQUIT 
0000100021	0075	0876	0603085041	Feb 20 2006 12:00:00:000AM	Feb 20 2006 12:00:00:000AM	2	000000061642342	COL OF DE APAREJ Y ARQUIT 
0000100022	0075	0876	0603085041	Feb 21 2006 12:00:00:000AM	Feb 21 2006 12:00:00:000AM	2	000000061119840	COL OF DE APAREJ Y ARQUIT 
0000100023	0075	0876	0603085041	Feb 22 2006 12:00:00:000AM	Feb 22 2006 12:00:00:000AM	2	000000061768524	COL OF DE APAREJ Y ARQUIT 
0000100024	0075	0876	0603085041	Feb 23 2006 12:00:00:000AM	Feb 23 2006 12:00:00:000AM	2	000000063668180	COL OF DE APAREJ Y ARQUIT 
0000100025	0075	0876	0603085041	Feb 24 2006 12:00:00:000AM	Feb 24 2006 12:00:00:000AM	2	000000052193959	COL OF DE APAREJ Y ARQUIT 
0000100026	0075	0876	0603085041	Feb 25 2006 12:00:00:000AM	Feb 25 2006 12:00:00:000AM	2	000000053601686	COL OF DE APAREJ Y ARQUIT 
0000100027	0075	0876	0603085041	Feb 27 2006 12:00:00:000AM	Feb 27 2006 12:00:00:000AM	2	000000054007006	COL OF DE APAREJ Y ARQUIT 
0000100028	0075	0876	0603085041	Feb 28 2006 12:00:00:000AM	Feb 28 2006 12:00:00:000AM	2	000000054381978	COL OF DE APAREJ Y ARQUIT 
0000200001	2090	3025	0046502055	Jan  1 2008 12:00:00:000AM	Mar 31 2008 12:00:00:000AM	2	000000050864537	COLEGIO OF APAREJADORES Y 
0000200002	2090	3025	0046502055	Apr  1 2008 12:00:00:000AM	Jun 30 2008 12:00:00:000AM	2	000000059979481	COLEGIO OF APAREJADORES Y 
0000200003	2090	3025	0040490091	Jan  1 2008 12:00:00:000AM	Jun 30 2008 12:00:00:000AM	2	000000003355521	CONSULTORES PARA ASISTENCI
0000200004	0182	5596	0011885851	Jan  1 2008 12:00:00:000AM	Jun 30 2008 12:00:00:000AM	2	000000019188209	COLEGIO OFICIAL APAREJAD  
0000200005	2090	3025	0046502055	Jul  1 2008 12:00:00:000AM	Jul 31 2008 12:00:00:000AM	2	000000011701019	COLEGIO OF APAREJADORES Y 
0000200006	2090	3025	0046502055	Aug  1 2008 12:00:00:000AM	Aug 31 2008 12:00:00:000AM	2	000000025059209	COLEGIO OF APAREJADORES Y 
0000200009	2090	3025	0040542489	Jan  1 2008 12:00:00:000AM	Oct 10 2008 12:00:00:000AM	2	000000100592730	COLEGIO OF APAREJADORES Y 
0000200007	2090	3025	0046502055	Sep  1 2008 12:00:00:000AM	Sep 30 2008 12:00:00:000AM	2	000000009019081	COLEGIO OF APAREJADORES Y 
0000200008	0182	5596	0011885851	Jul  1 2008 12:00:00:000AM	Sep 30 2008 12:00:00:000AM	1	000000036194576	 ,COLEGIO OFICIAL APAREJAD
0000200010	2090	3025	0040513982	Jan  1 2008 12:00:00:000AM	Sep 30 2008 12:00:00:000AM	2	000000003143980	GESTION IN TECN PARA CONST
0000200012	2090	3025	0046502055	Oct  1 2008 12:00:00:000AM	Oct 31 2008 12:00:00:000AM	2	000000013551767	COLEGIO OF APAREJADORES Y 
0000200013	2077	0482	3100471293	Jan  1 2008 12:00:00:000AM	Oct 31 2008 12:00:00:000AM	2	000000001616271	COL.OFIC.APAREJADORE Y ARQ
0000200014	2077	0482	1100733744	Jan  1 2008 12:00:00:000AM	Oct 31 2008 12:00:00:000AM	2	000000006613402	COL.OFIC.APAREJADORE Y ARQ
0000200015	2090	3025	0040490091	Oct  1 2008 12:00:00:000AM	Oct 31 2008 12:00:00:000AM	2	000000003550831	CONSULTORES PARA ASISTENCI
0000200016	2090	3025	0046502055	Nov  1 2008 12:00:00:000AM	Nov 15 2008 12:00:00:000AM	2	000000042301198	COLEGIO OF APAREJADORES Y 
0000200017	2090	3025	0040514409	Jan  1 2008 12:00:00:000AM	Oct 31 2008 12:00:00:000AM	2	000000019107573	FUNDACION COAATA          
0000200018	0128	6637	0100001357	Jan  1 2008 12:00:00:000AM	Oct 31 2008 12:00:00:000AM	2	000000034119917	COL. OF. APAREJADORES Y AR
0000200019	2090	3025	0040514409	Nov  1 2008 12:00:00:000AM	Nov 30 2008 12:00:00:000AM	2	000000009024254	FUNDACION COAATA          
0000200020	2090	3025	0040490091	Nov  1 2008 12:00:00:000AM	Nov 30 2008 12:00:00:000AM	2	000000003434493	CONSULTORES PARA ASISTENCI
0000200021	2090	3025	0040513982	Oct  1 2008 12:00:00:000AM	Nov 30 2008 12:00:00:000AM	2	000000003273086	GESTION IN TECN PARA CONST
0000200022	2090	3025	0046502055	Nov 16 2008 12:00:00:000AM	Nov 30 2008 12:00:00:000AM	2	000000015191605	COLEGIO OF APAREJADORES Y 
0000200023	0128	6637	0100001357	Nov  1 2008 12:00:00:000AM	Nov 30 2008 12:00:00:000AM	2	000000033854618	COL. OF. APAREJADORES Y AR
0000200024	2090	3025	0040542489	Oct 15 2008 12:00:00:000AM	Nov 30 2008 12:00:00:000AM	2	000000000718269	COLEGIO OF APAREJADORES Y 
0000200025	2077	0482	3100471293	Nov  1 2008 12:00:00:000AM	Nov 30 2008 12:00:00:000AM	2	000000000031544	COL.OFIC.APAREJADORE Y ARQ
0000200026	2077	0482	1100733744	Nov  1 2008 12:00:00:000AM	Nov 30 2008 12:00:00:000AM	2	000000000083900	COL.OFIC.APAREJADORE Y ARQ
0000200027	0182	5596	0203333333	Jan  1 2008 12:00:00:000AM	Nov 30 2008 12:00:00:000AM	2	000000035512143	 ,COLEGIO OFICIAL APAREJAD
0000200028	0182	5596	0200250004	Jan  1 2008 12:00:00:000AM	Nov 30 2008 12:00:00:000AM	2	000000038342779	 ,COLEGIO OFICIAL APAREJAD
0000200029	0182	5596	0011885851	Oct  1 2008 12:00:00:000AM	Nov 30 2008 12:00:00:000AM	2	000000006799207	 ,COLEGIO OFICIAL APAREJAD
0000200030	2090	3025	0046502055	Dec  1 2008 12:00:00:000AM	Dec 15 2008 12:00:00:000AM	2	000000007316349	COLEGIO OF APAREJADORES Y 
0000200031	2090	3025	0040542489	Dec  1 2008 12:00:00:000AM	Dec 31 2008 12:00:00:000AM	2	000000000779489	COLEGIO OF APAREJADORES Y 
0000200032	0128	6637	0100001357	Dec  1 2008 12:00:00:000AM	Dec 31 2008 12:00:00:000AM	2	000000008848587	COL. OF. APAREJADORES Y AR
0000200033	2090	3025	0046502055	Dec 16 2008 12:00:00:000AM	Dec 31 2008 12:00:00:000AM	2	000000020329961	COLEGIO OF APAREJADORES Y 
0000200034	2090	3025	0040490091	Dec  1 2008 12:00:00:000AM	Dec 31 2008 12:00:00:000AM	2	000000003563608	CONSULTORES PARA ASISTENCI
0000200035	2090	3025	0040513982	Dec  1 2008 12:00:00:000AM	Dec 31 2008 12:00:00:000AM	2	000000003280396	GESTION IN TECN PARA CONST
0000200036	2090	3025	0040514409	Dec  1 2008 12:00:00:000AM	Dec 31 2008 12:00:00:000AM	2	000000009049964	FUNDACION COAATA          
0000200037	2077	0482	3100471293	Dec  1 2008 12:00:00:000AM	Dec 31 2008 12:00:00:000AM	2	000000000080649	COL.OFIC.APAREJADORE Y ARQ
0000200038	2077	0482	1100733744	Dec  1 2008 12:00:00:000AM	Dec 31 2008 12:00:00:000AM	2	000000000124181	COL.OFIC.APAREJADORE Y ARQ
0000200039	0182	5596	0011885851	Dec  1 2008 12:00:00:000AM	Dec 31 2008 12:00:00:000AM	2	000000005090144	 ,COLEGIO OFICIAL APAREJAD
0000200040	0182	5596	0200250004	Dec  1 2008 12:00:00:000AM	Dec 31 2008 12:00:00:000AM	2	000000007282136	 ,COLEGIO OFICIAL APAREJAD
0000200041	0182	5596	0203333333	Dec  1 2008 12:00:00:000AM	Dec 31 2008 12:00:00:000AM	2	000000052768064	 ,COLEGIO OFICIAL APAREJAD
0000200042	2090	3025	0046502055	Jan  1 2009 12:00:00:000AM	Jan 20 2009 12:00:00:000AM	2	000000006719327	COLEGIO OF APAREJADORES Y 
0000200043	2090	3025	0046502055	Jan 21 2009 12:00:00:000AM	Jan 31 2009 12:00:00:000AM	2	000000012089620	COLEGIO OF APAREJADORES Y 
0000200044	2090	3025	0046502055	Feb  1 2009 12:00:00:000AM	Feb 15 2009 12:00:00:000AM	2	000000015101773	COLEGIO OF APAREJADORES Y 
0000200045	2090	3025	0046502055	Feb 16 2009 12:00:00:000AM	Feb 28 2009 12:00:00:000AM	2	000000032404379	COLEGIO OF APAREJADORES Y 
0000200046	2090	3025	0040542489	Jan  1 2009 12:00:00:000AM	Feb 28 2009 12:00:00:000AM	2	000000000782077	COLEGIO OF APAREJADORES Y 
0000200047	2090	3025	0046502055	Mar  1 2009 12:00:00:000AM	Mar 15 2009 12:00:00:000AM	2	000000016468491	COLEGIO OF APAREJADORES Y 
0000200048	2090	3025	0040513982	Jan  1 2009 12:00:00:000AM	Feb 28 2009 12:00:00:000AM	2	000000003286238	GESTION IN TECN PARA CONST
0000200049	2090	3025	0040490091	Jan  1 2009 12:00:00:000AM	Feb 28 2009 12:00:00:000AM	2	000000003649636	CONSULTORES PARA ASISTENCI
0000200050	2090	3025	0040514409	Jan  1 2009 12:00:00:000AM	Feb 28 2009 12:00:00:000AM	2	000000009076616	FUNDACION COAATA          
0000200051	2090	3025	0046502055	Mar 16 2009 12:00:00:000AM	Mar 31 2009 12:00:00:000AM	2	000000015045828	COLEGIO OF APAREJADORES Y 
0000200052	0128	6637	0100001357	Jan  1 2009 12:00:00:000AM	Mar 31 2009 12:00:00:000AM	2	000000009385996	COL. OF. APAREJADORES Y AR
0000200053	2077	0482	1100733744	Jan  1 2009 12:00:00:000AM	Mar 31 2009 12:00:00:000AM	2	000000000354070	COL.OFIC.APAREJADORE Y ARQ
0000200054	2077	0482	3100471293	Jan  1 2009 12:00:00:000AM	Mar 31 2009 12:00:00:000AM	2	000000001342074	COL.OFIC.APAREJADORE Y ARQ
0000200055	0182	5596	0200250004	Jan  1 2009 12:00:00:000AM	Mar 31 2009 12:00:00:000AM	2	000000007173923	 ,COLEGIO OFICIAL APAREJAD
0000200056	0182	5596	0203333333	Jan  1 2009 12:00:00:000AM	Mar 31 2009 12:00:00:000AM	2	000000006295412	 ,COLEGIO OFICIAL APAREJAD
0000200057	0182	5596	0011885851	Jan  1 2009 12:00:00:000AM	Mar 31 2009 12:00:00:000AM	2	000000009023522	 ,COLEGIO OFICIAL APAREJAD
0000200058	2090	3025	0046502055	Apr  1 2009 12:00:00:000AM	Apr 30 2009 12:00:00:000AM	2	000000029018184	COLEGIO OF APAREJADORES Y 
0000200059	2090	3025	0046502055	May  1 2009 12:00:00:000AM	May 15 2009 12:00:00:000AM	2	000000021062787	COLEGIO OF APAREJADORES Y 
0000200060	2090	3025	0040490091	Mar  1 2009 12:00:00:000AM	Apr 30 2009 12:00:00:000AM	2	000000003653095	CONSULTORES PARA ASISTENCI
0000200061	2090	3025	0040513982	Mar  1 2009 12:00:00:000AM	Apr 30 2009 12:00:00:000AM	2	000000003282154	GESTION IN TECN PARA CONST
0000200062	2090	3025	0040514409	Mar  1 2009 12:00:00:000AM	Apr 30 2009 12:00:00:000AM	2	000000009098708	FUNDACION COAATA          
0000200063	2090	3025	0046502055	May 16 2009 12:00:00:000AM	May 31 2009 12:00:00:000AM	2	000000031937611	COLEGIO OF APAREJADORES Y 
0000200064	2090	3025	0040542489	Mar  1 2009 12:00:00:000AM	May 31 2009 12:00:00:000AM	2	000000000784282	COLEGIO OF APAREJADORES Y 
0000200065	2077	0482	1100733744	Apr  1 2009 12:00:00:000AM	Apr 30 2009 12:00:00:000AM	2	000000002585250	COL.OFIC.APAREJADORE Y ARQ
0000200066	2077	0482	3100471293	Apr  1 2009 12:00:00:000AM	Apr 30 2009 12:00:00:000AM	2	000000001100076	COL.OFIC.APAREJADORE Y ARQ
0000200067	2077	0482	1100733744	May  1 2009 12:00:00:000AM	May 31 2009 12:00:00:000AM	2	000000002590580	COL.OFIC.APAREJADORE Y ARQ
0000200068	2077	0482	3100471293	May  1 2009 12:00:00:000AM	May 31 2009 12:00:00:000AM	2	000000001236289	COL.OFIC.APAREJADORE Y ARQ
0000200069	0182	5596	0200250004	Apr  1 2009 12:00:00:000AM	May 31 2009 12:00:00:000AM	2	000000048430937	 ,COLEGIO OFICIAL APAREJAD
0000200070	0182	5596	0203333333	Apr  1 2009 12:00:00:000AM	May 31 2009 12:00:00:000AM	2	000000038714872	 ,COLEGIO OFICIAL APAREJAD
0000200071	0182	5596	0011885851	Apr  1 2009 12:00:00:000AM	May 31 2009 12:00:00:000AM	1	000000003965975	 ,COLEGIO OFICIAL APAREJAD
0000200072	2090	3025	0046502055	Jun  1 2009 12:00:00:000AM	Jun 15 2009 12:00:00:000AM	2	000000021711750	COLEGIO OF APAREJADORES Y 
0000200073	2090	3025	0046502055	Jun 16 2009 12:00:00:000AM	Jun 30 2009 12:00:00:000AM	2	000000029688415	COLEGIO OF APAREJADORES Y 
0000200074	2090	3025	0046502055	Jul  1 2009 12:00:00:000AM	Jul 15 2009 12:00:00:000AM	2	000000000871895	COLEGIO OF APAREJADORES Y 
0000200075	2090	3025	0046502055	Jul 16 2009 12:00:00:000AM	Jul 31 2009 12:00:00:000AM	2	000000050240885	COLEGIO OF APAREJADORES Y 
0000200076	0182	5596	0200250004	Jun  1 2009 12:00:00:000AM	Jul 31 2009 12:00:00:000AM	2	000000028926641	 ,COLEGIO OFICIAL APAREJAD
0000200077	0182	5596	0203333333	Jun  1 2009 12:00:00:000AM	Jul 31 2009 12:00:00:000AM	2	000000022521532	 ,COLEGIO OFICIAL APAREJAD
0000200078	0182	5596	0011885851	Jun  1 2009 12:00:00:000AM	Jul 31 2009 12:00:00:000AM	2	000000007418840	 ,COLEGIO OFICIAL APAREJAD
0000200079	2090	3025	0046502055	Aug  1 2009 12:00:00:000AM	Aug 31 2009 12:00:00:000AM	2	000000014925764	COLEGIO OF APAREJADORES Y 
0000200080	2090	3025	0046502055	Sep  1 2009 12:00:00:000AM	Sep 30 2009 12:00:00:000AM	2	000000010672485	COLEGIO OF APAREJADORES Y 
0000200081	0182	5596	0011885851	Aug  1 2009 12:00:00:000AM	Sep 30 2009 12:00:00:000AM	2	000000018414599	 ,COLEGIO OFICIAL APAREJAD
0000200082	0182	5596	0200250004	Aug  1 2009 12:00:00:000AM	Sep 30 2009 12:00:00:000AM	2	000000014149582	 ,COLEGIO OFICIAL APAREJAD
0000200083	0182	5596	0203333333	Aug  1 2009 12:00:00:000AM	Sep 30 2009 12:00:00:000AM	2	000000000809253	 ,COLEGIO OFICIAL APAREJAD
0000200084	2090	3025	0040490091	May  1 2009 12:00:00:000AM	Sep 30 2009 12:00:00:000AM	2	000000003942897	CONSULTORES PARA ASISTENCI
0000200085	2090	3025	0040513982	May  1 2009 12:00:00:000AM	Sep 30 2009 12:00:00:000AM	2	000000003915736	GESTION IN TECN PARA CONST
0000200086	2090	3025	0040514409	May  1 2009 12:00:00:000AM	Sep 30 2009 12:00:00:000AM	2	000000008978250	FUNDACION COAATA          
0000200088	0128	6637	0100001357	Apr  1 2009 12:00:00:000AM	Sep 30 2009 12:00:00:000AM	2	000000000381465	COL. OF. APAREJADORES Y AR
0000200089	2077	0482	3100471293	Jun  1 2009 12:00:00:000AM	Jul 31 2009 12:00:00:000AM	2	000000001344224	COL.OFIC.APAREJADORE Y ARQ
0000200090	2077	0482	1100733744	Jun  1 2009 12:00:00:000AM	Jul 31 2009 12:00:00:000AM	2	000000002595748	COL.OFIC.APAREJADORE Y ARQ
0000200091	2077	0482	1100733744	Aug  1 2009 12:00:00:000AM	Sep 30 2009 12:00:00:000AM	2	000000004615429	COL.OFIC.APAREJADORE Y ARQ
0000200092	2077	0482	3100471293	Aug  1 2009 12:00:00:000AM	Sep 30 2009 12:00:00:000AM	2	000000000007244	COL.OFIC.APAREJADORE Y ARQ
0000200093	2090	3025	0046502055	Oct  1 2009 12:00:00:000AM	Oct 31 2009 12:00:00:000AM	2	000000005934739	COLEGIO OF APAREJADORES Y 
0000200094	2090	3025	0046502055	Nov  1 2009 12:00:00:000AM	Nov 15 2009 12:00:00:000AM	2	000000031182287	COLEGIO OF APAREJADORES Y 
0000200095	2090	3025	0040490091	Oct  1 2009 12:00:00:000AM	Oct 31 2009 12:00:00:000AM	2	000000004262680	CONSULTORES PARA ASISTENCI
0000200096	2090	3025	0040513982	Oct  1 2009 12:00:00:000AM	Oct 31 2009 12:00:00:000AM	2	000000004328312	GESTION IN TECN PARA CONST
0000200097	2090	3025	0046502055	Nov 16 2009 12:00:00:000AM	Nov 30 2009 12:00:00:000AM	2	000000016413502	COLEGIO OF APAREJADORES Y 
0000200099	0182	5596	0203333333	Oct  1 2009 12:00:00:000AM	Nov 30 2009 12:00:00:000AM	2	000000000532544	 ,COLEGIO OFICIAL APAREJAD
0000200100	0182	5596	0200250004	Oct  1 2009 12:00:00:000AM	Nov 30 2009 12:00:00:000AM	2	000000018107628	 ,COLEGIO OFICIAL APAREJAD
0000200101	0182	5596	0011885851	Oct  1 2009 12:00:00:000AM	Nov 30 2009 12:00:00:000AM	2	000000020976929	 ,COLEGIO OFICIAL APAREJAD
0000200102	2077	0482	1100733744	Oct  1 2009 12:00:00:000AM	Nov 30 2009 12:00:00:000AM	2	000000004629535	COL.OFIC.APAREJADORE Y ARQ
0000200103	2077	0482	3100471293	Oct  1 2009 12:00:00:000AM	Nov 30 2009 12:00:00:000AM	2	000000000532794	COL.OFIC.APAREJADORE Y ARQ
0000200104	2090	3025	0046502055	Dec  1 2009 12:00:00:000AM	Dec 15 2009 12:00:00:000AM	2	000000006382327	COLEGIO OF APAREJADORES Y 
0000200105	0182	5596	0011885851	Dec  1 2009 12:00:00:000AM	Dec 31 2009 12:00:00:000AM	1	000000001457088	 ,COLEGIO OFICIAL APAREJAD
0000200106	0182	5596	0200250004	Dec  1 2009 12:00:00:000AM	Dec 31 2009 12:00:00:000AM	2	000000013520537	 ,COLEGIO OFICIAL APAREJAD
0000200107	0182	5596	0203333333	Dec  1 2009 12:00:00:000AM	Dec 31 2009 12:00:00:000AM	2	000000005684766	 ,COLEGIO OFICIAL APAREJAD
0000200108	2090	3025	0046502055	Dec 16 2009 12:00:00:000AM	Dec 31 2009 12:00:00:000AM	2	000000038338700	ICOS E INGENIER COLEGIO OF
0000200109	2090	3025	0040513982	Nov  1 2009 12:00:00:000AM	Dec 31 2009 12:00:00:000AM	2	000000003924697	GESTION IN TECN PARA CONST
0000200110	2090	3025	0040514409	Oct  1 2009 12:00:00:000AM	Dec 31 2009 12:00:00:000AM	2	000000008980728	FUNDACION COAATA          
0000200111	2090	3025	0040490091	Nov  1 2009 12:00:00:000AM	Dec 31 2009 12:00:00:000AM	2	000000004413419	CONSULTORES PARA ASISTENCI
0000200112	2090	3025	0046502055	Jan  1 2010 12:00:00:000AM	Jan 31 2010 12:00:00:000AM	2	000000019681207	ICOS E INGENIER COLEGIO OF
0000200113	2090	3025	0046502055	Feb  1 2010 12:00:00:000AM	Feb 15 2010 12:00:00:000AM	2	000000030689216	ICOS E INGENIER COLEGIO OF
0000200114	2090	3025	0046502055	Feb 16 2010 12:00:00:000AM	Feb 28 2010 12:00:00:000AM	2	000000011336139	ICOS E INGENIER COLEGIO OF
0000200115	2077	0482	1100733744	Dec  1 2009 12:00:00:000AM	Dec 31 2009 12:00:00:000AM	2	000000004645220	COL.OFIC.APAREJADORE Y ARQ
0000200116	2077	0482	3100471293	Dec  1 2009 12:00:00:000AM	Dec 31 2009 12:00:00:000AM	2	000000000699908	COL.OFIC.APAREJADORE Y ARQ
0000200117	0128	6637	0100001357	Dec  1 2009 12:00:00:000AM	Dec 31 2009 12:00:00:000AM	2	000000000401448	COL. OF. APAREJADORES Y AR
0000200118	2090	3025	0046502055	Mar  1 2010 12:00:00:000AM	Mar 15 2010 12:00:00:000AM	2	000000008817203	ICOS E INGENIER COLEGIO OF
0000200119	2090	3025	0200098938	Mar 16 2010 12:00:00:000AM	Mar 31 2010 12:00:00:000AM	2	000000012755392	COLEGIO OF DE APAREJADORES
0000200120	0182	5596	0011885851	Jan  1 2010 12:00:00:000AM	Apr 30 2010 12:00:00:000AM	2	000000003308007	 ,COLEGIO OFICIAL APAREJAD
0000200121	0182	5596	0200250004	Jan  1 2010 12:00:00:000AM	Apr 30 2010 12:00:00:000AM	2	000000013503054	 ,COLEGIO OFICIAL APAREJAD
0000200122	0182	5596	0203333333	Jan  1 2010 12:00:00:000AM	Apr 30 2010 12:00:00:000AM	2	000000005320092	 ,COLEGIO OFICIAL APAREJAD
0000200123	2090	3025	0200098938	Apr  1 2010 12:00:00:000AM	Apr 30 2010 12:00:00:000AM	2	000000007232809	COLEGIO OF DE APAREJADORES
0000200124	2090	3025	0200098938	May  1 2010 12:00:00:000AM	May 15 2010 12:00:00:000AM	2	000000013986221	COLEGIO OF DE APAREJADORES
0000200125	2090	3025	0200098938	May 16 2010 12:00:00:000AM	May 31 2010 12:00:00:000AM	2	000000008860769	COLEGIO OF DE APAREJADORES
0000200126	2090	3025	0200098938	Jun  1 2010 12:00:00:000AM	Jun 30 2010 12:00:00:000AM	2	000000027580413	COLEGIO OF DE APAREJADORES
0000200127	2090	3025	0200098938	Jul  1 2010 12:00:00:000AM	Sep 30 2010 12:00:00:000AM	2	000000005342672	COLEGIO OF DE APAREJADORES
0000200128	0182	5596	0200250004	May  1 2010 12:00:00:000AM	Sep 30 2010 12:00:00:000AM	2	000000028967788	 COLEGIO OFICIAL APAREJAD 
0000200129	0182	5596	0203333333	May  1 2010 12:00:00:000AM	Sep 30 2010 12:00:00:000AM	2	000000000760827	 COLEGIO OFICIAL APAREJAD 
0000200130	0182	5596	0011885851	May  1 2010 12:00:00:000AM	Sep 30 2010 12:00:00:000AM	2	000000085652294	 COLEGIO OFICIAL APAREJAD 
0000200131	0128	6637	0100001357	Jan  1 2010 12:00:00:000AM	Sep 30 2010 12:00:00:000AM	2	000000000402323	COL. OF. APAREJADORES Y AR
0000200132	2077	0482	1100733744	Jan  1 2010 12:00:00:000AM	Sep 30 2010 12:00:00:000AM	2	000000004651471	COL.OFIC.APAREJADORE Y ARQ
0000200133	2077	0482	3100471293	Jan  1 2010 12:00:00:000AM	Sep 30 2010 12:00:00:000AM	2	000000001175083	COL.OFIC.APAREJADORE Y ARQ
0000200134	2090	3025	0200081652	Jan  1 2010 12:00:00:000AM	Oct 31 2010 12:00:00:000AM	2	000000004232722	GESTION IN TECN PARA CONST
0000200135	2090	3025	0200081931	Jan  1 2010 12:00:00:000AM	Oct 31 2010 12:00:00:000AM	2	000000005085450	FUNDACION COAATA          
0000200136	2090	3025	0200068415	Jan  1 2010 12:00:00:000AM	Oct 31 2010 12:00:00:000AM	2	000000004778908	CONSULTORES PARA ASISTENCI
0000200137	2090	3025	0200098938	Oct  1 2010 12:00:00:000AM	Oct 31 2010 12:00:00:000AM	2	000000004477288	COLEGIO OF DE APAREJADORES
0000200138	2090	3025	0200098938	Nov  1 2010 12:00:00:000AM	Nov 30 2010 12:00:00:000AM	2	000000006497659	COLEGIO OF DE APAREJADORES
0000200139	0182	5596	0200250004	Oct  1 2010 12:00:00:000AM	Nov 30 2010 12:00:00:000AM	2	000000029210634	 ,COLEGIO OFICIAL APAREJAD
0000200140	0182	5596	0203333333	Oct  1 2010 12:00:00:000AM	Nov 30 2010 12:00:00:000AM	2	000000001295541	 ,COLEGIO OFICIAL APAREJAD
0000200141	0182	5596	0011885851	Oct  1 2010 12:00:00:000AM	Nov 30 2010 12:00:00:000AM	2	000000018411624	 ,COLEGIO OFICIAL APAREJAD
0000200142	2090	3025	0200098938	Dec  1 2010 12:00:00:000AM	Dec 31 2010 12:00:00:000AM	2	000000017349905	COLEGIO OF DE APAREJADORES
0000200143	2090	3025	0200081652	Nov  1 2010 12:00:00:000AM	Dec 31 2010 12:00:00:000AM	2	000000000004952	GESTION IN TECN PARA CONST
0000200144	2090	3025	0200068415	Nov  1 2010 12:00:00:000AM	Dec 31 2010 12:00:00:000AM	2	000000005413049	CONSULTORES PARA ASISTENCI
0000200146	2090	3025	0200098938	Jan  1 2011 12:00:00:000AM	Jan 31 2011 12:00:00:000AM	2	000000010191762	COLEGIO OF DE APAREJADORES
0000200147	0182	5596	0200250004	Dec  1 2010 12:00:00:000AM	Dec 30 2010 12:00:00:000AM	2	000000013047963	 COLEGIO OFICIAL APAREJAD 
0000200148	0182	5596	0203333333	Dec  1 2010 12:00:00:000AM	Dec 31 2010 12:00:00:000AM	2	000000000397139	 COLEGIO OFICIAL APAREJAD 
0000200149	0182	5596	0011885851	Dec  1 2010 12:00:00:000AM	Dec 31 2010 12:00:00:000AM	2	000000008684620	 COLEGIO OFICIAL APAREJAD 
0000200150	0182	5596	0011885851	Jan  3 2011 12:00:00:000AM	Jan 31 2011 12:00:00:000AM	1	000000010790863	 COLEGIO OFICIAL APAREJAD 
0000200151	2077	0482	3100471293	Oct  1 2010 12:00:00:000AM	Dec 31 2010 12:00:00:000AM	2	000000001412367	COL.OFIC.APAREJADORE Y ARQ
0000200152	2077	0482	1100733744	Oct  1 2010 12:00:00:000AM	Dec 31 2010 12:00:00:000AM	2	000000000463096	COL.OFIC.APAREJADORE Y ARQ
0000200154	2090	3025	0200098938	Feb  1 2011 12:00:00:000AM	Feb 28 2011 12:00:00:000AM	2	000000010127143	COLEGIO OF DE APAREJADORES
0000200155	2090	3025	0200081931	Nov  1 2010 12:00:00:000AM	Dec 31 2010 12:00:00:000AM	2	000000005096543	FUNDACION COAATA          
0000200157	2090	3025	0200098938	Mar  1 2011 12:00:00:000AM	Mar 31 2011 12:00:00:000AM	2	000000041687654	COLEGIO OF DE APAREJADORES
0000200158	0182	5596	0200250004	Jan  4 2011 12:00:00:000AM	Jan 31 2011 12:00:00:000AM	2	000000012999659	 COLEGIO OFICIAL APAREJAD 
0000200159	0182	5596	0203333333	Jan  7 2011 12:00:00:000AM	Jan 10 2011 12:00:00:000AM	2	000000000034546	 COLEGIO OFICIAL APAREJAD 
0000200163	2090	3025	0200098938	Apr  1 2011 12:00:00:000AM	Apr 30 2011 12:00:00:000AM	2	000000034747169	COLEGIO OF DE APAREJADORES
0000200164	2090	3025	0200098938	May  1 2011 12:00:00:000AM	May 31 2011 12:00:00:000AM	2	000000013602721	COLEGIO OF DE APAREJADORES
0000200165	0182	5596	0203333333	Feb  1 2011 12:00:00:000AM	Apr 30 2011 12:00:00:000AM	2	000000000085658	 ,COLEGIO OFICIAL APAREJAD
0000200166	0182	5596	0200250004	Feb  1 2011 12:00:00:000AM	Apr 30 2011 12:00:00:000AM	2	000000010504524	 ,COLEGIO OFICIAL APAREJAD
0000200167	0182	5596	0011885851	Feb  1 2011 12:00:00:000AM	Apr 30 2011 12:00:00:000AM	2	000000005933200	 ,COLEGIO OFICIAL APAREJAD
0000200170	2090	3025	0200068415	Jan  1 2011 12:00:00:000AM	May 31 2011 12:00:00:000AM	2	000000005689561	CONSULTORES PARA ASISTENCI
0000200171	2090	3025	0200098938	Jun  1 2011 12:00:00:000AM	Jun 30 2011 12:00:00:000AM	2	000000009520307	COLEGIO OF DE APAREJADORES
0000200177	2090	3025	0200081931	Jan  1 2011 12:00:00:000AM	Jun 30 2011 12:00:00:000AM	2	000000005096591	FUNDACION COAATA          
0000200178	0182	5596	0011885851	May  1 2011 12:00:00:000AM	Jun 30 2011 12:00:00:000AM	2	000000092593027	 ,COLEGIO OFICIAL APAREJAD
0000200179	0182	5596	0200250004	May  1 2011 12:00:00:000AM	Jun 30 2011 12:00:00:000AM	2	000000013058400	 ,COLEGIO OFICIAL APAREJAD
0000200180	0182	5596	0203333333	May  1 2011 12:00:00:000AM	Jun 30 2011 12:00:00:000AM	2	000000004705581	 ,COLEGIO OFICIAL APAREJAD
0000200181	2090	3025	0200098938	Jul  1 2011 12:00:00:000AM	Jul 31 2011 12:00:00:000AM	2	000000002335453	COLEGIO OF DE APAREJADORES
0000200182	2090	3025	0200098938	Aug  1 2011 12:00:00:000AM	Aug 31 2011 12:00:00:000AM	2	000000006314293	COLEGIO OF DE APAREJADORES
0000200183	0182	5596	0011885851	Jul  1 2011 12:00:00:000AM	Aug 31 2011 12:00:00:000AM	2	000000001071475	 ,COLEGIO OFICIAL APAREJAD
0000200184	0182	5596	0200250004	Jul  1 2011 12:00:00:000AM	Aug 31 2011 12:00:00:000AM	2	000000012780791	 ,COLEGIO OFICIAL APAREJAD
0000200185	0182	5596	0203333333	Jul  1 2011 12:00:00:000AM	Aug 31 2011 12:00:00:000AM	2	000000004430334	 ,COLEGIO OFICIAL APAREJAD
0000200186	0049	4609	2416629902	Jan  1 2011 12:00:00:000AM	Aug 31 2011 12:00:00:000AM	2	000000001908104	0000000000NOMBRE ABREVIADO
0000200187	0049	4609	2795493425	Jan  1 2011 12:00:00:000AM	Aug 31 2011 12:00:00:000AM	2	000000000000000	0000000000NOMBRE ABREVIADO
0000200188	0182	5596	0200250004	Sep  1 2011 12:00:00:000AM	Sep 21 2011 12:00:00:000AM	2	000000018344953	COLEGIO OFICIAL APAREJADOR
0000200189	0182	5596	0203333333	Sep  1 2011 12:00:00:000AM	Sep 21 2011 12:00:00:000AM	2	000000006961174	COLEGIO OFICIAL APAREJADOR
0000200190	0182	5596	0011885851	Sep  1 2011 12:00:00:000AM	Sep 30 2011 12:00:00:000AM	2	000000005651153	COLEGIO OFICIAL APAREJADOR
0000200191	0182	5596	0200250004	Sep 22 2011 12:00:00:000AM	Sep 30 2011 12:00:00:000AM	2	000000026372847	COLEGIO OFICIAL APAREJADOR
0000200192	0182	5596	0203333333	Sep 22 2011 12:00:00:000AM	Sep 30 2011 12:00:00:000AM	2	000000006974294	COLEGIO OFICIAL APAREJADOR
0000200193	2090	3025	0200098938	Sep  1 2011 12:00:00:000AM	Sep 30 2011 12:00:00:000AM	2	000000013292946	COLEGIO OF DE APAREJADORES
0000200194	2077	0482	1100733744	Jan  1 2011 12:00:00:000AM	Aug 31 2011 12:00:00:000AM	2	000000000464951	COL.OFIC.APAREJADORE Y ARQ
0000200195	2077	0482	3100471293	Jan  1 2011 12:00:00:000AM	Aug 31 2011 12:00:00:000AM	2	000000001776701	COL.OFIC.APAREJADORE Y ARQ
