0000000001	2085	0130	0300266699	Jan  1 2005 12:00:00:000AM	Jan 31 2005 12:00:00:000AM	2	000000048857849	COLEGIO OFICIAL APAREJADOR
0000000002	2085	0130	0300266699	Feb  1 2005 12:00:00:000AM	Feb 25 2005 12:00:00:000AM	2	000000044169397	COLEGIO OFICIAL APAREJADOR
0000000003	2085	0130	0300266699	Feb 28 2005 12:00:00:000AM	Feb 28 2005 12:00:00:000AM	2	000000083255515	COLEGIO OFICIAL APAREJADOR
0000000004	2086	0017	0700013178	Jan  1 2005 12:00:00:000AM	Jan 31 2005 12:00:00:000AM	2	000000040671034	COLEGIO APAREJADORES      
0000000005	2085	0130	0300266699	Mar  1 2005 12:00:00:000AM	Mar  6 2005 12:00:00:000AM	2	000000076675988	COLEGIO OFICIAL APAREJADOR
0000000006	2086	0017	0700013178	Feb  1 2005 12:00:00:000AM	Feb 28 2005 12:00:00:000AM	2	000000013467792	COLEGIO APAREJADORES      
0000000007	2086	0017	0700013178	Mar  1 2005 12:00:00:000AM	Mar 31 2005 12:00:00:000AM	2	000000037964741	COLEGIO APAREJADORES      
0000000008	2085	0130	0300266699	Mar  7 2005 12:00:00:000AM	Mar 31 2005 12:00:00:000AM	2	000000042075129	COLEGIO OFICIAL APAREJADOR
0000000009	2085	0130	0300266699	Apr  1 2005 12:00:00:000AM	Apr 10 2005 12:00:00:000AM	2	000000065668704	COLEGIO OFICIAL APAREJADOR
0000000010	2085	0130	0300266699	Apr 11 2005 12:00:00:000AM	Apr 17 2005 12:00:00:000AM	2	000000050741541	COLEGIO OFICIAL APAREJADOR
0000000011	2085	0130	0300266699	Apr 18 2005 12:00:00:000AM	Apr 20 2005 12:00:00:000AM	2	000000052823125	COLEGIO OFICIAL APAREJADOR
0000000012	2085	0130	0300266699	Apr 21 2005 12:00:00:000AM	Apr 30 2005 12:00:00:000AM	2	000000046576447	COLEGIO OFICIAL APAREJADOR
0000000013	2085	0130	0300266699	May  1 2005 12:00:00:000AM	May  8 2005 12:00:00:000AM	2	000000033792351	COLEGIO OFICIAL APAREJADOR
0000000014	2086	0017	0700013178	Apr  1 2005 12:00:00:000AM	Apr 30 2005 12:00:00:000AM	2	000000019795001	COLEGIO APAREJADORES      
0000000015	2085	0130	0300266699	May  9 2005 12:00:00:000AM	May 15 2005 12:00:00:000AM	2	000000096752547	COLEGIO OFICIAL APAREJADOR
0000000016	2085	0130	0300266699	May 16 2005 12:00:00:000AM	May 22 2005 12:00:00:000AM	2	000000096523121	COLEGIO OFICIAL APAREJADOR
0000000017	2085	0130	0300266699	May 23 2005 12:00:00:000AM	May 29 2005 12:00:00:000AM	2	000000097274447	COLEGIO OFICIAL APAREJADOR
0000000018	2085	0130	0300266699	May 30 2005 12:00:00:000AM	May 31 2005 12:00:00:000AM	2	000000092589322	COLEGIO OFICIAL APAREJADOR
0000000019	2085	0130	0300266699	Jun  1 2005 12:00:00:000AM	Jun 19 2005 12:00:00:000AM	2	000000091714722	COLEGIO OFICIAL APAREJADOR
0000000020	2086	0017	0700013178	May  1 2005 12:00:00:000AM	May 31 2005 12:00:00:000AM	2	000000041917440	COLEGIO APAREJADORES      
0000000021	2085	0130	0300266699	Jun 20 2005 12:00:00:000AM	Jun 26 2005 12:00:00:000AM	2	000000063171216	COLEGIO OFICIAL APAREJADOR
0000000022	2085	0130	0300266699	Jun 27 2005 12:00:00:000AM	Jun 30 2005 12:00:00:000AM	2	000000069941340	COLEGIO OFICIAL APAREJADOR
0000000023	2086	0017	0700013178	Jun  1 2005 12:00:00:000AM	Jun 30 2005 12:00:00:000AM	2	000000020511774	COLEGIO APAREJADORES      
0000000024	2085	0130	0300266699	Jul  1 2005 12:00:00:000AM	Jul 24 2005 12:00:00:000AM	2	000000055508666	COLEGIO OFICIAL APAREJADOR
0000000025	2085	0130	0300266699	Jul 25 2005 12:00:00:000AM	Jul 31 2005 12:00:00:000AM	2	000000098178689	COLEGIO OFICIAL APAREJADOR
0000000026	2085	0130	0300266699	Aug  1 2005 12:00:00:000AM	Aug  7 2005 12:00:00:000AM	2	000000077933844	COLEGIO OFICIAL APAREJADOR
0000000027	2086	0017	0700013178	Jul  1 2005 12:00:00:000AM	Jul 29 2005 12:00:00:000AM	2	000000040610471	COLEGIO APAREJADORES      
0000000028	2085	0130	0300266699	Aug  8 2005 12:00:00:000AM	Aug 14 2005 12:00:00:000AM	2	000000074477600	COLEGIO OFICIAL APAREJADOR
0000000029	2085	0130	0300266699	Aug 15 2005 12:00:00:000AM	Aug 21 2005 12:00:00:000AM	2	000000076680727	COLEGIO OFICIAL APAREJADOR
0000000030	2085	0130	0300266699	Aug 22 2005 12:00:00:000AM	Aug 28 2005 12:00:00:000AM	2	000000076614681	COLEGIO OFICIAL APAREJADOR
0000000031	2085	0130	0300266699	Aug 29 2005 12:00:00:000AM	Aug 31 2005 12:00:00:000AM	2	000000058763950	COLEGIO OFICIAL APAREJADOR
0000000032	2086	0017	0700013178	Aug  1 2005 12:00:00:000AM	Aug 31 2005 12:00:00:000AM	2	000000020537235	COLEGIO APAREJADORES      
0000000033	2085	0130	0300266699	Sep  1 2005 12:00:00:000AM	Sep 25 2005 12:00:00:000AM	2	000000063710194	COLEGIO OFICIAL APAREJADOR
0000000034	2085	0130	0300266699	Sep 26 2005 12:00:00:000AM	Sep 29 2005 12:00:00:000AM	2	000000046988562	COLEGIO OFICIAL APAREJADOR
0000000035	2085	0130	0300266699	Sep 30 2005 12:00:00:000AM	Sep 30 2005 12:00:00:000AM	2	000000055719873	COLEGIO OFICIAL APAREJADOR
0000000036	2086	0017	0700013178	Sep  1 2005 12:00:00:000AM	Sep 30 2005 12:00:00:000AM	2	000000036058970	COLEGIO APAREJADORES      
0000000037	2085	0130	0300266699	Oct  1 2005 12:00:00:000AM	Oct 31 2005 12:00:00:000AM	2	000000052140908	COLEGIO OFICIAL APAREJADOR
0000000038	2086	0017	0700013178	Oct  1 2005 12:00:00:000AM	Oct 31 2005 12:00:00:000AM	2	000000061537197	COLEGIO APAREJADORES      
0000000039	2085	0130	0300266699	Nov  1 2005 12:00:00:000AM	Nov  6 2005 12:00:00:000AM	2	000000095622886	COLEGIO OFICIAL APAREJADOR
0000000040	2085	0130	0300266699	Nov  7 2005 12:00:00:000AM	Nov 13 2005 12:00:00:000AM	2	000000099378752	COLEGIO OFICIAL APAREJADOR
0000000041	2085	0130	0300266699	Nov 14 2005 12:00:00:000AM	Nov 20 2005 12:00:00:000AM	2	000000109564097	COLEGIO OFICIAL APAREJADOR
0000000042	2085	0130	0300266699	Nov 21 2005 12:00:00:000AM	Nov 28 2005 12:00:00:000AM	2	000000105024683	COLEGIO OFICIAL APAREJADOR
0000000043	2085	0130	0300266699	Nov 29 2005 12:00:00:000AM	Nov 30 2005 12:00:00:000AM	2	000000089974860	COLEGIO OFICIAL APAREJADOR
0000000044	2086	0017	0700013178	Nov  1 2005 12:00:00:000AM	Nov 30 2005 12:00:00:000AM	2	000000012531949	COLEGIO APAREJADORES      
0000000045	2085	0130	0300266699	Dec  1 2005 12:00:00:000AM	Dec 25 2005 12:00:00:000AM	2	000000089276495	COLEGIO OFICIAL APAREJADOR
0000000046	2085	0130	0300266699	Dec 26 2005 12:00:00:000AM	Dec 27 2005 12:00:00:000AM	2	000000090478371	COLEGIO OFICIAL APAREJADOR
0000000047	2086	0017	0700013178	Dec  1 2005 12:00:00:000AM	Dec 28 2005 12:00:00:000AM	2	000000034691297	COLEGIO APAREJADORES      
0000000048	2085	0130	0300266699	Dec 28 2005 12:00:00:000AM	Dec 31 2005 12:00:00:000AM	2	000000091929095	COLEGIO OFICIAL APAREJADOR
0000000049	2086	0017	0700013178	Dec 29 2005 12:00:00:000AM	Dec 31 2005 12:00:00:000AM	2	000000051025812	COLEGIO APAREJADORES      
0000000050	2085	0130	0300266699	Jan  1 2006 12:00:00:000AM	Jan 10 2006 12:00:00:000AM	2	000000071485661	COLEGIO OFICIAL APAREJADOR
0000000051	2085	0130	0300266699	Jan 11 2006 12:00:00:000AM	Jan 29 2006 12:00:00:000AM	2	000000058989805	COLEGIO OFICIAL APAREJADOR
0000000052	2085	0130	0300266699	Jan 30 2006 12:00:00:000AM	Jan 31 2006 12:00:00:000AM	2	000000027557621	COLEGIO OFICIAL APAREJADOR
0000000053	2086	0017	0700013178	Jan  1 2006 12:00:00:000AM	Jan 31 2006 12:00:00:000AM	2	000000053779617	COLEGIO APAREJADORES      
0000000054	2085	0130	0300266699	Feb  1 2006 12:00:00:000AM	Feb  8 2006 12:00:00:000AM	2	000000028362218	COLEGIO OFICIAL APAREJADOR
0000000055	2086	0017	0700013178	Feb  1 2006 12:00:00:000AM	Feb 28 2006 12:00:00:000AM	2	000000075171165	COLEGIO APAREJADORES      
0000000056	2085	0130	0300266699	Feb  9 2006 12:00:00:000AM	Feb 28 2006 12:00:00:000AM	2	000000139932055	COLEGIO OFICIAL APAREJADOR
0000000057	2085	0130	0300266699	Mar  1 2006 12:00:00:000AM	Mar  5 2006 12:00:00:000AM	2	000000129513676	COLEGIO OFICIAL APAREJADOR
0000000058	2085	0130	0300266699	Mar  6 2006 12:00:00:000AM	Mar 12 2006 12:00:00:000AM	2	000000093699484	COLEGIO OFICIAL APAREJADOR
0000000059	2085	0130	0300266699	Mar 13 2006 12:00:00:000AM	Mar 19 2006 12:00:00:000AM	2	000000104871010	COLEGIO OFICIAL APAREJADOR
0000000060	2085	0130	0300266699	Mar 20 2006 12:00:00:000AM	Mar 26 2006 12:00:00:000AM	2	000000109215003	COLEGIO OFICIAL APAREJADOR
0000000061	0049	2778	2014445191	Jan  1 2006 12:00:00:000AM	Jan 31 2006 12:00:00:000AM	2	000000004337789	CONSEJO DE APAREJADORES Y 
0000000062	0049	2778	2014445191	Feb  1 2006 12:00:00:000AM	Feb 28 2006 12:00:00:000AM	2	000000007166632	CONSEJO DE APAREJADORES Y 
0000000063	0049	2778	2014445191	Mar  1 2006 12:00:00:000AM	Mar 31 2006 12:00:00:000AM	2	000000006788765	CONSEJO DE APAREJADORES Y 
0000000064	2085	0130	0300266699	Mar 27 2006 12:00:00:000AM	Mar 31 2006 12:00:00:000AM	2	000000094247570	COLEGIO OFICIAL APAREJADOR
0000000065	2086	0017	0700013178	Mar  1 2006 12:00:00:000AM	Mar 31 2006 12:00:00:000AM	2	000000020504634	COLEGIO APAREJADORES      
0000000066	2085	0130	0300266699	Apr  1 2006 12:00:00:000AM	Apr 23 2006 12:00:00:000AM	2	000000087098733	COLEGIO OFICIAL APAREJADOR
0000000067	2085	0130	0300266699	Apr 24 2006 12:00:00:000AM	Apr 30 2006 12:00:00:000AM	2	000000131531441	COLEGIO OFICIAL APAREJADOR
0000000068	0049	2778	2014445191	Apr  1 2006 12:00:00:000AM	Apr 30 2006 12:00:00:000AM	2	000000006667494	CONSEJO DE APAREJADORES Y 
0000000069	2086	0017	0700013178	Apr  1 2006 12:00:00:000AM	Apr 30 2006 12:00:00:000AM	2	000000046229734	COLEGIO APAREJADORES      
0000000070	2085	0130	0300266699	May  1 2006 12:00:00:000AM	May 14 2006 12:00:00:000AM	2	000000106014340	COLEGIO OFICIAL APAREJADOR
0000000071	2085	0130	0300266699	May 15 2006 12:00:00:000AM	May 21 2006 12:00:00:000AM	2	000000150400363	COLEGIO OFICIAL APAREJADOR
0000000072	2085	0130	0300266699	May 22 2006 12:00:00:000AM	May 31 2006 12:00:00:000AM	2	000000146491899	COLEGIO OFICIAL APAREJADOR
0000000073	0049	2778	2014445191	May  1 2006 12:00:00:000AM	May 31 2006 12:00:00:000AM	2	000000005895011	CONSEJO DE APAREJADORES Y 
0000000074	2086	0017	0700013178	May  1 2006 12:00:00:000AM	May 31 2006 12:00:00:000AM	2	000000014874557	COLEGIO APAREJADORES      
0000000075	2085	0130	0300266699	Jun  1 2006 12:00:00:000AM	Jun 18 2006 12:00:00:000AM	2	000000148387898	COLEGIO OFICIAL APAREJADOR
0000000076	2085	0130	0300266699	Jun 19 2006 12:00:00:000AM	Jun 28 2006 12:00:00:000AM	2	000000129100253	COLEGIO OFICIAL APAREJADOR
0000000077	2085	0130	0300266699	Jun 29 2006 12:00:00:000AM	Jun 30 2006 12:00:00:000AM	2	000000129396887	COLEGIO OFICIAL APAREJADOR
0000000078	2086	0017	0700013178	Jun  1 2006 12:00:00:000AM	Jun 30 2006 12:00:00:000AM	2	000000040951809	COLEGIO APAREJADORES      
0000000079	0049	2778	2014445191	Jun  1 2006 12:00:00:000AM	Jun 30 2006 12:00:00:000AM	2	000000006054560	CONSEJO DE APAREJADORES Y 
0000000080	2085	0130	0300266699	Jul  1 2006 12:00:00:000AM	Jul 26 2006 12:00:00:000AM	2	000000093010859	COLEGIO OFICIAL APAREJADOR
0000000081	2085	0130	0300266699	Jul 27 2006 12:00:00:000AM	Jul 31 2006 12:00:00:000AM	2	000000135274504	COLEGIO OFICIAL APAREJADOR
0000000082	0049	2778	2014445191	Jul  2 2006 12:00:00:000AM	Jul 31 2006 12:00:00:000AM	2	000000005663424	CONSEJO DE APAREJADORES Y 
0000000083	2086	0017	0700013178	Jul  1 2006 12:00:00:000AM	Jul 31 2006 12:00:00:000AM	2	000000064565170	COLEGIO APAREJADORES      
0000000084	2085	0130	0300266699	Aug  1 2006 12:00:00:000AM	Aug 15 2006 12:00:00:000AM	2	000000138022152	COLEGIO OFICIAL APAREJADOR
0000000085	2085	0130	0300266699	Aug 16 2006 12:00:00:000AM	Aug 27 2006 12:00:00:000AM	2	000000141788783	COLEGIO OFICIAL APAREJADOR
0000000086	0049	2778	2014445191	Aug  1 2006 12:00:00:000AM	Aug 31 2006 12:00:00:000AM	2	000000005621544	CONSEJO DE APAREJADORES Y 
0000000087	2086	0017	0700013178	Aug  1 2006 12:00:00:000AM	Aug 31 2006 12:00:00:000AM	2	000000031797585	COLEGIO APAREJADORES      
0000000088	2085	0130	0300266699	Aug 28 2006 12:00:00:000AM	Aug 31 2006 12:00:00:000AM	2	000000115907206	COLEGIO OFICIAL APAREJADOR
0000000089	2085	0130	0300266699	Sep  1 2006 12:00:00:000AM	Sep 24 2006 12:00:00:000AM	2	000000122991542	COLEGIO OFICIAL APAREJADOR
0000000090	0049	2778	2014445191	Sep  1 2006 12:00:00:000AM	Sep 30 2006 12:00:00:000AM	2	000000005528013	CONSEJO DE APAREJADORES Y 
0000000091	2085	0130	0300266699	Sep 25 2006 12:00:00:000AM	Sep 30 2006 12:00:00:000AM	2	000000189391346	COLEGIO OFICIAL APAREJADOR
0000000092	2085	0130	0300266699	Oct  1 2006 12:00:00:000AM	Oct  8 2006 12:00:00:000AM	2	000000175254044	COLEGIO OFICIAL APAREJADOR
0000000093	2086	0017	0700013178	Sep  1 2006 12:00:00:000AM	Sep 30 2006 12:00:00:000AM	2	000000045009639	COLEGIO APAREJADORES      
0000000094	2085	0130	0300266699	Oct  9 2006 12:00:00:000AM	Oct 25 2006 12:00:00:000AM	2	000000175399872	COLEGIO OFICIAL APAREJADOR
0000000095	2085	0130	0300266699	Oct 26 2006 12:00:00:000AM	Oct 31 2006 12:00:00:000AM	2	000000148037285	COLEGIO OFICIAL APAREJADOR
0000000096	2085	0130	0300266699	Nov  1 2006 12:00:00:000AM	Nov  5 2006 12:00:00:000AM	2	000000145587078	COLEGIO OFICIAL APAREJADOR
0000000097	2086	0017	0700013178	Oct  1 2006 12:00:00:000AM	Oct 31 2006 12:00:00:000AM	2	000000022138945	COLEGIO APAREJADORES      
0000000098	0049	2778	2014445191	Oct  1 2006 12:00:00:000AM	Oct 31 2006 12:00:00:000AM	2	000000005450930	CONSEJO DE APAREJADORES Y 
0000000099	2085	0130	0300266699	Nov  6 2006 12:00:00:000AM	Nov 19 2006 12:00:00:000AM	2	000000145421369	COLEGIO OFICIAL APAREJADOR
0000000100	0049	2778	2014445191	Nov  1 2006 12:00:00:000AM	Nov 30 2006 12:00:00:000AM	2	000000005276232	CONSEJO DE APAREJADORES Y 
0000000102	2085	0130	0300266699	Nov 20 2006 12:00:00:000AM	Nov 30 2006 12:00:00:000AM	2	000000144464795	COLEGIO OFICIAL APAREJADOR
0000000103	2085	0130	0300266699	Dec  1 2006 12:00:00:000AM	Dec 10 2006 12:00:00:000AM	2	000000131693514	COLEGIO OFICIAL APAREJADOR
0000000104	2086	0017	0700013178	Nov  1 2006 12:00:00:000AM	Nov 30 2006 12:00:00:000AM	2	000000038795030	COLEGIO APAREJADORES      
0000000105	2085	0130	0300266699	Dec 11 2006 12:00:00:000AM	Dec 17 2006 12:00:00:000AM	2	000000136860922	COLEGIO OFICIAL APAREJADOR
0000000106	2085	0130	0300266699	Dec 18 2006 12:00:00:000AM	Dec 21 2006 12:00:00:000AM	2	000000140525703	COLEGIO OFICIAL APAREJADOR
0000000107	2085	0130	0300266699	Dec 22 2006 12:00:00:000AM	Dec 26 2006 12:00:00:000AM	2	000000209189194	COLEGIO OFICIAL APAREJADOR
0000000108	2085	0130	0300266699	Dec 27 2006 12:00:00:000AM	Dec 31 2006 12:00:00:000AM	2	000000220179975	COLEGIO OFICIAL APAREJADOR
0000000109	2086	0017	0700013178	Dec  1 2006 12:00:00:000AM	Dec 31 2006 12:00:00:000AM	2	000000065197942	COLEGIO APAREJADORES      
0000000110	0049	2778	2014445191	Dec  1 2006 12:00:00:000AM	Dec 31 2006 12:00:00:000AM	2	000000005862181	CONSEJO DE APAREJADORES Y 
0000000112	0049	2778	2314447398	Jan  1 2007 12:00:00:000AM	Jan 31 2007 12:00:00:000AM	2	000000000000000	CONSEJO DE COLEGIOS DE APA
0000000113	2085	0130	0300266699	Jan  1 2007 12:00:00:000AM	Jan 21 2007 12:00:00:000AM	2	000000187320415	COLEGIO OFICIAL APAREJADOR
0000000114	2085	0130	0300266699	Jan 22 2007 12:00:00:000AM	Jan 31 2007 12:00:00:000AM	2	000000126044510	COLEGIO OFICIAL APAREJADOR
0000000115	2086	0017	0700013178	Jan  1 2007 12:00:00:000AM	Jan 31 2007 12:00:00:000AM	2	000000018005405	COLEGIO APAREJADORES      
0000000116	0049	2778	2314447398	Feb  1 2007 12:00:00:000AM	Feb 28 2007 12:00:00:000AM	2	000000006912661	CONSEJO DE COLEGIOS DE APA
0000000117	2086	0017	0700013178	Feb  1 2007 12:00:00:000AM	Feb 28 2007 12:00:00:000AM	2	000000052132730	COLEGIO APAREJADORES      
0000000118	2085	0130	0300266699	Feb  1 2007 12:00:00:000AM	Feb 18 2007 12:00:00:000AM	2	000000148645448	COLEGIO OFICIAL APAREJADOR
0000000119	2085	0130	0300266699	Feb 19 2007 12:00:00:000AM	Feb 28 2007 12:00:00:000AM	2	000000172206227	COLEGIO OFICIAL APAREJADOR
0000000120	2085	0130	0300266699	Mar  1 2007 12:00:00:000AM	Mar 11 2007 12:00:00:000AM	2	000000145579878	COLEGIO OFICIAL APAREJADOR
0000000121	2085	0130	0300266699	Mar 12 2007 12:00:00:000AM	Mar 18 2007 12:00:00:000AM	2	000000148418072	COLEGIO OFICIAL APAREJADOR
0000000122	2085	0130	0300266699	Mar 19 2007 12:00:00:000AM	Mar 25 2007 12:00:00:000AM	2	000000211246351	COLEGIO OFICIAL APAREJADOR
0000000123	0049	2778	2314447398	Mar  1 2007 12:00:00:000AM	Mar 31 2007 12:00:00:000AM	2	000000006405560	CONSEJO DE COLEGIOS DE APA
0000000124	2085	0130	0300266699	Mar 26 2007 12:00:00:000AM	Mar 31 2007 12:00:00:000AM	2	000000209439591	COLEGIO OFICIAL APAREJADOR
0000000125	2086	0017	0700013178	Mar  1 2007 12:00:00:000AM	Mar 31 2007 12:00:00:000AM	2	000000074792934	COLEGIO APAREJADORES      
0000000126	2085	0130	0300266699	Apr  1 2007 12:00:00:000AM	Apr 22 2007 12:00:00:000AM	2	000000191638410	COLEGIO OFICIAL APAREJADOR
0000000127	0049	2778	2314447398	Apr  1 2007 12:00:00:000AM	Apr 30 2007 12:00:00:000AM	2	000000006045271	CONSEJO DE COLEGIOS DE APA
0000000128	2085	0130	0300266699	Apr 23 2007 12:00:00:000AM	Apr 30 2007 12:00:00:000AM	2	000000190996080	COLEGIO OFICIAL APAREJADOR
0000000129	2086	0017	0700013178	Apr  1 2007 12:00:00:000AM	Apr 30 2007 12:00:00:000AM	2	000000028142424	COLEGIO APAREJADORES      
0000000130	2085	0130	0300266699	May  1 2007 12:00:00:000AM	May 20 2007 12:00:00:000AM	2	000000195648452	COLEGIO OFICIAL APAREJADOR
0000000131	2085	0130	0300266699	May 21 2007 12:00:00:000AM	May 27 2007 12:00:00:000AM	2	000000256211298	COLEGIO OFICIAL APAREJADOR
0000000132	2085	0130	0300266699	May 28 2007 12:00:00:000AM	May 31 2007 12:00:00:000AM	2	000000230836738	COLEGIO OFICIAL APAREJADOR
0000000133	2086	0017	0700013178	May  1 2007 12:00:00:000AM	May 31 2007 12:00:00:000AM	2	000000042019131	COLEGIO APAREJADORES      
0000000134	2085	0130	0300266699	Jun  1 2007 12:00:00:000AM	Jun 10 2007 12:00:00:000AM	2	000000244196801	COLEGIO OFICIAL APAREJADOR
0000000135	2085	0130	0300266699	Jun 11 2007 12:00:00:000AM	Jun 17 2007 12:00:00:000AM	2	000000200184437	COLEGIO OFICIAL APAREJADOR
0000000136	2085	0130	0300266699	Jun 18 2007 12:00:00:000AM	Jun 24 2007 12:00:00:000AM	2	000000202914363	COLEGIO OFICIAL APAREJADOR
0000000137	2085	0130	0300266699	Jun 25 2007 12:00:00:000AM	Jun 30 2007 12:00:00:000AM	2	000000214624443	COLEGIO OFICIAL APAREJADOR
0000000138	0049	2778	2314447398	May  1 2007 12:00:00:000AM	May 31 2007 12:00:00:000AM	2	000000005880211	CONSEJO DE COLEGIOS DE APA
0000000139	0049	2778	2314447398	Jun  1 2007 12:00:00:000AM	Jun 30 2007 12:00:00:000AM	2	000000005928156	CONSEJO DE COLEGIOS DE APA
0000000140	2086	0017	0700013178	Jun  1 2007 12:00:00:000AM	Jun 30 2007 12:00:00:000AM	2	000000018146498	COLEGIO APAREJADORES      
0000000141	2085	0130	0300266699	Jul  1 2007 12:00:00:000AM	Jul  8 2007 12:00:00:000AM	2	000000186077721	COLEGIO OFICIAL APAREJADOR
0000000142	2085	0130	0300266699	Jul  9 2007 12:00:00:000AM	Jul 15 2007 12:00:00:000AM	2	000000202132832	COLEGIO OFICIAL APAREJADOR
0000000143	0049	2778	2314447398	Jul  1 2007 12:00:00:000AM	Jul 31 2007 12:00:00:000AM	2	000000005596725	CONSEJO DE COLEGIOS DE APA
0000000144	2085	0130	0300266699	Jul 16 2007 12:00:00:000AM	Jul 22 2007 12:00:00:000AM	2	000000051888026	COLEGIO OFICIAL APAREJADOR
0000000145	2085	0130	0300266699	Jul 23 2007 12:00:00:000AM	Jul 29 2007 12:00:00:000AM	2	000000087835418	COLEGIO OFICIAL APAREJADOR
0000000146	2085	0130	0300266699	Jul 30 2007 12:00:00:000AM	Jul 31 2007 12:00:00:000AM	2	000000094413199	COLEGIO OFICIAL APAREJADOR
0000000147	2086	0017	0700013178	Jul  1 2007 12:00:00:000AM	Jul 31 2007 12:00:00:000AM	2	000000046572502	COLEGIO APAREJADORES      
0000000148	2085	0130	0300266699	Aug  1 2007 12:00:00:000AM	Aug  5 2007 12:00:00:000AM	2	000000067308938	COLEGIO OFICIAL APAREJADOR
0000000149	2085	0130	0300266699	Aug  6 2007 12:00:00:000AM	Aug 12 2007 12:00:00:000AM	2	000000066933825	COLEGIO OFICIAL APAREJADOR
0000000150	2085	0130	0300266699	Aug 13 2007 12:00:00:000AM	Aug 19 2007 12:00:00:000AM	2	000000071597589	COLEGIO OFICIAL APAREJADOR
0000000151	2085	0130	0300266699	Aug 20 2007 12:00:00:000AM	Aug 26 2007 12:00:00:000AM	2	000000066109730	COLEGIO OFICIAL APAREJADOR
0000000152	2085	0130	0300266699	Aug 27 2007 12:00:00:000AM	Aug 31 2007 12:00:00:000AM	2	000000048922331	COLEGIO OFICIAL APAREJADOR
0000000153	2086	0017	0700013178	Aug  1 2007 12:00:00:000AM	Aug 31 2007 12:00:00:000AM	2	000000015122809	COLEGIO APAREJADORES      
0000000154	0049	2778	2314447398	Aug  1 2007 12:00:00:000AM	Aug 31 2007 12:00:00:000AM	2	000000005534941	CONSEJO DE COLEGIOS DE APA
0000000155	0049	2778	2314447398	Sep  1 2007 12:00:00:000AM	Sep 30 2007 12:00:00:000AM	2	000000005500597	CONSEJO DE COLEGIOS DE APA
0000000156	2085	0130	0300266699	Sep  1 2007 12:00:00:000AM	Sep  9 2007 12:00:00:000AM	2	000000057853240	COLEGIO OFICIAL APAREJADOR
0000000157	2085	0130	0300266699	Sep 10 2007 12:00:00:000AM	Sep 16 2007 12:00:00:000AM	2	000000057724184	COLEGIO OFICIAL APAREJADOR
0000000158	2085	0130	0300266699	Sep 17 2007 12:00:00:000AM	Sep 23 2007 12:00:00:000AM	2	000000064191085	COLEGIO OFICIAL APAREJADOR
0000000159	2085	0130	0300266699	Sep 24 2007 12:00:00:000AM	Sep 30 2007 12:00:00:000AM	2	000000075974475	COLEGIO OFICIAL APAREJADOR
0000000160	2086	0017	0700013178	Sep  1 2007 12:00:00:000AM	Sep 30 2007 12:00:00:000AM	2	000000034322344	COLEGIO APAREJADORES      
0000000161	2085	0130	0300266699	Oct  1 2007 12:00:00:000AM	Oct  7 2007 12:00:00:000AM	2	000000053386094	COLEGIO OFICIAL APAREJADOR
0000000162	2085	0130	0300266699	Oct  8 2007 12:00:00:000AM	Oct 14 2007 12:00:00:000AM	2	000000056770915	COLEGIO OFICIAL APAREJADOR
0000000163	2085	0130	0300266699	Oct 15 2007 12:00:00:000AM	Oct 21 2007 12:00:00:000AM	2	000000054953481	COLEGIO OFICIAL APAREJADOR
0000000164	2085	0130	0300266699	Oct 22 2007 12:00:00:000AM	Oct 28 2007 12:00:00:000AM	2	000000050120803	COLEGIO OFICIAL APAREJADOR
0000000165	2085	0130	0300266699	Oct 29 2007 12:00:00:000AM	Oct 31 2007 12:00:00:000AM	2	000000050850214	COLEGIO OFICIAL APAREJADOR
0000000166	2086	0017	0700013178	Oct  1 2007 12:00:00:000AM	Oct 31 2007 12:00:00:000AM	2	000000049002138	COLEGIO APAREJADORES      
0000000167	0049	2778	2314447398	Oct  1 2007 12:00:00:000AM	Oct 31 2007 12:00:00:000AM	2	000000005643776	CONSEJO DE COLEGIOS DE APA
0000000168	2085	0130	0300266699	Nov  1 2007 12:00:00:000AM	Nov  4 2007 12:00:00:000AM	2	000000028702350	COLEGIO OFICIAL APAREJADOR
0000000169	2085	0130	0300266699	Nov  5 2007 12:00:00:000AM	Nov 11 2007 12:00:00:000AM	1	000000065663968	COLEGIO OFICIAL APAREJADOR
0000000170	2085	0130	0300266699	Nov 12 2007 12:00:00:000AM	Nov 18 2007 12:00:00:000AM	2	000000101960253	COLEGIO OFICIAL APAREJADOR
0000000171	0049	2778	2314447398	Nov  1 2007 12:00:00:000AM	Nov 30 2007 12:00:00:000AM	2	000000005618178	CONSEJO DE COLEGIOS DE APA
0000000172	2085	0130	0300266699	Nov 19 2007 12:00:00:000AM	Nov 25 2007 12:00:00:000AM	2	000000044617017	COLEGIO OFICIAL APAREJADOR
0000000173	2085	0130	0300266699	Nov 26 2007 12:00:00:000AM	Nov 30 2007 12:00:00:000AM	2	000000042819982	COLEGIO OFICIAL APAREJADOR
0000000174	2086	0017	0700013178	Nov  1 2007 12:00:00:000AM	Nov 30 2007 12:00:00:000AM	2	000000072909516	COLEGIO APAREJADORES      
0000000175	2085	0130	0300266699	Dec  1 2007 12:00:00:000AM	Dec  9 2007 12:00:00:000AM	2	000000026721196	COLEGIO OFICIAL APAREJADOR
0000000176	2085	0130	0300266699	Dec 10 2007 12:00:00:000AM	Dec 16 2007 12:00:00:000AM	2	000000032865991	COLEGIO OFICIAL APAREJADOR
0000000177	0049	2778	2314447398	Dec  1 2007 12:00:00:000AM	Dec 31 2007 12:00:00:000AM	2	000000005478463	CONSEJO DE COLEGIOS DE APA
0000000178	2086	0017	0700013178	Dec  1 2007 12:00:00:000AM	Dec 31 2007 12:00:00:000AM	2	000000027246161	COLEGIO APAREJADORES      
0000000179	2085	0130	0300266699	Dec 17 2007 12:00:00:000AM	Dec 31 2007 12:00:00:000AM	2	000000027699215	COLEGIO OFICIAL APAREJADOR
0000000180	0049	2778	2314447398	Jan  1 2008 12:00:00:000AM	Jan 31 2008 12:00:00:000AM	2	000000005303805	CONSEJO DE COLEGIOS DE APA
0000000181	2086	0017	0700013178	Jan  1 2008 12:00:00:000AM	Jan 31 2008 12:00:00:000AM	2	000000045123390	COLEGIO APAREJADORES      
0000000182	2085	0130	0300266699	Jan  1 2008 12:00:00:000AM	Jan 13 2008 12:00:00:000AM	2	000000005560557	COLEGIO OFICIAL APAREJADOR
0000000183	2085	0130	0300266699	Jan 14 2008 12:00:00:000AM	Jan 31 2008 12:00:00:000AM	2	000000025559790	COLEGIO OFICIAL APAREJADOR
0000000184	2085	0130	0300266699	Feb  1 2008 12:00:00:000AM	Feb 17 2008 12:00:00:000AM	2	000000048145490	COLEGIO OFICIAL APAREJADOR
0000000185	2086	0017	0700013178	Feb  1 2008 12:00:00:000AM	Feb 17 2008 12:00:00:000AM	2	000000009068365	COLEGIO APAREJADORES      
0000000186	2085	0130	0300266699	Feb 18 2008 12:00:00:000AM	Feb 29 2008 12:00:00:000AM	2	000000062111986	COLEGIO OFICIAL APAREJADOR
0000000187	2086	0017	0700013178	Feb 18 2008 12:00:00:000AM	Feb 29 2008 12:00:00:000AM	2	000000019349893	COLEGIO APAREJADORES      
0000000188	0049	2778	2314447398	Feb  1 2008 12:00:00:000AM	Feb 29 2008 12:00:00:000AM	2	000000008056083	CONSEJO DE COLEGIOS DE APA
0000000189	0049	2778	2314447398	Mar  1 2008 12:00:00:000AM	Mar 31 2008 12:00:00:000AM	2	000000007797789	CONSEJO DE COLEGIOS DE APA
0000000190	2085	0130	0300266699	Mar  1 2008 12:00:00:000AM	Mar 31 2008 12:00:00:000AM	2	000000041488407	COLEGIO OFICIAL APAREJADOR
0000000191	2086	0017	0700013178	Mar  1 2008 12:00:00:000AM	Mar 31 2008 12:00:00:000AM	2	000000027430123	COLEGIO APAREJADORES      
0000000192	2085	0130	0300266699	Apr  1 2008 12:00:00:000AM	Apr 27 2008 12:00:00:000AM	2	000000024275570	COLEGIO OFICIAL APAREJADOR
0000000193	2086	0017	0700013178	Apr  1 2008 12:00:00:000AM	Apr 20 2008 12:00:00:000AM	2	000000020602001	COLEGIO APAREJADORES      
0000000194	2086	0017	0700013178	Apr 21 2008 12:00:00:000AM	Apr 30 2008 12:00:00:000AM	2	000000031568734	COLEGIO APAREJADORES      
0000000195	2085	0130	0300266699	Apr 28 2008 12:00:00:000AM	Apr 30 2008 12:00:00:000AM	2	000000011046067	COLEGIO OFICIAL APAREJADOR
0000000196	2085	0130	0300266699	May  1 2008 12:00:00:000AM	May 31 2008 12:00:00:000AM	2	000000072374003	COLEGIO OFICIAL APAREJADOR
0000000197	2086	0017	0700013178	May  1 2008 12:00:00:000AM	May 31 2008 12:00:00:000AM	2	000000016353025	COLEGIO APAREJADORES      
0000000198	0049	2778	2314447398	Apr  1 2008 12:00:00:000AM	Apr 30 2008 12:00:00:000AM	2	000000007602703	CONSEJO DE COLEGIOS DE APA
0000000199	0049	2778	2314447398	May  1 2008 12:00:00:000AM	May 31 2008 12:00:00:000AM	2	000000007248875	CONSEJO DE COLEGIOS DE APA
0000000200	2085	0130	0300266699	Jun  1 2008 12:00:00:000AM	Jun 30 2008 12:00:00:000AM	2	000000050537716	COLEGIO OFICIAL APAREJADOR
0000000201	2086	0017	0700013178	Jun  1 2008 12:00:00:000AM	Jun 30 2008 12:00:00:000AM	2	000000036352777	COLEGIO APAREJADORES      
0000000202	0049	2778	2314447398	Jun  1 2008 12:00:00:000AM	Jun 30 2008 12:00:00:000AM	2	000000006877678	CONSEJO DE COLEGIOS DE APA
0000000203	2085	0130	0300266699	Jul  1 2008 12:00:00:000AM	Jul 27 2008 12:00:00:000AM	2	000000007201094	COLEGIO OFICIAL APAREJADOR
0000000204	2086	0017	0700013178	Jul  1 2008 12:00:00:000AM	Jul 27 2008 12:00:00:000AM	2	000000054441646	COLEGIO APAREJADORES      
0000000205	2085	0130	0300266699	Jul 28 2008 12:00:00:000AM	Jul 31 2008 12:00:00:000AM	2	000000022299143	COLEGIO OFICIAL APAREJADOR
0000000206	2086	0017	0700013178	Jul 28 2008 12:00:00:000AM	Jul 31 2008 12:00:00:000AM	2	000000033905636	COLEGIO APAREJADORES      
0000000207	2086	0017	0700013178	Aug  1 2008 12:00:00:000AM	Aug 31 2008 12:00:00:000AM	2	000000010383756	COLEGIO APAREJADORES      
0000000208	2085	0130	0300266699	Aug  1 2008 12:00:00:000AM	Aug 31 2008 12:00:00:000AM	2	000000036913946	COLEGIO OFICIAL APAREJADOR
0000000209	0049	2778	2314447398	Jul  1 2008 12:00:00:000AM	Jul 31 2008 12:00:00:000AM	2	000000006690303	CONSEJO DE COLEGIOS DE APA
0000000210	0049	2778	2314447398	Aug  1 2008 12:00:00:000AM	Aug 31 2008 12:00:00:000AM	2	000000006232079	CONSEJO DE COLEGIOS DE APA
0000000211	2085	0130	0300266699	Sep  1 2008 12:00:00:000AM	Sep 14 2008 12:00:00:000AM	2	000000025535308	COLEGIO OFICIAL APAREJADOR
0000000212	2085	0130	0300266699	Sep 15 2008 12:00:00:000AM	Sep 28 2008 12:00:00:000AM	2	000000032506080	COLEGIO OFICIAL APAREJADOR
0000000213	2086	0017	0700013178	Sep  1 2008 12:00:00:000AM	Sep 28 2008 12:00:00:000AM	2	000000020849012	COLEGIO APAREJADORES      
0000000214	2085	0130	0300266699	Sep 29 2008 12:00:00:000AM	Sep 30 2008 12:00:00:000AM	2	000000021454493	COLEGIO OFICIAL APAREJADOR
0000000215	2086	0017	0700013178	Sep 29 2008 12:00:00:000AM	Sep 30 2008 12:00:00:000AM	2	000000034842969	COLEGIO APAREJADORES      
0000000216	0049	2778	2314447398	Sep  1 2008 12:00:00:000AM	Sep 30 2008 12:00:00:000AM	2	000000006098918	CONSEJO DE COLEGIOS DE APA
0000000217	2085	0130	0300266699	Oct  1 2008 12:00:00:000AM	Oct 26 2008 12:00:00:000AM	2	000000039810484	COLEGIO OFICIAL APAREJADOR
0000000218	2086	0017	0700013178	Oct  1 2008 12:00:00:000AM	Oct 26 2008 12:00:00:000AM	2	000000016058024	COLEGIO APAREJADORES      
0000000219	2085	0130	0300266699	Oct 27 2008 12:00:00:000AM	Oct 31 2008 12:00:00:000AM	2	000000107127239	COLEGIO OFICIAL APAREJADOR
0000000220	2086	0017	0700013178	Oct 27 2008 12:00:00:000AM	Oct 31 2008 12:00:00:000AM	2	000000035520787	COLEGIO APAREJADORES      
0000000221	0049	2778	2314447398	Oct  1 2008 12:00:00:000AM	Oct 31 2008 12:00:00:000AM	2	000000006224880	CONSEJO DE COLEGIOS DE APA
0000000222	0049	2778	2314447398	Nov  1 2008 12:00:00:000AM	Nov 30 2008 12:00:00:000AM	2	000000006171891	CONSEJO DE COLEGIOS DE APA
0000000223	2085	0130	0300266699	Nov  1 2008 12:00:00:000AM	Nov 30 2008 12:00:00:000AM	2	000000070455799	COLEGIO OFICIAL APAREJADOR
0000000224	2086	0017	0700013178	Nov  1 2008 12:00:00:000AM	Nov 30 2008 12:00:00:000AM	2	000000040984495	COLEGIO APAREJADORES      
0000000225	2085	0130	0300266699	Dec  1 2008 12:00:00:000AM	Dec 21 2008 12:00:00:000AM	2	000000026871591	COLEGIO OFICIAL APAREJADOR
0000000226	2086	0017	0700013178	Dec  1 2008 12:00:00:000AM	Dec 21 2008 12:00:00:000AM	2	000000042159507	COLEGIO APAREJADORES      
0000000227	2085	0130	0300266699	Dec 22 2008 12:00:00:000AM	Dec 28 2008 12:00:00:000AM	2	000000057683257	COLEGIO OFICIAL APAREJADOR
0000000228	2086	0017	0700013178	Dec 22 2008 12:00:00:000AM	Dec 28 2008 12:00:00:000AM	2	000000021994983	COLEGIO APAREJADORES      
0000000229	2085	0130	0300266699	Dec 29 2008 12:00:00:000AM	Dec 31 2008 12:00:00:000AM	2	000000046396820	COLEGIO OFICIAL APAREJADOR
0000000230	0049	2778	2314447398	Dec  1 2008 12:00:00:000AM	Dec 31 2008 12:00:00:000AM	2	000000006483263	CONSEJO DE COLEGIOS DE APA
0000000231	2086	0017	0700013178	Dec 29 2008 12:00:00:000AM	Dec 31 2008 12:00:00:000AM	2	000000024534474	COLEGIO APAREJADORES      
0000000232	0049	2778	2314447398	Jan  1 2009 12:00:00:000AM	Jan 31 2009 12:00:00:000AM	2	000000005911092	0000000000NOMBRE ABREVIADO
0000000233	2086	0017	0700013178	Jan  1 2009 12:00:00:000AM	Jan 31 2009 12:00:00:000AM	2	000000025557904	COLEGIO APAREJADORES      
0000000234	2085	0130	0300266699	Jan  1 2009 12:00:00:000AM	Jan 31 2009 12:00:00:000AM	2	000000042754190	COLEGIO OFICIAL APAREJADOR
0000000235	0049	2778	2314447398	Feb  1 2009 12:00:00:000AM	Feb 28 2009 12:00:00:000AM	2	000000005454557	0000000000NOMBRE ABREVIADO
0000000236	2085	0130	0300266699	Feb  1 2009 12:00:00:000AM	Feb 28 2009 12:00:00:000AM	2	000000065566022	COLEGIO OFICIAL APAREJADOR
0000000237	2086	0017	0700013178	Feb  1 2009 12:00:00:000AM	Feb 28 2009 12:00:00:000AM	2	000000017229584	COLEGIO APAREJADORES      
0000000238	2085	0130	0300266699	Mar  1 2009 12:00:00:000AM	Mar 29 2009 12:00:00:000AM	2	000000045647669	Q5075002E COLEGIO OFICIAL 
0000000239	0049	2778	2314447398	Mar  1 2009 12:00:00:000AM	Mar 31 2009 12:00:00:000AM	2	000000005357838	0000000000NOMBRE ABREVIADO
0000000240	2085	0130	0300266699	Mar 30 2009 12:00:00:000AM	Mar 31 2009 12:00:00:000AM	2	000000138154007	Q5075002E COLEGIO OFICIAL 
0000000241	2085	0130	0300266699	Apr  1 2009 12:00:00:000AM	Apr 19 2009 12:00:00:000AM	2	000000128592605	Q5075002E COLEGIO OFICIAL 
0000000242	2086	0017	0700013178	Mar  1 2009 12:00:00:000AM	Mar 31 2009 12:00:00:000AM	2	000000036228354	COLEGIO APAREJADORES      
0000000243	2085	0130	0300266699	Apr 20 2009 12:00:00:000AM	Apr 30 2009 12:00:00:000AM	2	000000132058620	Q5075002E COLEGIO OFICIAL 
0000000244	2086	0017	0700013178	Apr  1 2009 12:00:00:000AM	Apr 30 2009 12:00:00:000AM	2	000000025120449	COLEGIO APAREJADORES      
0000000245	0049	2778	2314447398	Apr  1 2009 12:00:00:000AM	Apr 30 2009 12:00:00:000AM	2	000000007337104	0000000000NOMBRE ABREVIADO
0000000246	2085	0130	0300266699	May  1 2009 12:00:00:000AM	May 17 2009 12:00:00:000AM	2	000000002752335	Q5075002E COLEGIO OFICIAL 
0000000247	2085	0130	0330468172	Apr 29 2009 12:00:00:000AM	May 17 2009 12:00:00:000AM	2	000000000000000	Q5075002E COLEGIO OFICIAL 
0000000248	2086	0017	0700013178	May  1 2009 12:00:00:000AM	May 17 2009 12:00:00:000AM	2	000000016041461	COLEGIO APAREJADORES      
0000000249	2085	0130	0300266699	May 18 2009 12:00:00:000AM	May 31 2009 12:00:00:000AM	2	000000013582793	Q5075002E COLEGIO OFICIAL 
0000000250	2085	0130	0330468172	May 18 2009 12:00:00:000AM	May 31 2009 12:00:00:000AM	2	000000055632529	Q5075002E COLEGIO OFICIAL 
0000000251	2086	0017	0700013178	May 18 2009 12:00:00:000AM	May 31 2009 12:00:00:000AM	2	000000022336779	COLEGIO APAREJADORES      
0000000252	0049	2778	2314447398	May  1 2009 12:00:00:000AM	May 31 2009 12:00:00:000AM	2	000000007395837	0000000000NOMBRE ABREVIADO
0000000253	2085	0130	0330468172	Jun  1 2009 12:00:00:000AM	Jun 30 2009 12:00:00:000AM	2	000000040630951	Q5075002E COLEGIO OFICIAL 
0000000254	2085	0130	0300266699	Jun  1 2009 12:00:00:000AM	Jun 30 2009 12:00:00:000AM	2	000000018497608	Q5075002E COLEGIO OFICIAL 
0000000255	2086	0017	0700013178	Jun  1 2009 12:00:00:000AM	Jun 30 2009 12:00:00:000AM	2	000000010862310	COLEGIO APAREJADORES      
0000000256	0049	2778	2314447398	Jun  1 2009 12:00:00:000AM	Jun 30 2009 12:00:00:000AM	2	000000007260434	0000000000NOMBRE ABREVIADO
0000000257	2085	0130	0330468172	Jul  1 2009 12:00:00:000AM	Jul 26 2009 12:00:00:000AM	2	000000027280107	Q5075002E COLEGIO OFICIAL 
0000000258	2085	0130	0300266699	Jul  1 2009 12:00:00:000AM	Jul 26 2009 12:00:00:000AM	2	000000008191042	Q5075002E COLEGIO OFICIAL 
0000000259	2086	0017	0700013178	Jul  1 2009 12:00:00:000AM	Jul 26 2009 12:00:00:000AM	2	000000012677279	COLEGIO APAREJADORES      
0000000260	0049	2778	2314447398	Jul  1 2009 12:00:00:000AM	Jul 31 2009 12:00:00:000AM	2	000000006705209	0000000000NOMBRE ABREVIADO
0000000268	2086	0017	0700013178	Jul 27 2009 12:00:00:000AM	Jul 31 2009 12:00:00:000AM	2	000000012652995	COLEGIO APAREJADORES      
0000000269	2085	0130	0330468172	Jul 27 2009 12:00:00:000AM	Jul 31 2009 12:00:00:000AM	2	000000174192957	Q5075002E COLEGIO OFICIAL 
0000000270	2085	0130	0300266699	Jul 27 2009 12:00:00:000AM	Jul 31 2009 12:00:00:000AM	2	000000009475297	Q5075002E COLEGIO OFICIAL 
0000000271	2085	0130	0330468172	Aug  1 2009 12:00:00:000AM	Aug 23 2009 12:00:00:000AM	2	000000055970346	Q5075002E COLEGIO OFICIAL 
0000000272	2085	0130	0300266699	Aug  1 2009 12:00:00:000AM	Aug 23 2009 12:00:00:000AM	2	000000000643447	Q5075002E COLEGIO OFICIAL 
0000000273	2085	0130	0330468172	Aug 24 2009 12:00:00:000AM	Aug 31 2009 12:00:00:000AM	2	000000058916689	Q5075002E COLEGIO OFICIAL 
0000000276	2085	0130	0300266699	Aug 24 2009 12:00:00:000AM	Aug 31 2009 12:00:00:000AM	2	000000002271273	Q5075002E COLEGIO OFICIAL 
0000000277	0049	2778	2314447398	Aug  1 2009 12:00:00:000AM	Aug 31 2009 12:00:00:000AM	2	000000006465686	0000000000NOMBRE ABREVIADO
0000000278	2086	0017	0700013178	Aug  1 2009 12:00:00:000AM	Aug 31 2009 12:00:00:000AM	2	000000002993240	COLEGIO APAREJADORES      
0000000279	2085	0130	0330468172	Sep  1 2009 12:00:00:000AM	Sep 27 2009 12:00:00:000AM	2	000000042108056	Q5075002E COLEGIO OFICIAL 
0000000284	2086	0017	0700013178	Sep  1 2009 12:00:00:000AM	Sep 30 2009 12:00:00:000AM	2	000000010337726	COLEGIO APAREJADORES      
0000000285	2085	0130	0330468172	Sep 28 2009 12:00:00:000AM	Sep 30 2009 12:00:00:000AM	2	000000050660042	Q5075002E COLEGIO OFICIAL 
0000000286	0049	2778	2314447398	Sep  1 2009 12:00:00:000AM	Sep 30 2009 12:00:00:000AM	2	000000006305720	0000000000NOMBRE ABREVIADO
0000000287	0049	2778	2314447398	Oct  1 2009 12:00:00:000AM	Oct 31 2009 12:00:00:000AM	2	000000006333594	0000000000NOMBRE ABREVIADO
0000000288	2085	0130	0330468172	Oct  1 2009 12:00:00:000AM	Oct 31 2009 12:00:00:000AM	2	000000064762110	Q5075002E COLEGIO OFICIAL 
0000000289	2086	0017	0700013178	Oct  1 2009 12:00:00:000AM	Oct 31 2009 12:00:00:000AM	2	000000020352822	COLEGIO APAREJADORES      
0000000290	2085	0130	0330468172	Nov  1 2009 12:00:00:000AM	Nov 15 2009 12:00:00:000AM	2	000000042935357	Q5075002E COLEGIO OFICIAL 
0000000291	2085	0130	0330468172	Nov 16 2009 12:00:00:000AM	Nov 29 2009 12:00:00:000AM	2	000000048902994	Q5075002E COLEGIO OFICIAL 
0000000292	2086	0017	0700013178	Nov  1 2009 12:00:00:000AM	Nov 30 2009 12:00:00:000AM	2	000000016749166	COLEGIO APAREJADORES      
0000000293	2085	0130	0330468172	Nov 30 2009 12:00:00:000AM	Nov 30 2009 12:00:00:000AM	2	000000055903860	Q5075002E COLEGIO OFICIAL 
0000000294	2085	0130	0330468172	Dec  1 2009 12:00:00:000AM	Dec 13 2009 12:00:00:000AM	2	000000013438839	Q5075002E COLEGIO OFICIAL 
0000000295	0049	2778	2314447398	Nov  1 2009 12:00:00:000AM	Nov 30 2009 12:00:00:000AM	2	000000006074949	0000000000NOMBRE ABREVIADO
0000000296	2085	0130	0330468172	Dec 14 2009 12:00:00:000AM	Dec 18 2009 12:00:00:000AM	2	000000087710012	Q5075002E COLEGIO OFICIAL 
0000000297	2086	0017	0700013178	Dec  1 2009 12:00:00:000AM	Dec 18 2009 12:00:00:000AM	2	000000026099007	COLEGIO APAREJADORES      
0000000298	2085	0130	0330468172	Dec 19 2009 12:00:00:000AM	Dec 27 2009 12:00:00:000AM	2	000000072124664	Q5075002E COLEGIO OFICIAL 
0000000299	2086	0017	0700013178	Dec 19 2009 12:00:00:000AM	Dec 27 2009 12:00:00:000AM	2	000000007669545	COLEGIO APAREJADORES      
0000000300	2085	0130	0330468172	Dec 28 2009 12:00:00:000AM	Dec 31 2009 12:00:00:000AM	2	000000056319296	Q5075002E COLEGIO OFICIAL 
0000000301	0049	2778	2314447398	Dec  1 2009 12:00:00:000AM	Dec 31 2009 12:00:00:000AM	2	000000006001234	0000000000NOMBRE ABREVIADO
0000000302	2086	0017	0700013178	Dec 28 2009 12:00:00:000AM	Dec 31 2009 12:00:00:000AM	2	000000010913054	COLEGIO APAREJADORES      
0000000303	0049	2778	2314447398	Jan  1 2010 12:00:00:000AM	Jan 31 2010 12:00:00:000AM	2	000000005730068	0000000000NOMBRE ABREVIADO
0000000304	2085	0130	0330468172	Jan  1 2010 12:00:00:000AM	Jan 31 2010 12:00:00:000AM	2	000000051870903	Q5075002E COLEGIO OFICIAL 
0000000305	2086	0017	0700013178	Jan  1 2010 12:00:00:000AM	Jan 31 2010 12:00:00:000AM	2	000000012573968	COLEGIO APAREJADORES      
0000000306	2086	0017	0700013178	Feb  1 2010 12:00:00:000AM	Feb 28 2010 12:00:00:000AM	2	000000021686283	COLEGIO APAREJADORES      
0000000307	2085	0130	0330468172	Feb  1 2010 12:00:00:000AM	Feb 28 2010 12:00:00:000AM	2	000000079313463	Q5075002E COLEGIO OFICIAL 
0000000308	0049	2778	2314447398	Feb  1 2010 12:00:00:000AM	Feb 28 2010 12:00:00:000AM	2	000000007907229	0000000000NOMBRE ABREVIADO
0000000309	2086	0017	0700013178	Mar  1 2010 12:00:00:000AM	Mar 31 2010 12:00:00:000AM	2	000000028511462	COLEGIO APAREJADORES      
0000000310	2085	0130	0330468172	Mar  1 2010 12:00:00:000AM	Mar 31 2010 12:00:00:000AM	2	000000067857451	Q5075002E COLEGIO OFICIAL 
0000000311	0049	2778	2314447398	Mar  1 2010 12:00:00:000AM	Mar 31 2010 12:00:00:000AM	2	000000007236289	0000000000NOMBRE ABREVIADO
0000000312	2085	0130	0330468172	Apr  1 2010 12:00:00:000AM	Apr 25 2010 12:00:00:000AM	2	000000042130197	Q5075002E COLEGIO OFICIAL 
0000000313	2086	0017	0700013178	Apr  1 2010 12:00:00:000AM	Apr 25 2010 12:00:00:000AM	2	000000025282688	COLEGIO APAREJADORES      
0000000314	2085	0130	0330468172	Apr 26 2010 12:00:00:000AM	Apr 30 2010 12:00:00:000AM	2	000000035549244	Q5075002E COLEGIO OFICIAL 
0000000315	2086	0017	0700013178	Apr 26 2010 12:00:00:000AM	Apr 30 2010 12:00:00:000AM	2	000000010972475	COLEGIO APAREJADORES      
0000000316	0049	2778	2314447398	Apr  1 2010 12:00:00:000AM	Apr 30 2010 12:00:00:000AM	2	000000007104151	0000000000NOMBRE ABREVIADO
0000000317	2086	0017	0700013178	May  1 2010 12:00:00:000AM	May  9 2010 12:00:00:000AM	2	000000013319257	COLEGIO APAREJADORES      
0000000318	2086	0017	0700013178	May 10 2010 12:00:00:000AM	May 16 2010 12:00:00:000AM	2	000000004475005	COLEGIO APAREJADORES      
0000000319	2085	0130	0330468172	May  1 2010 12:00:00:000AM	May 16 2010 12:00:00:000AM	2	000000166397214	Q5075002E COLEGIO OFICIAL 
0000000320	2085	0130	0330468172	May 17 2010 12:00:00:000AM	May 23 2010 12:00:00:000AM	2	000000104557847	Q5075002E COLEGIO OFICIAL 
0000000321	2086	0017	0700013178	May 17 2010 12:00:00:000AM	May 23 2010 12:00:00:000AM	2	000000006823577	COLEGIO APAREJADORES      
0000000322	2085	0130	0330468172	May 24 2010 12:00:00:000AM	May 31 2010 12:00:00:000AM	2	000000105792072	Q5075002E COLEGIO OFICIAL 
0000000323	2086	0017	0700013178	May 24 2010 12:00:00:000AM	May 31 2010 12:00:00:000AM	2	000000010638244	COLEGIO APAREJADORES      
0000000324	2085	0130	0330468172	Jun  1 2010 12:00:00:000AM	Jun 13 2010 12:00:00:000AM	2	000000081989063	Q5075002E COLEGIO OFICIAL 
0000000325	2086	0017	0700013178	Jun  1 2010 12:00:00:000AM	Jun  6 2010 12:00:00:000AM	2	000000016175223	COLEGIO APAREJADORES      
0000000326	2086	0017	0700013178	Jun  7 2010 12:00:00:000AM	Jun 13 2010 12:00:00:000AM	2	000000018472940	COLEGIO APAREJADORES      
0000000327	2085	0130	0330468172	Jun 14 2010 12:00:00:000AM	Jun 20 2010 12:00:00:000AM	2	000000052422600	Q5075002E COLEGIO OFICIAL 
0000000328	2086	0017	0700013178	Jun 14 2010 12:00:00:000AM	Jun 20 2010 12:00:00:000AM	2	000000021608903	COLEGIO APAREJADORES      
0000000329	2085	0130	0330468172	Jun 21 2010 12:00:00:000AM	Jun 27 2010 12:00:00:000AM	2	000000052971406	Q5075002E COLEGIO OFICIAL 
0000000330	2086	0017	0700013178	Jun 21 2010 12:00:00:000AM	Jun 27 2010 12:00:00:000AM	2	000000022784568	COLEGIO APAREJADORES      
0000000331	2085	0130	0330468172	Jun 28 2010 12:00:00:000AM	Jun 29 2010 12:00:00:000AM	2	000000049260116	Q5075002E COLEGIO OFICIAL 
0000000332	0049	2778	2314447398	May  1 2010 12:00:00:000AM	May 31 2010 12:00:00:000AM	2	000000006757671	0000000000NOMBRE ABREVIADO
0000000333	0049	2778	2314447398	Jun  1 2010 12:00:00:000AM	Jun 30 2010 12:00:00:000AM	2	000000006806067	0000000000NOMBRE ABREVIADO
0000000334	2085	0130	0330468172	Jun 30 2010 12:00:00:000AM	Jun 30 2010 12:00:00:000AM	2	000000045604155	Q5075002E COLEGIO OFICIAL 
0000000335	2085	0130	0330468172	Jul  1 2010 12:00:00:000AM	Jul 21 2010 12:00:00:000AM	2	000000044151675	Q5075002E COLEGIO OFICIAL 
0000000336	2086	0017	0700013178	Jun 28 2010 12:00:00:000AM	Jun 30 2010 12:00:00:000AM	2	000000025964560	COLEGIO APAREJADORES      
0000000337	2086	0017	0700013178	Jul  1 2010 12:00:00:000AM	Jul 21 2010 12:00:00:000AM	2	000000027418221	COLEGIO APAREJADORES      
0000000338	2085	0130	0330468172	Jul 22 2010 12:00:00:000AM	Jul 27 2010 12:00:00:000AM	2	000000061533108	Q5075002E COLEGIO OFICIAL 
0000000339	2086	0017	0700013178	Jul 22 2010 12:00:00:000AM	Jul 27 2010 12:00:00:000AM	2	000000037771653	COLEGIO APAREJADORES      
0000000340	2086	0017	0700013178	Jul 28 2010 12:00:00:000AM	Jul 31 2010 12:00:00:000AM	2	000000019971607	COLEGIO APAREJADORES      
0000000341	2086	0017	0700013178	Aug  1 2010 12:00:00:000AM	Aug 26 2010 12:00:00:000AM	2	000000021248976	COLEGIO APAREJADORES      
0000000342	2085	0130	0330468172	Jul 28 2010 12:00:00:000AM	Jul 31 2010 12:00:00:000AM	2	000000048086300	Q5075002E COLEGIO OFICIAL 
0000000343	2085	0130	0330468172	Aug  1 2010 12:00:00:000AM	Aug 31 2010 12:00:00:000AM	2	000000042717610	Q5075002E COLEGIO OFICIAL 
0000000344	2086	0017	0700013178	Aug 27 2010 12:00:00:000AM	Aug 31 2010 12:00:00:000AM	2	000000030042945	COLEGIO APAREJADORES      
0000000345	2086	0017	0700013178	Sep  1 2010 12:00:00:000AM	Sep 15 2010 12:00:00:000AM	2	000000030598001	COLEGIO APAREJADORES      
0000000346	2085	0130	0330468172	Sep  1 2010 12:00:00:000AM	Sep 19 2010 12:00:00:000AM	2	000000044127748	Q5075002E COLEGIO OFICIAL 
0000000347	0049	2778	2314447398	Jul  1 2010 12:00:00:000AM	Jul 31 2010 12:00:00:000AM	2	000000006826689	0000000000NOMBRE ABREVIADO
0000000348	0049	2778	2314447398	Aug  1 2010 12:00:00:000AM	Aug 31 2010 12:00:00:000AM	2	000000006415272	0000000000NOMBRE ABREVIADO
0000000349	0049	2778	2314447398	Sep  1 2010 12:00:00:000AM	Sep 30 2010 12:00:00:000AM	2	000000006257196	0000000000NOMBRE ABREVIADO
0000000350	2086	0017	0700013178	Sep 16 2010 12:00:00:000AM	Sep 30 2010 12:00:00:000AM	2	000000019003863	COLEGIO APAREJADORES      
0000000351	2085	0130	0330468172	Sep 20 2010 12:00:00:000AM	Sep 30 2010 12:00:00:000AM	2	000000047849208	Q5075002E COLEGIO OFICIAL 
0000000352	2085	0130	0330468172	Oct  1 2010 12:00:00:000AM	Oct 20 2010 12:00:00:000AM	2	000000042421995	Q5075002E COLEGIO OFICIAL 
0000000353	2086	0017	0700013178	Oct  1 2010 12:00:00:000AM	Oct 24 2010 12:00:00:000AM	2	000000020914228	COLEGIO APAREJADORES      
0000000354	2085	0130	0330468172	Oct 21 2010 12:00:00:000AM	Oct 31 2010 12:00:00:000AM	2	000000043326186	Q5075002E COLEGIO OFICIAL 
0000000355	2086	0017	0700013178	Oct 25 2010 12:00:00:000AM	Oct 31 2010 12:00:00:000AM	2	000000025490039	COLEGIO APAREJADORES      
0000000356	2085	0130	0330468172	Nov  1 2010 12:00:00:000AM	Nov 14 2010 12:00:00:000AM	2	000000033491651	Q5075002E COLEGIO OFICIAL 
0000000357	2086	0017	0700013178	Nov  1 2010 12:00:00:000AM	Nov 14 2010 12:00:00:000AM	2	000000027838130	COLEGIO APAREJADORES      
0000000358	0049	2778	2314447398	Oct  1 2010 12:00:00:000AM	Oct 31 2010 12:00:00:000AM	2	000000006287382	0000000000NOMBRE ABREVIADO
0000000359	0049	2778	2314447398	Nov  1 2010 12:00:00:000AM	Nov 30 2010 12:00:00:000AM	2	000000006004388	0000000000NOMBRE ABREVIADO
0000000362	2085	0130	0330468172	Nov 15 2010 12:00:00:000AM	Nov 30 2010 12:00:00:000AM	2	000000058517000	Q5075002E COLEGIO OFICIAL 
0000000363	2086	0017	0700013178	Nov 15 2010 12:00:00:000AM	Nov 30 2010 12:00:00:000AM	2	000000011655382	COLEGIO APAREJADORES      
0000000364	2085	0130	0330468172	Dec  1 2010 12:00:00:000AM	Dec 26 2010 12:00:00:000AM	2	000000053553008	Q5075002E COLEGIO OFICIAL 
0000000365	2086	0017	0700013178	Dec  1 2010 12:00:00:000AM	Dec 26 2010 12:00:00:000AM	2	000000018040191	COLEGIO APAREJADORES      
0000000366	2085	0130	0330468172	Dec 27 2010 12:00:00:000AM	Dec 28 2010 12:00:00:000AM	2	000000045253977	Q5075002E COLEGIO OFICIAL 
0000000367	2086	0017	0700013178	Dec 27 2010 12:00:00:000AM	Dec 28 2010 12:00:00:000AM	2	000000025922084	COLEGIO APAREJADORES      
0000000368	0049	2778	2314447398	Dec  1 2010 12:00:00:000AM	Dec 31 2010 12:00:00:000AM	2	000000006055593	0000000000NOMBRE ABREVIADO
0000000369	2085	0130	0330468172	Dec 29 2010 12:00:00:000AM	Dec 31 2010 12:00:00:000AM	2	000000045652791	Q5075002E COLEGIO OFICIAL 
0000000370	2086	0017	0700013178	Dec 29 2010 12:00:00:000AM	Dec 31 2010 12:00:00:000AM	2	000000026527287	COLEGIO APAREJADORES      
0000000371	2085	0130	0330468172	Jan  1 2011 12:00:00:000AM	Jan 31 2011 12:00:00:000AM	2	000000035617261	Q5075002E COLEGIO OFICIAL 
0000000374	2086	0017	0700013178	Jan  1 2011 12:00:00:000AM	Jan 31 2011 12:00:00:000AM	2	000000028447802	COLEGIO APAREJADORES      
0000000375	0049	2778	2314447398	Jan  1 2011 12:00:00:000AM	Jan 31 2011 12:00:00:000AM	2	000000006445041	0000000000NOMBRE ABREVIADO
0000000376	2085	0130	0330468172	Feb  1 2011 12:00:00:000AM	Feb 20 2011 12:00:00:000AM	2	000000067819932	Q5075002E COLEGIO OFICIAL 
0000000377	2085	0130	0330468172	Feb 21 2011 12:00:00:000AM	Feb 28 2011 12:00:00:000AM	2	000000076022175	Q5075002E COLEGIO OFICIAL 
0000000378	2086	0017	0700013178	Feb  1 2011 12:00:00:000AM	Feb 28 2011 12:00:00:000AM	2	000000038439715	COLEGIO APAREJADORES      
0000000379	0049	2778	2314447398	Feb  1 2011 12:00:00:000AM	Feb 28 2011 12:00:00:000AM	2	000000005579031	0000000000NOMBRE ABREVIADO
0000000380	2085	0130	0330468172	Mar  1 2011 12:00:00:000AM	Mar 31 2011 12:00:00:000AM	2	000000065519843	Q5075002E COLEGIO OFICIAL 
0000000381	2086	0017	0700013178	Mar  1 2011 12:00:00:000AM	Mar 31 2011 12:00:00:000AM	2	000000044312961	COLEGIO APAREJADORES      
0000000382	0049	2778	2314447398	Mar  1 2011 12:00:00:000AM	Mar 31 2011 12:00:00:000AM	2	000000004115037	0000000000NOMBRE ABREVIADO
0000000383	2085	0130	0330468172	Apr  1 2011 12:00:00:000AM	Apr 17 2011 12:00:00:000AM	2	000000049448714	Q5075002E COLEGIO OFICIAL 
0000000384	2086	0017	0700013178	Apr  1 2011 12:00:00:000AM	Apr 10 2011 12:00:00:000AM	2	000000016294165	COLEGIO APAREJADORES      
0000000385	2085	0130	0330468172	Apr 18 2011 12:00:00:000AM	Apr 30 2011 12:00:00:000AM	2	000000162227423	Q5075002E COLEGIO OFICIAL 
0000000386	2085	0130	0330468172	May  1 2011 12:00:00:000AM	May  8 2011 12:00:00:000AM	2	000000127209221	Q5075002E COLEGIO OFICIAL 
0000000387	2086	0017	0700013178	Apr 11 2011 12:00:00:000AM	Apr 30 2011 12:00:00:000AM	2	000000017545932	COLEGIO APAREJADORES      
0000000388	2086	0017	0700013178	May  1 2011 12:00:00:000AM	May  8 2011 12:00:00:000AM	2	000000024047378	COLEGIO APAREJADORES      
0000000389	2085	0130	0330468172	May  9 2011 12:00:00:000AM	May 22 2011 12:00:00:000AM	2	000000090541806	Q5075002E COLEGIO OFICIAL 
0000000390	2086	0017	0700013178	May  9 2011 12:00:00:000AM	May 22 2011 12:00:00:000AM	2	000000025020890	COLEGIO APAREJADORES      
0000000391	0049	2778	2314447398	Apr  1 2011 12:00:00:000AM	Apr 30 2011 12:00:00:000AM	2	000000004436580	0000000000NOMBRE ABREVIADO
0000000392	0049	2778	2314447398	May  1 2011 12:00:00:000AM	May 31 2011 12:00:00:000AM	2	000000004665079	0000000000NOMBRE ABREVIADO
0000000393	2086	0017	0700013178	May 23 2011 12:00:00:000AM	May 31 2011 12:00:00:000AM	2	000000029120904	COLEGIO APAREJADORES      
0000000394	2085	0130	0330468172	May 23 2011 12:00:00:000AM	May 31 2011 12:00:00:000AM	2	000000091462113	Q5075002E COLEGIO OFICIAL 
0000000395	2085	0130	0330468172	Jun  1 2011 12:00:00:000AM	Jun  5 2011 12:00:00:000AM	2	000000076123720	Q5075002E COLEGIO OFICIAL 
0000000400	2085	0130	0330468172	Jun  6 2011 12:00:00:000AM	Jun 12 2011 12:00:00:000AM	2	000000041162870	Q5075002E COLEGIO OFICIAL 
0000000402	2086	0017	0700013178	Jun  1 2011 12:00:00:000AM	Jun 12 2011 12:00:00:000AM	2	000000030609079	COLEGIO APAREJADORES      
0000000403	2085	0130	0330468172	Jun 13 2011 12:00:00:000AM	Jun 22 2011 12:00:00:000AM	2	000000044633338	Q5075002E COLEGIO OFICIAL 
0000000404	2086	0017	0700013178	Jun 13 2011 12:00:00:000AM	Jun 22 2011 12:00:00:000AM	2	000000031720949	COLEGIO APAREJADORES      
0000000405	2085	0130	0330468172	Jun 23 2011 12:00:00:000AM	Jun 30 2011 12:00:00:000AM	2	000000045820646	Q5075002E COLEGIO OFICIAL 
0000000406	0049	2778	2314447398	Jun  1 2011 12:00:00:000AM	Jun 30 2011 12:00:00:000AM	2	000000004820277	0000000000NOMBRE ABREVIADO
0000000407	2086	0017	0700013178	Jun 23 2011 12:00:00:000AM	Jun 30 2011 12:00:00:000AM	2	000000033946376	COLEGIO APAREJADORES      
0000000408	2086	0017	0700013178	Jul  1 2011 12:00:00:000AM	Jul 12 2011 12:00:00:000AM	2	000000035670624	COLEGIO APAREJADORES      
0000000409	2085	0130	0330501112	Jan  1 2011 12:00:00:000AM	Jun 30 2011 12:00:00:000AM	2	000000006000000	B99287260 COAATIEZ SERVICI
0000000410	2085	0130	0330501112	Jul  1 2011 12:00:00:000AM	Jul 24 2011 12:00:00:000AM	2	000000005575113	B99287260 COAATIEZ SERVICI
0000000411	2085	0130	0330468172	Jul  1 2011 12:00:00:000AM	Jul 24 2011 12:00:00:000AM	2	000000032830594	Q5075002E COLEGIO OFICIAL 
0000000412	2086	0017	0700013178	Jul 13 2011 12:00:00:000AM	Jul 24 2011 12:00:00:000AM	2	000000037737026	COLEGIO APAREJADORES      
0000000413	0049	2778	2314447398	Jul  1 2011 12:00:00:000AM	Jul 31 2011 12:00:00:000AM	2	000000005186160	0000000000NOMBRE ABREVIADO
0000000414	2086	0017	0700013178	Jul 25 2011 12:00:00:000AM	Jul 31 2011 12:00:00:000AM	2	000000039326606	COLEGIO APAREJADORES      
0000000415	2086	0017	0700013178	Aug  1 2011 12:00:00:000AM	Aug 21 2011 12:00:00:000AM	2	000000042125067	COLEGIO APAREJADORES      
0000000416	2085	0130	0330468172	Jul 25 2011 12:00:00:000AM	Jul 31 2011 12:00:00:000AM	2	000000026778793	Q5075002E COLEGIO OFICIAL 
0000000417	2085	0130	0330468172	Aug  1 2011 12:00:00:000AM	Aug 31 2011 12:00:00:000AM	2	000000022895405	Q5075002E COLEGIO OFICIAL 
0000000418	2085	0130	0330501112	Jul 25 2011 12:00:00:000AM	Jul 31 2011 12:00:00:000AM	2	000000008601101	B99287260 COAATIEZ SERVICI
0000000419	2085	0130	0330501112	Aug  1 2011 12:00:00:000AM	Aug 31 2011 12:00:00:000AM	2	000000005498734	B99287260 COAATIEZ SERVICI
0000000420	2086	0017	0700013178	Aug 22 2011 12:00:00:000AM	Aug 31 2011 12:00:00:000AM	2	000000031291718	COLEGIO APAREJADORES      
0000000421	2085	0130	0330468172	Sep  1 2011 12:00:00:000AM	Sep 18 2011 12:00:00:000AM	2	000000031628974	Q5075002E COLEGIO OFICIAL 
0000000422	2085	0130	0330501112	Sep  1 2011 12:00:00:000AM	Sep 25 2011 12:00:00:000AM	2	000000007758508	B99287260 COAATIEZ SERVICI
0000000423	0049	2778	2314447398	Aug  1 2011 12:00:00:000AM	Aug 31 2011 12:00:00:000AM	2	000000005191442	0000000000NOMBRE ABREVIADO
0000000424	0049	2778	2314447398	Sep  1 2011 12:00:00:000AM	Sep 30 2011 12:00:00:000AM	2	000000005088381	0000000000NOMBRE ABREVIADO
0000000425	2085	0130	0330468172	Sep 19 2011 12:00:00:000AM	Sep 30 2011 12:00:00:000AM	2	000000026702743	Q5075002E COLEGIO OFICIAL 
0000000426	2085	0130	0330468172	Oct  1 2011 12:00:00:000AM	Oct 23 2011 12:00:00:000AM	2	000000028595170	Q5075002E COLEGIO OFICIAL 
0000000427	2086	0017	0700013178	Sep  1 2011 12:00:00:000AM	Sep 30 2011 12:00:00:000AM	2	000000038938501	COLEGIO APAREJADORES      
0000000428	2086	0017	0700061420	Aug  1 2011 12:00:00:000AM	Oct 31 2011 12:00:00:000AM	2	000000000000000	COAATIEZ SERVICIOS COLEGIA
0000000429	2085	0130	0330501112	Sep 26 2011 12:00:00:000AM	Sep 30 2011 12:00:00:000AM	2	000000017584756	B99287260 COAATIEZ SERVICI
0000000430	2085	0130	0330501112	Oct  1 2011 12:00:00:000AM	Oct 31 2011 12:00:00:000AM	2	000000002383679	B99287260 COAATIEZ SERVICI
0000000431	2085	0130	0330468172	Oct 24 2011 12:00:00:000AM	Oct 31 2011 12:00:00:000AM	2	000000021177252	Q5075002E COLEGIO OFICIAL 
0000000432	2086	0017	0700013178	Oct  1 2011 12:00:00:000AM	Oct 31 2011 12:00:00:000AM	2	000000046796196	COLEGIO APAREJADORES      
0000000433	2085	0130	0330468172	Nov  1 2011 12:00:00:000AM	Nov 13 2011 12:00:00:000AM	2	000000120813067	Q5075002E COLEGIO OFICIAL 
0000000434	2085	0130	0330468172	Nov 14 2011 12:00:00:000AM	Nov 30 2011 12:00:00:000AM	2	000000021002972	Q5075002E COLEGIO OFICIAL 
0000000435	2086	0017	0700013178	Nov  1 2011 12:00:00:000AM	Nov 30 2011 12:00:00:000AM	2	000000051210668	COLEGIO APAREJADORES      
0000000436	2085	0130	0330468172	Dec  1 2011 12:00:00:000AM	Dec 11 2011 12:00:00:000AM	2	000000090499003	Q5075002E COLEGIO OFICIAL 
0000000437	2085	0130	0330501112	Nov  1 2011 12:00:00:000AM	Nov 30 2011 12:00:00:000AM	2	000000006647411	B99287260 COAATIEZ SERVICI
0000000438	0049	2778	2314447398	Oct  1 2011 12:00:00:000AM	Oct 31 2011 12:00:00:000AM	2	000000005383016	0000000000NOMBRE ABREVIADO
0000000439	0049	2778	2314447398	Nov  1 2011 12:00:00:000AM	Nov 30 2011 12:00:00:000AM	2	000000005357177	0000000000NOMBRE ABREVIADO
0000000440	2086	0017	0700013178	Dec  1 2011 12:00:00:000AM	Dec 25 2011 12:00:00:000AM	2	000000057255665	COLEGIO APAREJADORES      
0000000442	2085	0130	0330468172	Dec 12 2011 12:00:00:000AM	Dec 25 2011 12:00:00:000AM	2	000000073169336	Q5075002E COLEGIO OFICIAL 
0000000443	2085	0130	0330501112	Dec  1 2011 12:00:00:000AM	Dec 18 2011 12:00:00:000AM	2	000000001299345	B99287260 COAATIEZ SERVICI
0000000444	2085	0130	0330501112	Dec 19 2011 12:00:00:000AM	Dec 31 2011 12:00:00:000AM	2	000000017462832	B99287260 COAATIEZ SERVICI
0000000445	2086	0017	0700061420	Nov  1 2011 12:00:00:000AM	Dec 31 2011 12:00:00:000AM	2	000000000072840	COAATIEZ SERVICIOS COLEGIA
0000000446	2085	0130	0330468172	Dec 26 2011 12:00:00:000AM	Dec 31 2011 12:00:00:000AM	2	000000062160843	Q5075002E COLEGIO OFICIAL 
0000000447	2086	0017	0700013178	Dec 26 2011 12:00:00:000AM	Dec 31 2011 12:00:00:000AM	2	000000062622253	COLEGIO APAREJADORES      
0000000448	0049	2778	2314447398	Dec  1 2011 12:00:00:000AM	Dec 31 2011 12:00:00:000AM	2	000000005201565	0000000000NOMBRE ABREVIADO
0000000449	2085	0130	0330468172	Jan  1 2012 12:00:00:000AM	Jan 31 2012 12:00:00:000AM	2	000000064872882	Q5075002E COLEGIO OFICIAL 
0000000452	2086	0017	0700013178	Jan  1 2012 12:00:00:000AM	Jan 31 2012 12:00:00:000AM	2	000000063097296	COLEGIO APAREJADORES      
0000000453	2085	0130	0330501112	Jan  1 2012 12:00:00:000AM	Jan 31 2012 12:00:00:000AM	2	000000008493680	B99287260 COAATIEZ SERVICI
0000000454	2085	0130	0330468172	Feb  1 2012 12:00:00:000AM	Feb 29 2012 12:00:00:000AM	2	000000068242665	Q5075002E COLEGIO OFICIAL 
0000000455	2085	0130	0330468172	Mar  1 2012 12:00:00:000AM	Mar 18 2012 12:00:00:000AM	2	000000028693477	Q5075002E COLEGIO OFICIAL 
0000000456	2086	0017	0700013178	Feb  1 2012 12:00:00:000AM	Feb 29 2012 12:00:00:000AM	2	000000065950463	COLEGIO APAREJADORES      
0000000457	2085	0130	0330501112	Feb  1 2012 12:00:00:000AM	Feb 29 2012 12:00:00:000AM	2	000000001184218	B99287260 COAATIEZ SERVICI
0000000458	2085	0130	0330468172	Mar 19 2012 12:00:00:000AM	Mar 31 2012 12:00:00:000AM	2	000000037847924	Q5075002E COLEGIO OFICIAL 
0000000459	2085	0130	0330501112	Mar  1 2012 12:00:00:000AM	Mar 31 2012 12:00:00:000AM	2	000000004497588	B99287260 COAATIEZ SERVICI
0000000460	2086	0017	0700013178	Mar  1 2012 12:00:00:000AM	Mar 31 2012 12:00:00:000AM	2	000000043618183	COLEGIO APAREJADORES      
0000000461	2086	0017	0700061420	Feb  1 2012 12:00:00:000AM	Mar 31 2012 12:00:00:000AM	2	000000000175834	COAATIEZ SERVICIOS COLEGIA
0000000462	0049	2778	2314447398	Jan  1 2012 12:00:00:000AM	Jan 31 2012 12:00:00:000AM	2	000000005070173	0000000000NOMBRE ABREVIADO
0000000463	0049	2778	2314447398	Feb  1 2012 12:00:00:000AM	Feb 29 2012 12:00:00:000AM	2	000000004984534	0000000000NOMBRE ABREVIADO
0000000464	0049	2778	2314447398	Mar  1 2012 12:00:00:000AM	Mar 31 2012 12:00:00:000AM	2	000000005216169	0000000000NOMBRE ABREVIADO
0000000465	2086	0017	0700061420	Apr  1 2012 12:00:00:000AM	Apr 30 2012 12:00:00:000AM	2	000000000566665	COAATIEZ SERVICIOS COLEGIA
0000000466	2086	0017	0700013178	Apr  1 2012 12:00:00:000AM	Apr 30 2012 12:00:00:000AM	2	000000051393125	COLEGIO APAREJADORES      
0000000467	2085	0130	0330468172	Apr  1 2012 12:00:00:000AM	Apr 30 2012 12:00:00:000AM	2	000000023613390	Q5075002E COLEGIO OFICIAL 
0000000468	2085	0130	0330501112	Apr  1 2012 12:00:00:000AM	Apr 30 2012 12:00:00:000AM	2	000000008619413	B99287260 COAATIEZ SERVICI
0000000469	2085	0130	0330468172	May  1 2012 12:00:00:000AM	May 31 2012 12:00:00:000AM	2	000000121113659	Q5075002E COLEGIO OFICIAL 
0000000470	2086	0017	0700013178	May  1 2012 12:00:00:000AM	May 31 2012 12:00:00:000AM	2	000000054763548	COLEGIO APAREJADORES      
0000000471	0049	2778	2314447398	Apr  1 2012 12:00:00:000AM	Apr 30 2012 12:00:00:000AM	2	000000005229583	0000000000NOMBRE ABREVIADO
0000000472	0049	2778	2314447398	May  1 2012 12:00:00:000AM	May 31 2012 12:00:00:000AM	2	000000005004973	0000000000NOMBRE ABREVIADO
0000000473	2085	0130	0330501112	May  1 2012 12:00:00:000AM	May 31 2012 12:00:00:000AM	2	000000007917348	B99287260 COAATIEZ SERVICI
0000000475	2086	0017	0700061420	May  1 2012 12:00:00:000AM	May 31 2012 12:00:00:000AM	2	000000000771468	COAATIEZ SERVICIOS COLEGIA
0000000476	2085	0130	0330468172	Jun  1 2012 12:00:00:000AM	Jun 18 2012 12:00:00:000AM	2	000000024223714	Q5075002E COLEGIO OFICIAL 
0000000479	2085	0130	0330468172	Jun 19 2012 12:00:00:000AM	Jun 30 2012 12:00:00:000AM	2	000000012353978	Q5075002E COLEGIO OFICIAL 
0000000480	0049	2778	2314447398	Jun  1 2012 12:00:00:000AM	Jun 30 2012 12:00:00:000AM	2	000000004872882	0000000000NOMBRE ABREVIADO
0000000481	2086	0017	0700013178	Jun  1 2012 12:00:00:000AM	Jun 30 2012 12:00:00:000AM	2	000000059903615	COLEGIO APAREJADORES      
0000000482	2086	0017	0700061420	Jun  1 2012 12:00:00:000AM	Jun 30 2012 12:00:00:000AM	2	000000000877411	COAATIEZ SERVICIOS COLEGIA
0000000483	2085	0130	0330501112	Jun  1 2012 12:00:00:000AM	Jul 31 2012 12:00:00:000AM	2	000000007917654	B99287260 COAATIEZ SERVICI
0000000484	2085	0130	0330468172	Jul  1 2012 12:00:00:000AM	Jul 31 2012 12:00:00:000AM	2	000000018917754	Q5075002E COLEGIO OFICIAL 
0000000485	2086	0017	0700061420	Jul  1 2012 12:00:00:000AM	Jul 31 2012 12:00:00:000AM	2	000000000911468	COAATIEZ SERVICIOS COLEGIA
0000000486	2086	0017	0700013178	Jul  1 2012 12:00:00:000AM	Jul 31 2012 12:00:00:000AM	2	000000008989003	COLEGIO APAREJADORES      
0000000487	2085	0130	0330468172	Aug  1 2012 12:00:00:000AM	Aug 30 2012 12:00:00:000AM	2	000000035859426	Q5075002E COLEGIO OFICIAL 
0000000488	2085	0130	0330468172	Aug 31 2012 12:00:00:000AM	Aug 31 2012 12:00:00:000AM	2	000000016370671	Q5075002E COLEGIO OFICIAL 
0000000489	2086	0017	0700013178	Aug  1 2012 12:00:00:000AM	Aug 31 2012 12:00:00:000AM	2	000000013024204	COLEGIO APAREJADORES      
0000000490	2086	0017	0700061420	Aug  1 2012 12:00:00:000AM	Aug 31 2012 12:00:00:000AM	2	000000000946841	COAATIEZ SERVICIOS COLEGIA
0000000491	2085	0130	0330501112	Aug  1 2012 12:00:00:000AM	Aug 31 2012 12:00:00:000AM	2	000000007645641	B99287260 COAATIEZ SERVICI
0000000492	2085	0130	0330468172	Sep  1 2012 12:00:00:000AM	Sep 23 2012 12:00:00:000AM	2	000000011145384	Q5075002E COLEGIO OFICIAL 
0000000493	2085	0130	0330501112	Sep  1 2012 12:00:00:000AM	Sep 27 2012 12:00:00:000AM	2	000000009353291	B99287260 COAATIEZ SERVICI
0000000494	0049	2778	2314447398	Jul  1 2012 12:00:00:000AM	Jul 31 2012 12:00:00:000AM	2	000000004889121	0000000000NOMBRE ABREVIADO
0000000495	0049	2778	2314447398	Aug  1 2012 12:00:00:000AM	Aug 31 2012 12:00:00:000AM	2	000000004512556	0000000000NOMBRE ABREVIADO
0000000496	0049	2778	2314447398	Sep  1 2012 12:00:00:000AM	Sep 30 2012 12:00:00:000AM	2	000000004435698	0000000000NOMBRE ABREVIADO
0000000497	2086	0017	0700061420	Sep  1 2012 12:00:00:000AM	Sep 30 2012 12:00:00:000AM	2	000000000946904	COAATIEZ SERVICIOS COLEGIA
0000000498	2086	0017	0700013178	Sep  1 2012 12:00:00:000AM	Sep 30 2012 12:00:00:000AM	2	000000016209598	COLEGIO APAREJADORES      
0000000499	2085	0130	0330468172	Sep 24 2012 12:00:00:000AM	Sep 30 2012 12:00:00:000AM	2	000000022156237	Q5075002E COLEGIO OFICIAL 
0000000500	2085	0130	0330468172	Oct  1 2012 12:00:00:000AM	Oct 31 2012 12:00:00:000AM	2	000000022104789	Q5075002E COLEGIO OFICIAL 
0000000501	2085	0130	0330501112	Sep 28 2012 12:00:00:000AM	Sep 30 2012 12:00:00:000AM	2	000000011658000	B99287260 COAATIEZ SERVICI
0000000502	2085	0130	0330501112	Oct  1 2012 12:00:00:000AM	Oct 31 2012 12:00:00:000AM	2	000000006464747	B99287260 COAATIEZ SERVICI
0000000503	2086	0017	0700061420	Oct  1 2012 12:00:00:000AM	Oct 31 2012 12:00:00:000AM	2	000000000970481	COAATIEZ SERVICIOS COLEGIA
0000000504	0049	2778	2314447398	Oct  1 2012 12:00:00:000AM	Oct 31 2012 12:00:00:000AM	2	000000004363562	0000000000NOMBRE ABREVIADO
0000000505	2086	0017	0700013178	Oct  1 2012 12:00:00:000AM	Oct 31 2012 12:00:00:000AM	2	000000005510631	COLEGIO APAREJADORES      
0000000506	2085	0130	0330468172	Nov  1 2012 12:00:00:000AM	Nov 30 2012 12:00:00:000AM	2	000000017060019	Q5075002E COLEGIO OFICIAL 
0000000507	2085	0130	0330501112	Nov  1 2012 12:00:00:000AM	Nov 30 2012 12:00:00:000AM	2	000000006386474	B99287260 COAATIEZ SERVICI
0000000508	2086	0017	0700013178	Nov  1 2012 12:00:00:000AM	Nov 30 2012 12:00:00:000AM	2	000000007105067	COLEGIO APAREJADORES      
0000000509	2086	0017	0700061420	Nov  1 2012 12:00:00:000AM	Nov 30 2012 12:00:00:000AM	2	000000001067909	COAATIEZ SERVICIOS COLEGIA
0000000510	2085	0130	0330468172	Dec  1 2012 12:00:00:000AM	Dec 26 2012 12:00:00:000AM	2	000000016772084	Q5075002E COLEGIO OFICIAL 
0000000512	2086	0017	0700013178	Dec  1 2012 12:00:00:000AM	Dec 26 2012 12:00:00:000AM	2	000000010518829	COLEGIO APAREJADORES      
0000000513	2085	0130	0330501112	Dec  1 2012 12:00:00:000AM	Dec 26 2012 12:00:00:000AM	2	000000006022201	B99287260 COAATIEZ SERVICI
0000000514	2086	0017	0700013178	Dec 27 2012 12:00:00:000AM	Dec 31 2012 12:00:00:000AM	2	000000012275126	COLEGIO APAREJADORES      
0000000519	2085	0130	0330501112	Dec 27 2012 12:00:00:000AM	Dec 31 2012 12:00:00:000AM	2	000000012008185	B99287260 COAATIEZ SERVICI
0000000520	2085	0130	0330468172	Dec 27 2012 12:00:00:000AM	Dec 31 2012 12:00:00:000AM	2	000000013376650	Q5075002E COLEGIO OFICIAL 
0000000521	0049	2778	2314447398	Nov  1 2012 12:00:00:000AM	Nov 30 2012 12:00:00:000AM	2	000000004263009	0000000000NOMBRE ABREVIADO
0000000522	0049	2778	2314447398	Dec  1 2012 12:00:00:000AM	Dec 31 2012 12:00:00:000AM	2	000000004099071	0000000000NOMBRE ABREVIADO
0000000523	2086	0017	0700013178	Jan  1 2013 12:00:00:000AM	Jan 31 2013 12:00:00:000AM	2	000000012865235	COLEGIO APAREJADORES      
0000000524	2085	0130	0330468172	Jan  1 2013 12:00:00:000AM	Jan 31 2013 12:00:00:000AM	2	000000012814199	Q5075002E COLEGIO OFICIAL 
0000000525	2086	0017	0700013178	Feb  1 2013 12:00:00:000AM	Feb 28 2013 12:00:00:000AM	2	000000015326092	COLEGIO APAREJADORES      
0000000526	2085	0130	0330468172	Feb  1 2013 12:00:00:000AM	Feb 28 2013 12:00:00:000AM	2	000000007024932	Q5075002E COLEGIO OFICIAL 
0000000527	2086	0017	0700061420	Dec  1 2012 12:00:00:000AM	Dec 31 2012 12:00:00:000AM	2	000000001067979	COAATIEZ SERVICIOS COLEGIA
0000000528	2086	0017	0700061420	Jan  1 2013 12:00:00:000AM	Feb 28 2013 12:00:00:000AM	2	000000001068049	COAATIEZ SERVICIOS COLEGIA
0000000529	2085	0130	0330501112	Jan  1 2013 12:00:00:000AM	Feb 28 2013 12:00:00:000AM	2	000000008988983	B99287260 COAATIEZ SERVICI
0000000530	2085	0130	0330468172	Mar  1 2013 12:00:00:000AM	Mar 24 2013 12:00:00:000AM	2	000000013757074	Q5075002E COLEGIO OFICIAL 
0000000531	2085	0130	0330501112	Mar  1 2013 12:00:00:000AM	Mar 31 2013 12:00:00:000AM	2	000000002056979	B99287260 COAATIEZ SERVICI
0000000532	2086	0017	0700061420	Mar  1 2013 12:00:00:000AM	Mar 31 2013 12:00:00:000AM	2	000000001206193	COAATIEZ SERVICIOS COLEGIA
0000000534	2086	0017	0700013178	Mar  1 2013 12:00:00:000AM	Mar 31 2013 12:00:00:000AM	2	000000007530831	COLEGIO APAREJADORES      
0000000535	2085	0130	0330468172	Mar 25 2013 12:00:00:000AM	Mar 31 2013 12:00:00:000AM	2	000000021044167	Q5075002E COLEGIO OFICIAL 
0000000536	0049	2778	2314447398	Jan  1 2013 12:00:00:000AM	Mar 31 2013 12:00:00:000AM	2	000000004013433	0000000000NOMBRE ABREVIADO
0000000537	2085	0130	0330468172	Apr  1 2013 12:00:00:000AM	Apr 30 2013 12:00:00:000AM	2	000000010169528	Q5075002E COLEGIO OFICIAL 
0000000538	2085	0130	0330501112	Apr  1 2013 12:00:00:000AM	Apr 30 2013 12:00:00:000AM	2	000000008061615	B99287260 COAATIEZ SERVICI
0000000539	2086	0017	0700061420	Apr  1 2013 12:00:00:000AM	Apr 30 2013 12:00:00:000AM	2	000000001272508	COAATIEZ SERVICIOS COLEGIA
0000000541	2086	0017	0700013178	Apr  1 2013 12:00:00:000AM	Apr 30 2013 12:00:00:000AM	2	000000009076303	COLEGIO APAREJADORES      
0000000542	2085	0130	0330468172	May  1 2013 12:00:00:000AM	May 31 2013 12:00:00:000AM	2	000000011221232	Q5075002E COLEGIO OFICIAL 
0000000543	2085	0130	0330501112	May  1 2013 12:00:00:000AM	May 31 2013 12:00:00:000AM	2	000000009156897	B99287260 COAATIEZ SERVICI
0000000544	2086	0017	0700013178	May  1 2013 12:00:00:000AM	May 31 2013 12:00:00:000AM	2	000000010371469	COLEGIO APAREJADORES      
0000000545	2086	0017	0700061420	May  1 2013 12:00:00:000AM	May 31 2013 12:00:00:000AM	2	000000001437195	COAATIEZ SERVICIOS COLEGIA
0000000546	0049	2778	2314447398	Apr  1 2013 12:00:00:000AM	Apr 30 2013 12:00:00:000AM	2	000000004135493	0000000000NOMBRE ABREVIADO
0000000547	0049	2778	2314447398	May  1 2013 12:00:00:000AM	May 31 2013 12:00:00:000AM	2	000000003914440	0000000000NOMBRE ABREVIADO
0000000550	0049	2778	2314447398	Jun  1 2013 12:00:00:000AM	Jun 30 2013 12:00:00:000AM	2	000000003526714	0000000000NOMBRE ABREVIADO
0000000551	2085	0130	0330468172	Jun  1 2013 12:00:00:000AM	Jun 30 2013 12:00:00:000AM	2	000000114883070	Q5075002E COLEGIO OFICIAL 
0000000552	2086	0017	0700013178	Jun  1 2013 12:00:00:000AM	Jun 30 2013 12:00:00:000AM	2	000000012400914	COLEGIO APAREJADORES      
0000000553	2086	0017	0700061420	Jun  1 2013 12:00:00:000AM	Jun 30 2013 12:00:00:000AM	2	000000001763760	COAATIEZ SERVICIOS COLEGIA
0000000554	2085	0130	0330501112	Jun  1 2013 12:00:00:000AM	Jun 30 2013 12:00:00:000AM	2	000000005333678	B99287260 COAATIEZ SERVICI
0000000555	2085	0130	0330501112	Jul  1 2013 12:00:00:000AM	Jul 21 2013 12:00:00:000AM	2	000000010709538	B99287260 COAATIEZ SERVICI
0000000556	2085	0130	0330501112	Jul 22 2013 12:00:00:000AM	Jul 31 2013 12:00:00:000AM	2	000000019792670	B99287260 COAATIEZ SERVICI
0000000557	2085	0130	0330468172	Jul  1 2013 12:00:00:000AM	Jul 31 2013 12:00:00:000AM	2	000000114598856	Q5075002E COLEGIO OFICIAL 
0000000558	2086	0017	0700013178	Jul  1 2013 12:00:00:000AM	Jul 31 2013 12:00:00:000AM	2	000000034018420	COLEGIO APAREJADORES      
0000000559	2086	0017	0700061420	Jul  1 2013 12:00:00:000AM	Jul 31 2013 12:00:00:000AM	2	000000001883875	COAATIEZ SERVICIOS COLEGIA
0000000560	2086	0017	0700013178	Aug  1 2013 12:00:00:000AM	Aug 31 2013 12:00:00:000AM	2	000000006900661	COLEGIO APAREJADORES      
0000000561	2085	0130	0330468172	Aug  1 2013 12:00:00:000AM	Aug 31 2013 12:00:00:000AM	2	000000007189221	Q5075002E COLEGIO OFICIAL 
0000000569	2086	0017	0700061420	Aug  1 2013 12:00:00:000AM	Aug 31 2013 12:00:00:000AM	2	000000002042544	COAATIEZ SERVICIOS COLEGIA
0000000570	2085	0130	0330501112	Aug  1 2013 12:00:00:000AM	Sep 22 2013 12:00:00:000AM	2	000000006462555	B99287260 COAATIEZ SERVICI
0000000571	2085	0130	0330468172	Sep  1 2013 12:00:00:000AM	Sep 30 2013 12:00:00:000AM	2	000000009707412	Q5075002E COLEGIO OFICIAL 
0000000572	2085	0130	0330501112	Sep 23 2013 12:00:00:000AM	Sep 30 2013 12:00:00:000AM	2	000000014638610	B99287260 COAATIEZ SERVICI
0000000573	0049	2778	2314447398	Jul  1 2013 12:00:00:000AM	Jul 31 2013 12:00:00:000AM	2	000000003410688	0000000000NOMBRE ABREVIADO
0000000574	0049	2778	2314447398	Aug  1 2013 12:00:00:000AM	Aug 31 2013 12:00:00:000AM	2	000000003551856	0000000000NOMBRE ABREVIADO
0000000575	0049	2778	2314447398	Sep  1 2013 12:00:00:000AM	Sep 30 2013 12:00:00:000AM	2	000000003481819	0000000000NOMBRE ABREVIADO
0000000576	2086	0017	0700061420	Sep  1 2013 12:00:00:000AM	Sep 30 2013 12:00:00:000AM	2	000000002252681	COAATIEZ SERVICIOS COLEGIA
0000000577	2086	0017	0700013178	Sep  1 2013 12:00:00:000AM	Sep 30 2013 12:00:00:000AM	2	000000002914039	COLEGIO APAREJADORES      
0000000578	2085	0130	0330468172	Oct  1 2013 12:00:00:000AM	Oct 31 2013 12:00:00:000AM	2	000000006893782	Q5075002E COLEGIO OFICIAL 
0000000579	2086	0017	0700013178	Oct  1 2013 12:00:00:000AM	Oct 31 2013 12:00:00:000AM	2	000000004909212	COLEGIO APAREJADORES      
0000000580	2085	0130	0330501112	Oct  1 2013 12:00:00:000AM	Oct 31 2013 12:00:00:000AM	2	000000003725257	B99287260 COAATIEZ SERVICI
0000000581	2086	0017	0700061420	Oct  1 2013 12:00:00:000AM	Oct 31 2013 12:00:00:000AM	2	000000002336986	COAATIEZ SERVICIOS COLEGIA
0000000582	2085	0130	0330501112	Nov  1 2013 12:00:00:000AM	Nov 30 2013 12:00:00:000AM	2	000000007498560	B99287260 COAATIEZ SERVICI
0000000583	2086	0017	0700061420	Nov  1 2013 12:00:00:000AM	Nov 30 2013 12:00:00:000AM	2	000000002351978	COAATIEZ SERVICIOS COLEGIA
0000000584	2086	0017	0700013178	Nov  1 2013 12:00:00:000AM	Nov 30 2013 12:00:00:000AM	2	000000003361482	COLEGIO APAREJADORES      
0000000586	2085	0130	0330468172	Nov  1 2013 12:00:00:000AM	Nov 30 2013 12:00:00:000AM	2	000000006800585	Q5075002E COLEGIO OFICIAL 
0000000587	2085	0130	0330468172	Dec  1 2013 12:00:00:000AM	Dec 31 2013 12:00:00:000AM	2	000000006517923	Q5075002E COLEGIO OFICIAL 
0000000588	2086	0017	0700013178	Dec  1 2013 12:00:00:000AM	Dec 31 2013 12:00:00:000AM	2	000000005512595	COLEGIO APAREJADORES      
0000000589	2085	0130	0330501112	Dec  1 2013 12:00:00:000AM	Dec 31 2013 12:00:00:000AM	2	000000004464778	B99287260 COAATIEZ SERVICI
0000000590	0049	2778	2314447398	Oct  1 2013 12:00:00:000AM	Oct 31 2013 12:00:00:000AM	2	000000003338326	0000000000NOMBRE ABREVIADO
0000000591	0049	2778	2314447398	Nov  1 2013 12:00:00:000AM	Nov 30 2013 12:00:00:000AM	2	000000002960059	0000000000NOMBRE ABREVIADO
0000000592	0049	2778	2314447398	Dec  1 2013 12:00:00:000AM	Dec 31 2013 12:00:00:000AM	2	000000003150170	0000000000NOMBRE ABREVIADO
0000000593	2086	0017	0700061420	Dec  1 2013 12:00:00:000AM	Dec 31 2013 12:00:00:000AM	2	000000002376179	COAATIEZ SERVICIOS COLEGIA
0000000594	2086	0017	0700013178	Jan  1 2014 12:00:00:000AM	Jan 31 2014 12:00:00:000AM	2	000000002710572	COLEGIO APAREJADORES      
0000000595	2085	0130	0330468172	Jan  1 2014 12:00:00:000AM	Jan 31 2014 12:00:00:000AM	2	000000005025804	Q5075002E COLEGIO OFICIAL 
0000000596	2086	0017	0700061420	Jan  1 2014 12:00:00:000AM	Jan 31 2014 12:00:00:000AM	2	000000002485616	COAATIEZ SERVICIOS COLEGIA
0000000597	2085	0130	0330501112	Jan  1 2014 12:00:00:000AM	Jan 31 2014 12:00:00:000AM	2	000000016474864	B99287260 COAATIEZ SERVICI
0000000598	2085	0130	0330468172	Feb  1 2014 12:00:00:000AM	Feb 28 2014 12:00:00:000AM	2	000000014782029	Q5075002E COLEGIO OFICIAL 
0000000599	2085	0130	0330501112	Feb  1 2014 12:00:00:000AM	Feb 28 2014 12:00:00:000AM	2	000000005934621	B99287260 COAATIEZ SERVICI
0000000600	2086	0017	0700013178	Feb  1 2014 12:00:00:000AM	Feb 28 2014 12:00:00:000AM	2	000000002275538	COLEGIO APAREJADORES      
0000000601	2085	0130	0330468172	Mar  1 2014 12:00:00:000AM	Mar 31 2014 12:00:00:000AM	2	000000004309526	Q5075002E COLEGIO OFICIAL 
0000000602	2086	0017	0700061420	Feb  1 2014 12:00:00:000AM	Feb 28 2014 12:00:00:000AM	2	000000002565081	COAATIEZ SERVICIOS COLEGIA
0000000603	2085	0130	0330501112	Mar  1 2014 12:00:00:000AM	Mar 31 2014 12:00:00:000AM	2	000000003216076	B99287260 COAATIEZ SERVICI
0000000604	2086	0017	0700013178	Mar  1 2014 12:00:00:000AM	Mar 31 2014 12:00:00:000AM	2	000000000825424	COLEGIO APAREJADORES      
0000000605	0049	2778	2314447398	Jan  1 2014 12:00:00:000AM	Jan 31 2014 12:00:00:000AM	2	000000002847539	0000000000NOMBRE ABREVIADO
0000000606	0049	2778	2314447398	Feb  1 2014 12:00:00:000AM	Feb 28 2014 12:00:00:000AM	2	000000003176735	0000000000NOMBRE ABREVIADO
0000000607	0049	2778	2314447398	Mar  1 2014 12:00:00:000AM	Mar 31 2014 12:00:00:000AM	2	000000003037470	0000000000NOMBRE ABREVIADO
0000000608	2085	0130	0330468172	Apr  1 2014 12:00:00:000AM	Apr 13 2014 12:00:00:000AM	2	000000009782006	Q5075002E COLEGIO OFICIAL 
0000000609	2085	0130	0330468172	Apr 14 2014 12:00:00:000AM	Apr 30 2014 12:00:00:000AM	2	000000003982464	Q5075002E COLEGIO OFICIAL 
0000000610	2086	0017	0700013178	Apr  1 2014 12:00:00:000AM	Apr 30 2014 12:00:00:000AM	2	000000002155749	COLEGIO APAREJADORES      
0000000611	2085	0130	0330468172	May  1 2014 12:00:00:000AM	May 31 2014 12:00:00:000AM	2	000000010884184	Q5075002E COLEGIO OFICIAL 
0000000613	2086	0017	0700013178	May  1 2014 12:00:00:000AM	May 31 2014 12:00:00:000AM	2	000000000977579	COLEGIO APAREJADORES      
0000000614	2085	0130	0330468172	Jun  1 2014 12:00:00:000AM	Jun  8 2014 12:00:00:000AM	2	000000003753824	Q5075002E COLEGIO OFICIAL 
0000000615	2086	0017	0700061420	Mar  1 2014 12:00:00:000AM	Mar 31 2014 12:00:00:000AM	2	000000002758961	COAATIEZ SERVICIOS COLEGIA
0000000616	2086	0017	0700061420	Apr  1 2014 12:00:00:000AM	Apr 30 2014 12:00:00:000AM	2	000000000824704	COAATIEZ SERVICIOS COLEGIA
0000000617	2086	0017	0700061420	May  1 2014 12:00:00:000AM	May 31 2014 12:00:00:000AM	2	000000000891466	COAATIEZ SERVICIOS COLEGIA
0000000618	2085	0130	0330501112	Apr  1 2014 12:00:00:000AM	Apr 30 2014 12:00:00:000AM	2	000000004590910	B99287260 COAATIEZ SERVICI
0000000619	2085	0130	0330501112	May  1 2014 12:00:00:000AM	May 31 2014 12:00:00:000AM	2	000000009321695	B99287260 COAATIEZ SERVICI
0000000620	0049	2778	2314447398	Apr  1 2014 12:00:00:000AM	Apr 30 2014 12:00:00:000AM	2	000000002967433	0000000000NOMBRE ABREVIADO
0000000621	0049	2778	2314447398	May  1 2014 12:00:00:000AM	May 31 2014 12:00:00:000AM	2	000000002640395	0000000000NOMBRE ABREVIADO
0000000622	0049	2778	2314447398	Jun  1 2014 12:00:00:000AM	Jun 30 2014 12:00:00:000AM	2	000000002485162	0000000000NOMBRE ABREVIADO
0000000623	2085	0130	0330468172	Jun  9 2014 12:00:00:000AM	Jun 30 2014 12:00:00:000AM	2	000000014260597	Q5075002E COLEGIO OFICIAL 
0000000624	2086	0017	0700013178	Jun  1 2014 12:00:00:000AM	Jun 30 2014 12:00:00:000AM	2	000000001872751	COLEGIO APAREJADORES      
0000000625	2085	0130	0330468172	Jul  1 2014 12:00:00:000AM	Jul 31 2014 12:00:00:000AM	2	000000013034515	Q5075002E COLEGIO OFICIAL 
0000000626	2086	0017	0700013178	Jul  1 2014 12:00:00:000AM	Jul 31 2014 12:00:00:000AM	2	000000003882955	COLEGIO APAREJADORES      
0000000627	2085	0130	0330501112	Jun  1 2014 12:00:00:000AM	Jun 30 2014 12:00:00:000AM	2	000000005927863	B99287260 COAATIEZ SERVICI
0000000628	2085	0130	0330501112	Jul  1 2014 12:00:00:000AM	Jul 31 2014 12:00:00:000AM	2	000000013062793	B99287260 COAATIEZ SERVICI
0000000629	2086	0017	0700061420	Jun  1 2014 12:00:00:000AM	Jun 30 2014 12:00:00:000AM	2	000000001117484	COAATIEZ SERVICIOS COLEGIA
0000000630	2086	0017	0700061420	Jul  1 2014 12:00:00:000AM	Jul 31 2014 12:00:00:000AM	2	000000001406755	COAATIEZ SERVICIOS COLEGIA
0000000631	0049	2778	2314447398	Jul  1 2014 12:00:00:000AM	Jul 31 2014 12:00:00:000AM	2	000000002415125	0000000000NOMBRE ABREVIADO
0000000632	0049	2778	2314447398	Aug  1 2014 12:00:00:000AM	Aug 31 2014 12:00:00:000AM	2	000000002762109	0000000000NOMBRE ABREVIADO
0000000633	2085	0130	0330468172	Aug  1 2014 12:00:00:000AM	Aug 31 2014 12:00:00:000AM	2	000000004935536	Q5075002E COLEGIO OFICIAL 
0000000634	2086	0017	0700013178	Aug  1 2014 12:00:00:000AM	Aug 31 2014 12:00:00:000AM	2	000000005371533	COLEGIO APAREJADORES      
0000000635	0049	2778	2314447398	Sep  1 2014 12:00:00:000AM	Sep 30 2014 12:00:00:000AM	2	000000002692072	0000000000NOMBRE ABREVIADO
0000000636	2085	0130	0330468172	Sep  1 2014 12:00:00:000AM	Oct 19 2014 12:00:00:000AM	2	000000005286594	Q5075002E COLEGIO OFICIAL 
0000000637	2085	0130	0330501112	Aug  1 2014 12:00:00:000AM	Oct 19 2014 12:00:00:000AM	2	000000013204344	B99287260 COAATIEZ SERVICI
0000000638	2085	5217	0330817907	Oct 17 2014 12:00:00:000AM	Oct 31 2014 12:00:00:000AM	2	000000002165075	Q5075002E COLEGIO OFICIAL 
0000000639	2085	0130	0330468172	Oct 20 2014 12:00:00:000AM	Nov 23 2014 12:00:00:000AM	2	000000013775454	Q5075002E COLEGIO OFICIAL 
0000000640	0049	2778	2314447398	Oct  1 2014 12:00:00:000AM	Oct 31 2014 12:00:00:000AM	2	000000002653391	0000000000NOMBRE ABREVIADO
0000000641	0049	2778	2314447398	Nov  1 2014 12:00:00:000AM	Nov 30 2014 12:00:00:000AM	2	000000002409575	0000000000NOMBRE ABREVIADO
0000000642	2085	5217	0330817907	Nov  1 2014 12:00:00:000AM	Dec 23 2014 12:00:00:000AM	2	000000004110570	Q5075002E COLEGIO OFICIAL 
0000000643	2085	0130	0330468172	Nov 24 2014 12:00:00:000AM	Dec 23 2014 12:00:00:000AM	2	000000006643404	Q5075002E COLEGIO OFICIAL 
0000000644	2085	0130	0330468172	Dec 24 2014 12:00:00:000AM	Dec 29 2014 12:00:00:000AM	2	000000004967796	Q5075002E COLEGIO OFICIAL 
0000000645	2085	5217	0330817907	Dec 24 2014 12:00:00:000AM	Dec 29 2014 12:00:00:000AM	2	000000001331248	Q5075002E COLEGIO OFICIAL 
0000000646	2085	0130	0330501112	Oct 20 2014 12:00:00:000AM	Dec 29 2014 12:00:00:000AM	2	000000020222284	B99287260 COAATIEZ SERVICI
0000000647	0049	2778	2314447398	Dec  1 2014 12:00:00:000AM	Dec 31 2014 12:00:00:000AM	2	000000002381262	0000000000NOMBRE ABREVIADO
0000000648	2085	0130	0330468172	Dec 30 2014 12:00:00:000AM	Dec 31 2014 12:00:00:000AM	2	000000003407115	Q5075002E COLEGIO OFICIAL 
0000000649	2085	5217	0330817907	Dec 30 2014 12:00:00:000AM	Dec 31 2014 12:00:00:000AM	2	000000001331664	Q5075002E COLEGIO OFICIAL 
0000000650	2085	0130	0330468172	Jan  1 2015 12:00:00:000AM	Feb  6 2015 12:00:00:000AM	2	000000002817428	Q5075002E COLEGIO OFICIAL 
0000000651	2085	5217	0330817907	Jan  1 2015 12:00:00:000AM	Feb  6 2015 12:00:00:000AM	2	000000000161664	Q5075002E COLEGIO OFICIAL 
0000000652	2085	0130	0330501112	Dec 30 2014 12:00:00:000AM	Dec 31 2014 12:00:00:000AM	2	000000020295540	B99287260 COAATIEZ SERVICI
0000000653	2085	0130	0330501112	Jan  1 2015 12:00:00:000AM	Feb 22 2015 12:00:00:000AM	2	000000021630642	B99287260 COAATIEZ SERVICI
0000000654	2085	0130	0330468172	Feb  7 2015 12:00:00:000AM	Mar  8 2015 12:00:00:000AM	2	000000007861478	Q5075002E COLEGIO OFICIAL 
0000000655	2085	5217	0330817907	Feb  7 2015 12:00:00:000AM	Mar  8 2015 12:00:00:000AM	2	000000000599418	Q5075002E COLEGIO OFICIAL 
0000000656	2085	0130	0330501112	Feb 23 2015 12:00:00:000AM	Mar  8 2015 12:00:00:000AM	2	000000036402515	B99287260 COAATIEZ SERVICI
0000000657	0049	2778	2314447398	Jan  1 2015 12:00:00:000AM	Jan 31 2015 12:00:00:000AM	2	000000002058283	0000000000NOMBRE ABREVIADO
0000000658	0049	2778	2314447398	Feb  1 2015 12:00:00:000AM	Feb 28 2015 12:00:00:000AM	2	000000002482052	0000000000NOMBRE ABREVIADO
0000000659	2085	0130	0330468172	Mar  9 2015 12:00:00:000AM	Mar 31 2015 12:00:00:000AM	2	000000010142030	Q5075002E COLEGIO OFICIAL 
0000000660	2085	5217	0330817907	Mar  9 2015 12:00:00:000AM	Mar 31 2015 12:00:00:000AM	2	000000002597643	Q5075002E COLEGIO OFICIAL 
0000000661	2085	0130	0330501112	Mar  9 2015 12:00:00:000AM	Mar 31 2015 12:00:00:000AM	2	000000018216679	B99287260 COAATIEZ SERVICI
0000000662	0049	2778	2314447398	Mar  1 2015 12:00:00:000AM	Mar 31 2015 12:00:00:000AM	2	000000002238215	0000000000NOMBRE ABREVIADO
0000000663	2085	0130	0330468172	Apr  1 2015 12:00:00:000AM	Apr 30 2015 12:00:00:000AM	2	000000067348946	Q5075002E COLEGIO OFICIAL 
0000000664	2085	5217	0330817907	Apr  1 2015 12:00:00:000AM	Apr 30 2015 12:00:00:000AM	2	000000003731832	Q5075002E COLEGIO OFICIAL 
0000000665	2085	0130	0330501112	Apr  1 2015 12:00:00:000AM	May 10 2015 12:00:00:000AM	2	000000016102185	B99287260 COAATIEZ SERVICI
0000000666	2085	0130	0330468172	May  1 2015 12:00:00:000AM	May 31 2015 12:00:00:000AM	2	000000017147960	Q5075002E COLEGIO OFICIAL 
0000000667	2085	5217	0330817907	May  1 2015 12:00:00:000AM	May 31 2015 12:00:00:000AM	2	000000004141682	Q5075002E COLEGIO OFICIAL 
0000000668	2085	0130	0330501112	May 11 2015 12:00:00:000AM	May 31 2015 12:00:00:000AM	2	000000043630818	B99287260 COAATIEZ SERVICI
0000000669	2085	0130	0330468172	Jun  1 2015 12:00:00:000AM	Jun 21 2015 12:00:00:000AM	2	000000013546228	Q5075002E COLEGIO OFICIAL 
0000000670	2085	5217	0330817907	Jun  1 2015 12:00:00:000AM	Jun 21 2015 12:00:00:000AM	2	000000014929145	Q5075002E COLEGIO OFICIAL 
0000000671	2085	0130	0330501112	Jun  1 2015 12:00:00:000AM	Jun 21 2015 12:00:00:000AM	2	000000015859644	B99287260 COAATIEZ SERVICI
0000000673	0049	2778	2314447398	Apr  1 2015 12:00:00:000AM	Apr 30 2015 12:00:00:000AM	2	000000002131852	0000000000NOMBRE ABREVIADO
0000000674	0049	2778	2314447398	May  1 2015 12:00:00:000AM	May 31 2015 12:00:00:000AM	2	000000001965946	0000000000NOMBRE ABREVIADO
0000000675	2085	0130	0330468172	Jun 22 2015 12:00:00:000AM	Jul  5 2015 12:00:00:000AM	2	000000016410675	Q5075002E COLEGIO OFICIAL 
0000000676	2085	5217	0330817907	Jun 22 2015 12:00:00:000AM	Jul  5 2015 12:00:00:000AM	2	000000004061741	Q5075002E COLEGIO OFICIAL 
0000000677	2085	0130	0330501112	Jun 22 2015 12:00:00:000AM	Jul  5 2015 12:00:00:000AM	2	000000016406476	B99287260 COAATIEZ SERVICI
0000000678	0049	2778	2314447398	Jun  1 2015 12:00:00:000AM	Jun 30 2015 12:00:00:000AM	2	000000001684126	0000000000NOMBRE ABREVIADO
0000000679	2085	0130	0330468172	Jul  6 2015 12:00:00:000AM	Jul 26 2015 12:00:00:000AM	2	000000018325394	Q5075002E COLEGIO OFICIAL 
0000000680	2085	5217	0330817907	Jul  6 2015 12:00:00:000AM	Jul 26 2015 12:00:00:000AM	2	000000004793618	Q5075002E COLEGIO OFICIAL 
0000000681	2085	0130	0330468172	Jul 27 2015 12:00:00:000AM	Jul 30 2015 12:00:00:000AM	2	000000017052308	Q5075002E COLEGIO OFICIAL 
0000000682	2085	5217	0330817907	Jul 27 2015 12:00:00:000AM	Jul 30 2015 12:00:00:000AM	2	000000005895569	Q5075002E COLEGIO OFICIAL 
0000000683	2085	0130	0330501112	Jul  6 2015 12:00:00:000AM	Jul 26 2015 12:00:00:000AM	2	000000019122942	B99287260 COAATIEZ SERVICI
0000000684	2085	5217	0330817907	Jul 31 2015 12:00:00:000AM	Aug 23 2015 12:00:00:000AM	2	000000006397457	Q5075002E COLEGIO OFICIAL 
0000000685	2085	0130	0330468172	Jul 31 2015 12:00:00:000AM	Aug 23 2015 12:00:00:000AM	2	000000014945890	Q5075002E COLEGIO OFICIAL 
0000000686	2085	0130	0330501112	Jul 27 2015 12:00:00:000AM	Aug 23 2015 12:00:00:000AM	2	000000019050252	B99287260 COAATIEZ SERVICI
0000000687	2085	5217	0330817907	Aug 24 2015 12:00:00:000AM	Sep 13 2015 12:00:00:000AM	2	000000007075481	Q5075002E COLEGIO OFICIAL 
0000000688	2085	0130	0330468172	Aug 24 2015 12:00:00:000AM	Sep 20 2015 12:00:00:000AM	2	000000009696042	Q5075002E COLEGIO OFICIAL 
0000000689	2085	0130	0330501112	Aug 24 2015 12:00:00:000AM	Sep 20 2015 12:00:00:000AM	2	000000018540676	B99287260 COAATIEZ SERVICI
0000000690	2085	0130	0330468172	Sep 21 2015 12:00:00:000AM	Sep 30 2015 12:00:00:000AM	2	000000006718829	Q5075002E COLEGIO OFICIAL 
0000000691	2085	5217	0330817907	Sep 14 2015 12:00:00:000AM	Sep 30 2015 12:00:00:000AM	2	000000007232744	Q5075002E COLEGIO OFICIAL 
0000000692	2085	0130	0330501112	Sep 21 2015 12:00:00:000AM	Sep 30 2015 12:00:00:000AM	2	000000018647139	B99287260 COAATIEZ SERVICI
0000000693	2085	0130	0330468172	Oct  1 2015 12:00:00:000AM	Oct 29 2015 12:00:00:000AM	2	000000008663408	Q5075002E COLEGIO OFICIAL 
0000000694	2085	5217	0330817907	Oct  1 2015 12:00:00:000AM	Oct 29 2015 12:00:00:000AM	2	000000003468009	Q5075002E COLEGIO OFICIAL 
0000000695	2085	0130	0330501112	Oct  1 2015 12:00:00:000AM	Oct 29 2015 12:00:00:000AM	2	000000018621117	B99287260 COAATIEZ SERVICI
0000000696	0049	2778	2314447398	Jul  1 2015 12:00:00:000AM	Jul 31 2015 12:00:00:000AM	2	000000001612684	0000000000NOMBRE ABREVIADO
0000000697	0049	2778	2314447398	Aug  1 2015 12:00:00:000AM	Aug 31 2015 12:00:00:000AM	2	000000001805300	0000000000NOMBRE ABREVIADO
0000000698	0049	2778	2314447398	Sep  1 2015 12:00:00:000AM	Sep 30 2015 12:00:00:000AM	2	000000002160472	0000000000NOMBRE ABREVIADO
0000000699	0049	2778	2314447398	Oct  1 2015 12:00:00:000AM	Oct 31 2015 12:00:00:000AM	2	000000001996052	0000000000NOMBRE ABREVIADO
0000000700	2085	0130	0330501112	Oct 30 2015 12:00:00:000AM	Dec 13 2015 12:00:00:000AM	2	000000018553779	B99287260 COAATIEZ SERVICI
0000000701	0049	2778	2314447398	Nov  1 2015 12:00:00:000AM	Nov 30 2015 12:00:00:000AM	2	000000001879542	0000000000NOMBRE ABREVIADO
0000000702	2085	0130	0330468172	Oct 30 2015 12:00:00:000AM	Dec 28 2015 12:00:00:000AM	2	000000006528789	Q5075002E COLEGIO OFICIAL 
0000000703	2085	5217	0330817907	Oct 30 2015 12:00:00:000AM	Dec 28 2015 12:00:00:000AM	2	000000004927265	Q5075002E COLEGIO OFICIAL 
0000000704	2085	0130	0330501112	Dec 14 2015 12:00:00:000AM	Dec 28 2015 12:00:00:000AM	2	000000018594271	B99287260 COAATIEZ SERVICI
0000000705	2085	5217	0330817907	Dec 29 2015 12:00:00:000AM	Dec 31 2015 12:00:00:000AM	2	000000002559271	Q5075002E COLEGIO OFICIAL 
0000000706	2085	0130	0330468172	Dec 29 2015 12:00:00:000AM	Dec 31 2015 12:00:00:000AM	2	000000015213148	Q5075002E COLEGIO OFICIAL 
0000000707	2085	0130	0330468172	Jan  1 2016 12:00:00:000AM	Feb  7 2016 12:00:00:000AM	2	000000007622681	Q5075002E COLEGIO OFICIAL 
0000000708	2085	5217	0330817907	Jan  1 2016 12:00:00:000AM	Feb  7 2016 12:00:00:000AM	2	000000002584681	Q5075002E COLEGIO OFICIAL 
0000000711	2085	0130	0330501112	Dec 29 2015 12:00:00:000AM	Dec 31 2015 12:00:00:000AM	2	000000018599933	B99287260 COAATIEZ SERVICI
0000000712	2085	0130	0330501112	Jan  1 2016 12:00:00:000AM	Feb 21 2016 12:00:00:000AM	2	000000018929535	B99287260 COAATIEZ SERVICI
0000000713	2085	0130	0330468172	Feb  8 2016 12:00:00:000AM	Feb 29 2016 12:00:00:000AM	2	000000003398516	Q5075002E COLEGIO OFICIAL 
0000000714	2085	5217	0330817907	Feb  8 2016 12:00:00:000AM	Feb 29 2016 12:00:00:000AM	2	000000004084050	Q5075002E COLEGIO OFICIAL 
0000000715	2085	0130	0330501112	Feb 22 2016 12:00:00:000AM	Mar  6 2016 12:00:00:000AM	2	000000029378681	B99287260 COAATIEZ SERVICI
0000000716	0049	2778	2314447398	Dec  1 2015 12:00:00:000AM	Dec 31 2015 12:00:00:000AM	2	000000001708453	0000000000NOMBRE ABREVIADO
0000000717	0049	2778	2314447398	Jan  1 2016 12:00:00:000AM	Jan 31 2016 12:00:00:000AM	2	000000001698921	0000000000NOMBRE ABREVIADO
0000000718	0049	2778	2314447398	Feb  1 2016 12:00:00:000AM	Feb 29 2016 12:00:00:000AM	2	000000002054512	0000000000NOMBRE ABREVIADO
0000000719	2085	0130	0330468172	Mar  1 2016 12:00:00:000AM	Apr  3 2016 12:00:00:000AM	2	000000003501070	Q5075002E COLEGIO OFICIAL 
0000000720	2085	5217	0330817907	Mar  1 2016 12:00:00:000AM	Apr  3 2016 12:00:00:000AM	2	000000023143668	Q5075002E COLEGIO OFICIAL 
0000000721	2085	0130	0330501112	Mar  7 2016 12:00:00:000AM	Apr 10 2016 12:00:00:000AM	2	000000007577689	B99287260 COAATIEZ SERVICI
0000000722	2085	0130	0330501112	Apr 11 2016 12:00:00:000AM	Apr 30 2016 12:00:00:000AM	2	000000011055953	B99287260 COAATIEZ SERVICI
0000000723	2085	0130	0330468172	Apr  4 2016 12:00:00:000AM	May  8 2016 12:00:00:000AM	2	000000015645609	Q5075002E COLEGIO OFICIAL 
0000000727	2085	5217	0330817907	Apr  4 2016 12:00:00:000AM	May 15 2016 12:00:00:000AM	2	000000014529303	Q5075002E COLEGIO OFICIAL 
0000000728	0049	2778	2314447398	Mar  1 2016 12:00:00:000AM	Mar 31 2016 12:00:00:000AM	2	000000001975222	0000000000NOMBRE ABREVIADO
0000000729	0049	2778	2314447398	Apr  1 2016 12:00:00:000AM	Apr 30 2016 12:00:00:000AM	2	000000001271411	0000000000NOMBRE ABREVIADO
0000000730	2085	5217	0330817907	May 16 2016 12:00:00:000AM	May 29 2016 12:00:00:000AM	2	000000012392720	Q5075002E COLEGIO OFICIAL 
0000000731	2085	0130	0330468172	May  9 2016 12:00:00:000AM	May 29 2016 12:00:00:000AM	2	000000005217575	Q5075002E COLEGIO OFICIAL 
0000000732	2085	0130	0330501112	May  1 2016 12:00:00:000AM	May 31 2016 12:00:00:000AM	2	000000011553631	B99287260 COAATIEZ SERVICI
0000000733	2085	0130	0330468172	May 30 2016 12:00:00:000AM	May 31 2016 12:00:00:000AM	2	000000004499691	Q5075002E COLEGIO OFICIAL 
0000000734	2085	0130	0330468172	Jun  1 2016 12:00:00:000AM	Jun 30 2016 12:00:00:000AM	2	000000003712617	Q5075002E COLEGIO OFICIAL 
0000000737	2085	0130	0330501112	Jun  1 2016 12:00:00:000AM	Jun 30 2016 12:00:00:000AM	2	000000010803208	B99287260 COAATIEZ SERVICI
0000000738	2085	5217	0330817907	May 30 2016 12:00:00:000AM	May 31 2016 12:00:00:000AM	2	000000012918359	Q5075002E COLEGIO OFICIAL 
0000000739	2085	5217	0330817907	Jun  1 2016 12:00:00:000AM	Jun 30 2016 12:00:00:000AM	2	000000033862604	Q5075002E COLEGIO OFICIAL 
0000000740	0049	2778	2314447398	May  1 2016 12:00:00:000AM	May 31 2016 12:00:00:000AM	2	000000001777264	0000000000NOMBRE ABREVIADO
0000000741	0049	2778	2314447398	Jun  1 2016 12:00:00:000AM	Jun 30 2016 12:00:00:000AM	2	000000001702104	0000000000NOMBRE ABREVIADO
0000000742	2085	0130	0330501112	Jul  1 2016 12:00:00:000AM	Jul 31 2016 12:00:00:000AM	2	000000014366374	B99287260 COAATIEZ SERVICI
0000000743	2085	0130	0330468172	Jul  1 2016 12:00:00:000AM	Jul 31 2016 12:00:00:000AM	2	000000004581355	Q5075002E COLEGIO OFICIAL 
0000000744	2085	5217	0330817907	Jul  1 2016 12:00:00:000AM	Jul 31 2016 12:00:00:000AM	2	000000019148720	Q5075002E COLEGIO OFICIAL 
0000000745	0049	2778	2314447398	Jul  1 2016 12:00:00:000AM	Jul 31 2016 12:00:00:000AM	2	000000001529699	0000000000NOMBRE ABREVIADO
0000000746	0049	2778	2314447398	Aug  1 2016 12:00:00:000AM	Aug 31 2016 12:00:00:000AM	2	000000001935718	0000000000NOMBRE ABREVIADO
0000000747	2085	0130	0330468172	Aug  1 2016 12:00:00:000AM	Aug 31 2016 12:00:00:000AM	2	000000007064618	Q5075002E COLEGIO OFICIAL 
0000000748	2085	5217	0330817907	Aug  1 2016 12:00:00:000AM	Aug 31 2016 12:00:00:000AM	2	000000013951264	Q5075002E COLEGIO OFICIAL 
0000000749	2085	0130	0330501112	Aug  1 2016 12:00:00:000AM	Aug 31 2016 12:00:00:000AM	2	000000014409236	B99287260 COAATIEZ SERVICI
0000000750	0049	2778	2314447398	Sep  1 2016 12:00:00:000AM	Sep 30 2016 12:00:00:000AM	2	000000001854278	0000000000NOMBRE ABREVIADO
0000000751	2085	0130	0330468172	Sep  1 2016 12:00:00:000AM	Sep 30 2016 12:00:00:000AM	2	000000005357303	Q5075002E COLEGIO OFICIAL 
0000000752	2085	5217	0330817907	Sep  1 2016 12:00:00:000AM	Sep 30 2016 12:00:00:000AM	2	000000014322960	Q5075002E COLEGIO OFICIAL 
0000000753	2085	0130	0330501112	Sep  1 2016 12:00:00:000AM	Sep 30 2016 12:00:00:000AM	2	000000014542526	B99287260 COAATIEZ SERVICI
0000000754	0049	2778	2314447398	Oct  1 2016 12:00:00:000AM	Oct 31 2016 12:00:00:000AM	2	000000001975183	0000000000NOMBRE ABREVIADO
0000000755	2085	0130	0330468172	Oct  1 2016 12:00:00:000AM	Oct 31 2016 12:00:00:000AM	2	000000008595693	Q5075002E COLEGIO OFICIAL 
0000000756	2085	5217	0330817907	Oct  1 2016 12:00:00:000AM	Oct 31 2016 12:00:00:000AM	2	000000010551200	Q5075002E COLEGIO OFICIAL 
0000000758	2085	5217	0330817907	Nov  1 2016 12:00:00:000AM	Nov 30 2016 12:00:00:000AM	2	000000011881230	Q5075002E COLEGIO OFICIAL 
0000000759	2085	0130	0330468172	Nov  1 2016 12:00:00:000AM	Nov 30 2016 12:00:00:000AM	2	000000006572952	Q5075002E COLEGIO OFICIAL 
0000000760	0049	2778	2314447398	Nov  1 2016 12:00:00:000AM	Nov 30 2016 12:00:00:000AM	2	000000001847317	0000000000NOMBRE ABREVIADO
0000000761	2085	0130	0330501112	Oct  1 2016 12:00:00:000AM	Oct 31 2016 12:00:00:000AM	2	000000014652471	B99287260 COAATIEZ SERVICI
0000000762	2085	0130	0330501112	Nov  1 2016 12:00:00:000AM	Nov 30 2016 12:00:00:000AM	2	000000014642294	B99287260 COAATIEZ SERVICI
0000000763	0049	2778	2314447398	Dec  1 2016 12:00:00:000AM	Dec 31 2016 12:00:00:000AM	2	000000001740847	0000000000NOMBRE ABREVIADO
0000000768	2085	0130	0330501112	Dec  1 2016 12:00:00:000AM	Dec 31 2016 12:00:00:000AM	2	000000014874504	B99287260 COAATIEZ SERVICI
0000000771	2085	5217	0330817907	Dec  1 2016 12:00:00:000AM	Dec 31 2016 12:00:00:000AM	2	000000005194698	Q5075002E COLEGIO OFICIAL 
0000000773	2085	0130	0330468172	Dec  1 2016 12:00:00:000AM	Dec 31 2016 12:00:00:000AM	2	000000013434632	Q5075002E COLEGIO OFICIAL 
0000000774	2085	0130	0330468172	Jan  1 2017 12:00:00:000AM	Jan 31 2017 12:00:00:000AM	2	000000018742773	Q5075002E COLEGIO OFICIAL 
0000000775	2085	5217	0330817907	Jan  1 2017 12:00:00:000AM	Jan 31 2017 12:00:00:000AM	2	000000007702503	Q5075002E COLEGIO OFICIAL 
0000000776	2085	0130	0330501112	Jan  1 2017 12:00:00:000AM	Jan 31 2017 12:00:00:000AM	2	000000015060983	B99287260 COAATIEZ SERVICI
0000000777	0049	2778	2314447398	Feb  1 2017 12:00:00:000AM	Feb 28 2017 12:00:00:000AM	2	000000002156575	0000000000NOMBRE ABREVIADO
0000000786	2085	5217	0330817907	Feb  1 2017 12:00:00:000AM	Feb 28 2017 12:00:00:000AM	2	000000008045691	Q5075002E COLEGIO OFICIAL 
0000000787	2085	0130	0330468172	Feb  1 2017 12:00:00:000AM	Feb 28 2017 12:00:00:000AM	2	000000031125756	Q5075002E COLEGIO OFICIAL 
0000000788	2085	0130	0330501112	Feb  1 2017 12:00:00:000AM	Feb 28 2017 12:00:00:000AM	2	000000009593860	B99287260 COAATIEZ SERVICI
0000000789	0049	2778	2314447398	Mar  1 2017 12:00:00:000AM	Mar 31 2017 12:00:00:000AM	2	000000002051002	0000000000NOMBRE ABREVIADO
0000000790	2085	0130	0330501112	Mar  1 2017 12:00:00:000AM	Mar 31 2017 12:00:00:000AM	2	000000008888470	B99287260 COAATIEZ SERVICI
0000000791	2085	5217	0330817907	Mar  1 2017 12:00:00:000AM	Mar 31 2017 12:00:00:000AM	2	000000008825944	Q5075002E COLEGIO OFICIAL 
0000000792	2085	0130	0330468172	Mar  1 2017 12:00:00:000AM	Mar 31 2017 12:00:00:000AM	2	000000018936077	Q5075002E COLEGIO OFICIAL 
